Sjasm Z80 Assembler v0.42c - www.xl2s.tk             [2022.09.14 - 12:29:18]

/home/paco/Documentos/proyectos/vampireslayer/test1/src/vs.asm
Errors: 0

       1   00:0000                      	OUTPUT	"vs.rom"
       2   00:4000                      	
       3   00:4000                      	include "variables.sym"
       1.  00:4000  (00:00D8)           GTTRIG: equ 000000D8h
       2.  00:4000  (00:00D5)           GTSTCK: equ 000000D5h
       3.  00:4000  (00:F3DB)           CLIKSW: equ 0000F3DBh
       4.  00:4000  (00:013E)           RDVDP: equ 0000013Eh
       5.  00:4000  (00:0047)           WRTVDP: equ 00000047h
       6.  00:4000  (00:005C)           LDIRVM: equ 0000005Ch
       7.  00:4000  (00:0059)           LDIRMV: equ 00000059h
       8.  00:4000  (00:0056)           FILVRM: equ 00000056h
       9.  00:4000  (00:005F)           CHGMOD: equ 0000005Fh
      10.  00:4000  (00:0041)           DISSCR: equ 00000041h
      11.  00:4000  (00:0044)           ENASCR: equ 00000044h
      12.  00:4000  (00:0062)           CHGCLR: equ 00000062h
      13.  00:4000  (00:F3E9)           FORCLR: equ 0000F3E9h
      14.  00:4000  (00:F3EA)           BAKCLR: equ 0000F3EAh
      15.  00:4000  (00:F3EB)           BDRCLR: equ 0000F3EBh
      16.  00:4000  (00:00C3)           CLS: equ 000000C3h
      17.  00:4000  (00:00D1)           BORRASPRITE: equ 000000D1h
      18.  00:4000  (00:00D0)           BORRASPRITESIG: equ 000000D0h
      19.  00:4000  (00:F3DF)           RG0SAV: equ 0000F3DFh
      20.  00:4000  (00:F3E0)           RG1SAV: equ 0000F3E0h
      21.  00:4000  (00:F3E1)           RG2SAV: equ 0000F3E1h
      22.  00:4000  (00:F3E2)           RG3SAV: equ 0000F3E2h
      23.  00:4000  (00:F3E3)           RG4SAV: equ 0000F3E3h
      24.  00:4000  (00:F3E4)           RG5SAV: equ 0000F3E4h
      25.  00:4000  (00:F3E5)           RG6SAV: equ 0000F3E5h
      26.  00:4000  (00:F3E6)           RG7SAV: equ 0000F3E6h
      27.  00:4000  (00:F3E7)           STATFL: equ 0000F3E7h
      28.  00:4000  (00:0099)           REGEST: equ 00000099h
      29.  00:4000  (00:0098)           REGESCVDP: equ 00000098h
      30.  00:4000  (00:00A0)           PSG_A: equ 000000A0h
      31.  00:4000  (00:00A1)           PSG_W: equ 000000A1h
      32.  00:4000  (00:00A2)           PSG_R: equ 000000A2h
      33.  00:4000  (00:0000)           CHRTBL: equ 00000000h
      34.  00:4000  (00:1800)           TILMAP: equ 00001800h
      35.  00:4000  (00:1B00)           SPRART: equ 00001B00h
      36.  00:4000  (00:2000)           CLRTBL: equ 00002000h
      37.  00:4000  (00:3800)           SPRTBL: equ 00003800h
      38.  00:4000  (00:0001)           SI: equ 00000001h
      39.  00:4000  (00:0000)           NO: equ 00000000h
      40.  00:4000  (00:0000)           COLTRASP: equ 00000000h
      41.  00:4000  (00:0001)           COLNEGRO: equ 00000001h
      42.  00:4000  (00:0002)           COLVERDE: equ 00000002h
      43.  00:4000  (00:0003)           COLVERCLA: equ 00000003h
      44.  00:4000  (00:0004)           COLAZULOSC: equ 00000004h
      45.  00:4000  (00:0005)           COLAZULLA: equ 00000005h
      46.  00:4000  (00:0006)           COLROJOOSC: equ 00000006h
      47.  00:4000  (00:0007)           COLCYAN: equ 00000007h
      48.  00:4000  (00:0008)           COLROJO: equ 00000008h
      49.  00:4000  (00:0009)           COLROJOCLA: equ 00000009h
      50.  00:4000  (00:000A)           COLAMAROSC: equ 0000000Ah
      51.  00:4000  (00:000B)           COLAMARCLA: equ 0000000Bh
      52.  00:4000  (00:000C)           COLVERDOSC: equ 0000000Ch
      53.  00:4000  (00:000D)           COLMAGENTA: equ 0000000Dh
      54.  00:4000  (00:000E)           COLGRIS: equ 0000000Eh
      55.  00:4000  (00:000F)           COLBLANCO: equ 0000000Fh
      56.  00:4000  (00:02F8)           POSMAPLIN1: equ 000002F8h
      57.  00:4000  (00:02D8)           POSMAPLIN2: equ 000002D8h
      58.  00:4000  (00:02B8)           POSMAPLIN3: equ 000002B8h
      59.  00:4000  (00:0298)           POSMAPLIN4: equ 00000298h
      60.  00:4000  (00:0278)           POSMAPLIN5: equ 00000278h
      61.  00:4000  (00:0258)           POSMAPLIN6: equ 00000258h
      62.  00:4000  (00:0238)           POSMAPLIN7: equ 00000238h
      63.  00:4000  (00:000D)           POSCARAMAP: equ 0000000Dh
      64.  00:4000  (00:0248)           POSVIDAS: equ 00000248h
      65.  00:4000  (00:0011)           POSRELIMAP: equ 00000011h
      66.  00:4000  (00:02C8)           POSRELIQ: equ 000002C8h
      67.  00:4000  (00:0288)           POSENERG: equ 00000288h
      68.  00:4000  (00:02B4)           POSNIVEL: equ 000002B4h
      69.  00:4000  (00:0238)           POSMAPA: equ 00000238h
      70.  00:4000  (00:01EE)           POSPUERABAJ: equ 000001EEh
      71.  00:4000  (00:008E)           POSPUERARRI: equ 0000008Eh
      72.  00:4000  (00:00FC)           POSPUERDERE: equ 000000FCh
      73.  00:4000  (00:00E1)           POSPUERIZQU: equ 000000E1h
      74.  00:4000  (00:006C)           POSESCALERA: equ 0000006Ch
      75.  00:4000  (00:0146)           POSORACION: equ 00000146h
      76.  00:4000  (00:01A3)           POSCRUZ: equ 000001A3h
      77.  00:4000  (00:016A)           POSAGUA: equ 0000016Ah
      78.  00:4000  (00:01AB)           POSARMADURA: equ 000001ABh
      79.  00:4000  (00:0172)           POSPLANTA: equ 00000172h
      80.  00:4000  (00:01B6)           POSVIDAEXT: equ 000001B6h
      81.  00:4000  (00:0158)           POSBALLESTA: equ 00000158h
      82.  00:4000  (00:0038)           POSORACIONX: equ 00000038h
      83.  00:4000  (00:0058)           POSORACIONY: equ 00000058h
      84.  00:4000  (00:0020)           POSCRUZX: equ 00000020h
      85.  00:4000  (00:0070)           POSCRUZY: equ 00000070h
      86.  00:4000  (00:0058)           POSAGUAX: equ 00000058h
      87.  00:4000  (00:0060)           POSAGUAY: equ 00000060h
      88.  00:4000  (00:0060)           POSARMADURAX: equ 00000060h
      89.  00:4000  (00:0070)           POSARMADURAY: equ 00000070h
      90.  00:4000  (00:0090)           POSPLANTAX: equ 00000090h
      91.  00:4000  (00:0060)           POSPLANTAY: equ 00000060h
      92.  00:4000  (00:00B8)           POSVIDAEXTX: equ 000000B8h
      93.  00:4000  (00:0070)           POSVIDAEXTY: equ 00000070h
      94.  00:4000  (00:00C8)           POSBALLESTAX: equ 000000C8h
      95.  00:4000  (00:0058)           POSBALLESTAY: equ 00000058h
      96.  00:4000  (00:0002)           ALTOAYUDA: equ 00000002h
      97.  00:4000  (00:0002)           ANCHOAYUDA: equ 00000002h
      98.  00:4000  (00:0008)           RADIOAYUDAX: equ 00000008h
      99.  00:4000  (00:0008)           RADIOAYUDAY: equ 00000008h
     100.  00:4000  (00:0078)           POSXPM: equ 00000078h
     101.  00:4000  (00:006C)           POSYPM: equ 0000006Ch
     102.  00:4000  (00:0001)           ISHABTERMIN: equ 00000001h
     103.  00:4000  (00:0004)           LIMCADENCIA: equ 00000004h
     104.  00:4000  (00:0002)           DANO1: equ 00000002h
     105.  00:4000  (00:0005)           DANO2: equ 00000005h
     106.  00:4000  (00:0000)           SPRI_DANO1A: equ 00000000h
     107.  00:4000  (00:0004)           SPRI_DANO1B: equ 00000004h
     108.  00:4000  (00:0008)           SPRI_DANO2A: equ 00000008h
     109.  00:4000  (00:000C)           SPRI_DANO2B: equ 0000000Ch
     110.  00:4000  (00:0088)           POSANTOR1: equ 00000088h
     111.  00:4000  (00:0097)           POSANTOR2: equ 00000097h
     112.  00:4000  (00:00C4)           MAPLLAMA1: equ 000000C4h
     113.  00:4000  (00:00C5)           MAPLLAMA2: equ 000000C5h
     114.  00:4000  (00:00FF)           RESETLLAMA: equ 000000FFh
     115.  00:4000  (00:0088)           POSESQUEL1: equ 00000088h
     116.  00:4000  (00:0095)           POSESQUEL2: equ 00000095h
     117.  00:4000  (00:00A9)           POSCALAVE1: equ 000000A9h
     118.  00:4000  (00:00B6)           POSCALAVE2: equ 000000B6h
     119.  00:4000  (00:0019)           RESETESQUEL: equ 00000019h
     120.  00:4000  (00:0004)           RESETESCENAESQUEL: equ 00000004h
     121.  00:4000  (00:0013)           TILEPROTAM: equ 00000013h
     122.  00:4000  (00:0009)           TILEGRISM: equ 00000009h
     123.  00:4000  (00:0010)           TILEMAPROJO: equ 00000010h
     124.  00:4000  (00:000F)           TILEMAPAMAR: equ 0000000Fh
     125.  00:4000  (00:000E)           TILEMAPVERD: equ 0000000Eh
     126.  00:4000  (00:0008)           NMAXVIDREL: equ 00000008h
     127.  00:4000  (00:0007)           NHABNIVEL: equ 00000007h
     128.  00:4000  (00:00F8)           MAXENERGIA: equ 000000F8h
     129.  00:4000  (00:00D9)           TILEENERG8: equ 000000D9h
     130.  00:4000  (00:00BA)           TILEENERG7: equ 000000BAh
     131.  00:4000  (00:009B)           TILEENERG6: equ 0000009Bh
     132.  00:4000  (00:007C)           TILEENERG5: equ 0000007Ch
     133.  00:4000  (00:005D)           TILEENERG4: equ 0000005Dh
     134.  00:4000  (00:003E)           TILEENERG3: equ 0000003Eh
     135.  00:4000  (00:001F)           TILEENERG2: equ 0000001Fh
     136.  00:4000  (00:0000)           TILENEGRO: equ 00000000h
     137.  00:4000  (00:0000)           LIMPANTIZQ: equ 00000000h
     138.  00:4000  (00:00FF)           LIMPANTDER: equ 000000FFh
     139.  00:4000  (00:0000)           LIMPANTARR: equ 00000000h
     140.  00:4000  (00:0080)           LIMPANTABA: equ 00000080h
     141.  00:4000  (00:0006)           BASEMAPY: equ 00000006h
     142.  00:4000  (00:0003)           BASEMAPX: equ 00000003h
     143.  00:4000  (00:0000)           PROTANIVEL: equ 00000000h
     144.  00:4000  (00:0003)           PROTAVIDAS: equ 00000003h
     145.  00:4000  (00:0003)           PROTARELIQUIAS: equ 00000003h
     146.  00:4000  (00:0003)           PROTAPOSMAPX: equ 00000003h
     147.  00:4000  (00:0000)           PROTAPOSMAPY: equ 00000000h
     148.  00:4000  (00:00C8)           PROTAENERGIA: equ 000000C8h
     149.  00:4000  (00:0000)           PROTAENERGIABYTEBAJO: equ 00000000h
     150.  00:4000  (00:FD9A)           H.KEYI: equ 0000FD9Ah
     151.  00:4000  (00:FD9F)           H.TIMI: equ 0000FD9Fh
     152.  00:4000  (00:F000)           PT3_SETUP: equ 0000F000h
     153.  00:4000  (00:F001)           PT3_MODADDR: equ 0000F001h
     154.  00:4000  (00:F003)           PT3_CrPsPtr: equ 0000F003h
     155.  00:4000  (00:F005)           PT3_SAMPTRS: equ 0000F005h
     156.  00:4000  (00:F007)           PT3_OrnPtrs: equ 0000F007h
     157.  00:4000  (00:F009)           PT3_PDSP: equ 0000F009h
     158.  00:4000  (00:F00B)           PT3_CSP: equ 0000F00Bh
     159.  00:4000  (00:F00D)           PT3_PSP: equ 0000F00Dh
     160.  00:4000  (00:F00F)           PT3_PrNote: equ 0000F00Fh
     161.  00:4000  (00:F010)           PT3_PrSlide: equ 0000F010h
     162.  00:4000  (00:F012)           PT3_AdInPtA: equ 0000F012h
     163.  00:4000  (00:F014)           PT3_AdInPtB: equ 0000F014h
     164.  00:4000  (00:F016)           PT3_AdInPtC: equ 0000F016h
     165.  00:4000  (00:F018)           PT3_LPosPtr: equ 0000F018h
     166.  00:4000  (00:F01A)           PT3_PatsPtr: equ 0000F01Ah
     167.  00:4000  (00:F01C)           PT3_Delay: equ 0000F01Ch
     168.  00:4000  (00:F01D)           PT3_AddToEn: equ 0000F01Dh
     169.  00:4000  (00:F01E)           PT3_Env_Del: equ 0000F01Eh
     170.  00:4000  (00:F01F)           PT3_ESldAdd: equ 0000F01Fh
     171.  00:4000  (00:F021)           PT3_NTL3: equ 0000F021h
     172.  00:4000  (00:F023)           VARS: equ 0000F023h
     173.  00:4000  (00:F023)           ChanA: equ 0000F023h
     174.  00:4000  (00:F040)           ChanB: equ 0000F040h
     175.  00:4000  (00:F05D)           ChanC: equ 0000F05Dh
     176.  00:4000  (00:F07A)           DelyCnt: equ 0000F07Ah
     177.  00:4000  (00:F07B)           CurESld: equ 0000F07Bh
     178.  00:4000  (00:F07D)           CurEDel: equ 0000F07Dh
     179.  00:4000  (00:F07E)           Ns_Base_AddToNs: equ 0000F07Eh
     180.  00:4000  (00:F07E)           Ns_Base: equ 0000F07Eh
     181.  00:4000  (00:F07F)           AddToNs: equ 0000F07Fh
     182.  00:4000  (00:F080)           NT_: equ 0000F080h
     183.  00:4000  (00:F140)           AYREGS: equ 0000F140h
     184.  00:4000  (00:F140)           VT_: equ 0000F140h
     185.  00:4000  (00:F14E)           EnvBase: equ 0000F14Eh
     186.  00:4000  (00:F150)           VAR0END: equ 0000F150h
     187.  00:4000  (00:F150)           T1_: equ 0000F150h
     188.  00:4000  (00:F150)           T_NEW_1: equ 0000F150h
     189.  00:4000  (00:F150)           T_OLD_1: equ 0000F150h
     190.  00:4000  (00:F168)           T_OLD_2: equ 0000F168h
     191.  00:4000  (00:F180)           T_NEW_3: equ 0000F180h
     192.  00:4000  (00:F180)           T_OLD_3: equ 0000F180h
     193.  00:4000  (00:F182)           T_OLD_0: equ 0000F182h
     194.  00:4000  (00:F182)           T_NEW_0: equ 0000F182h
     195.  00:4000  (00:F19A)           T_NEW_2: equ 0000F19Ah
     196.  00:4000  (00:F240)           ayFX_MODE: equ 0000F240h
     197.  00:4000  (00:F241)           ayFX_BANK: equ 0000F241h
     198.  00:4000  (00:F243)           ayFX_PRIORITY: equ 0000F243h
     199.  00:4000  (00:F244)           ayFX_POINTER: equ 0000F244h
     200.  00:4000  (00:F246)           ayFX_TONE: equ 0000F246h
     201.  00:4000  (00:F248)           ayFX_NOISE: equ 0000F248h
     202.  00:4000  (00:F249)           ayFX_VOLUME: equ 0000F249h
     203.  00:4000  (00:F24A)           ayFX_CHANNEL: equ 0000F24Ah
     204.  00:4000  (00:0000)           INACTIVA: equ 00000000h
     205.  00:4000  (00:0001)           ACTIVA: equ 00000001h
     206.  00:4000  (00:00D1)           OCULTA: equ 000000D1h
     207.  00:4000  (00:0000)           DIRABAJO: equ 00000000h
     208.  00:4000  (00:0000)           DIRDERECHA: equ 00000000h
     209.  00:4000  (00:0001)           DIRARRIBA: equ 00000001h
     210.  00:4000  (00:0001)           DIRIZQUIERDA: equ 00000001h
     211.  00:4000  (00:0000)           LIMITEPANTALLASUP: equ 00000000h
     212.  00:4000  (00:0070)           LIMITEPANTALLAINF: equ 00000070h
     213.  00:4000  (00:0000)           LIMITEPANTALLAIZQ: equ 00000000h
     214.  00:4000  (00:00F0)           LIMITEPANTALLADER: equ 000000F0h
     215.  00:4000  (00:0002)           TIPOCIEMPIES: equ 00000002h
     216.  00:4000  (00:000C)           CIENPIES_COLOR: equ 0000000Ch
     217.  00:4000  (00:0018)           CIENPIES_SPRITE1A: equ 00000018h
     218.  00:4000  (00:001C)           CIENPIES_SPRITE1B: equ 0000001Ch
     219.  00:4000  (00:0010)           CIENPIES_VELESCENA: equ 00000010h
     220.  00:4000  (00:0004)           TIPOARANA: equ 00000004h
     221.  00:4000  (00:0001)           ARANA_COLOR: equ 00000001h
     222.  00:4000  (00:0030)           ARANA_SPRITE1A: equ 00000030h
     223.  00:4000  (00:0034)           ARANA_SPRITE2A: equ 00000034h
     224.  00:4000  (00:0010)           ARANA_VELESCENA: equ 00000010h
     225.  00:4000  (00:0003)           TIPOSERPIENTE: equ 00000003h
     226.  00:4000  (00:000C)           SERPIENTE_COLOR: equ 0000000Ch
     227.  00:4000  (00:0020)           SERPIENTE_SPRITE1A: equ 00000020h
     228.  00:4000  (00:0024)           SERPIENTE_SPRITE2A: equ 00000024h
     229.  00:4000  (00:0028)           SERPIENTE_SPRITE1B: equ 00000028h
     230.  00:4000  (00:002C)           SERPIENTE_SPRITE2B: equ 0000002Ch
     231.  00:4000  (00:0048)           SERPIENTE_POSY: equ 00000048h
     232.  00:4000  (00:0028)           SERPIENTE_POSX: equ 00000028h
     233.  00:4000  (00:00A0)           SERPIENTE_PASOS: equ 000000A0h
     234.  00:4000  (00:0028)           SERPIENTE_LIMIZQ: equ 00000028h
     235.  00:4000  (00:00C8)           SERPIENTE_LIMDER: equ 000000C8h
     236.  00:4000  (00:0010)           SERPIENTE_VELESCENA: equ 00000010h
     237.  00:4000  (00:0005)           TIPOMURCIELAGO: equ 00000005h
     238.  00:4000  (00:0001)           MURCIELAGO_COLOR: equ 00000001h
     239.  00:4000  (00:0038)           MURCIELAGO_SPRITE1A: equ 00000038h
     240.  00:4000  (00:003C)           MURCIELAGO_SPRITE1B: equ 0000003Ch
     241.  00:4000  (00:0020)           MURCIELAGO_LIMIZQ: equ 00000020h
     242.  00:4000  (00:00DE)           MURCIELAGO_LIMDER: equ 000000DEh
     243.  00:4000  (00:0018)           MURCIELAGO_HORIZON: equ 00000018h
     244.  00:4000  (00:00C0)           MURCIELAGO_PASOS: equ 000000C0h
     245.  00:4000  (00:0010)           MURCIELAGO_VELESCENA: equ 00000010h
     246.  00:4000  (00:0006)           TIPOLOBO: equ 00000006h
     247.  00:4000  (00:0001)           LOBO_COLOR: equ 00000001h
     248.  00:4000  (00:0040)           LOBO_SPRITE1A: equ 00000040h
     249.  00:4000  (00:0044)           LOBO_SPRITE2A: equ 00000044h
     250.  00:4000  (00:0048)           LOBO_SPRITE3A: equ 00000048h
     251.  00:4000  (00:004C)           LOBO_SPRITE4A: equ 0000004Ch
     252.  00:4000  (00:0050)           LOBO_SPRITE1B: equ 00000050h
     253.  00:4000  (00:0054)           LOBO_SPRITE2B: equ 00000054h
     254.  00:4000  (00:0058)           LOBO_SPRITE3B: equ 00000058h
     255.  00:4000  (00:005C)           LOBO_SPRITE4B: equ 0000005Ch
     256.  00:4000  (00:0008)           LOBO_POSX: equ 00000008h
     257.  00:4000  (00:00D0)           LOBO_PASOS: equ 000000D0h
     258.  00:4000  (00:005F)           LOBO_POSY: equ 0000005Fh
     259.  00:4000  (00:0010)           LOBO_VELESCENA: equ 00000010h
     260.  00:4000  (00:000E)           TIPOJEFELOBO: equ 0000000Eh
     261.  00:4000  (00:0001)           JEFELOBO_COLOR: equ 00000001h
     262.  00:4000  (00:00CD)           JEFELOBO_LIM_PASOS1: equ 000000CDh
     263.  00:4000  (00:0028)           JEFELOBO_LIM_PASOS2: equ 00000028h
     264.  00:4000  (00:0075)           JEFELOBO_LIM_PASOS3: equ 00000075h
     265.  00:4000  (00:0028)           JEFELOBO_LIM_PASOS4: equ 00000028h
     266.  00:4000  (00:0008)           JEFELOBO_X: equ 00000008h
     267.  00:4000  (00:005C)           JEFELOBO_Y: equ 0000005Ch
     268.  00:4000  (00:00C0)           JEFELOBO_SPRITE1A: equ 000000C0h
     269.  00:4000  (00:00C4)           JEFELOBO_SPRITE2A: equ 000000C4h
     270.  00:4000  (00:00C8)           JEFELOBO_SPRITE3A: equ 000000C8h
     271.  00:4000  (00:00CC)           JEFELOBO_SPRITE4A: equ 000000CCh
     272.  00:4000  (00:00D0)           JEFELOBO_SPRITE1B: equ 000000D0h
     273.  00:4000  (00:00D4)           JEFELOBO_SPRITE2B: equ 000000D4h
     274.  00:4000  (00:00D8)           JEFELOBO_SPRITE3B: equ 000000D8h
     275.  00:4000  (00:00DC)           JEFELOBO_SPRITE4B: equ 000000DCh
     276.  00:4000  (00:00E0)           JEFELOBO_SPRITE1C: equ 000000E0h
     277.  00:4000  (00:00E4)           JEFELOBO_SPRITE2C: equ 000000E4h
     278.  00:4000  (00:00E8)           JEFELOBO_SPRITE3C: equ 000000E8h
     279.  00:4000  (00:00EC)           JEFELOBO_SPRITE4C: equ 000000ECh
     280.  00:4000  (00:00F0)           JEFELOBO_SPRITE1D: equ 000000F0h
     281.  00:4000  (00:00F4)           JEFELOBO_SPRITE2D: equ 000000F4h
     282.  00:4000  (00:00F8)           JEFELOBO_SPRITE3D: equ 000000F8h
     283.  00:4000  (00:00FC)           JEFELOBO_SPRITE4D: equ 000000FCh
     284.  00:4000  (00:0010)           JEFELOBO_VELESCENA: equ 00000010h
     285.  00:4000  (00:0007)           TIPOESQUELETO: equ 00000007h
     286.  00:4000  (00:000F)           ESQUELETO_COLOR: equ 0000000Fh
     287.  00:4000  (00:0060)           ESQUELETO_SPRITE1A: equ 00000060h
     288.  00:4000  (00:0064)           ESQUELETO_SPRITE2A: equ 00000064h
     289.  00:4000  (00:0068)           ESQUELETO_SPRITE3A: equ 00000068h
     290.  00:4000  (00:006C)           ESQUELETO_SPRITE4A: equ 0000006Ch
     291.  00:4000  (00:0070)           ESQUELETO_SPRITE1B: equ 00000070h
     292.  00:4000  (00:0074)           ESQUELETO_SPRITE2B: equ 00000074h
     293.  00:4000  (00:0078)           ESQUELETO_SPRITE3B: equ 00000078h
     294.  00:4000  (00:007C)           ESQUELETO_SPRITE4B: equ 0000007Ch
     295.  00:4000  (00:0000)           ESQUELETO_POSX: equ 00000000h
     296.  00:4000  (00:0060)           ESQUELETO_POSY: equ 00000060h
     297.  00:4000  (00:0010)           ESQUELETO_VELESCENA: equ 00000010h
     298.  00:4000  (00:0008)           TIPOZOMBI: equ 00000008h
     299.  00:4000  (00:000F)           ZOMBI_COLOR_A: equ 0000000Fh
     300.  00:4000  (00:000F)           ZOMBI_COLOR_B: equ 0000000Fh
     301.  00:4000  (00:0080)           ZOMBI_SPRITE1A: equ 00000080h
     302.  00:4000  (00:0084)           ZOMBI_SPRITE2A: equ 00000084h
     303.  00:4000  (00:0088)           ZOMBI_SPRITE3A: equ 00000088h
     304.  00:4000  (00:008C)           ZOMBI_SPRITE4A: equ 0000008Ch
     305.  00:4000  (00:0090)           ZOMBI_SPRITE1B: equ 00000090h
     306.  00:4000  (00:0094)           ZOMBI_SPRITE2B: equ 00000094h
     307.  00:4000  (00:0098)           ZOMBI_SPRITE3B: equ 00000098h
     308.  00:4000  (00:009C)           ZOMBI_SPRITE4B: equ 0000009Ch
     309.  00:4000  (00:00D8)           ZOMBI_LIMX_DER: equ 000000D8h
     310.  00:4000  (00:0020)           ZOMBI_LIMX_IZQ: equ 00000020h
     311.  00:4000  (00:0048)           ZOMBI_POSX: equ 00000048h
     312.  00:4000  (00:0040)           ZOMBI_POSY: equ 00000040h
     313.  00:4000  (00:0096)           ZOMBI_PASOS: equ 00000096h
     314.  00:4000  (00:0010)           ZOMBI_VELESCENA: equ 00000010h
     315.  00:4000  (00:000F)           TIPOJEFEMURCIELAGO: equ 0000000Fh
     316.  00:4000  (00:0001)           JEFEMURCIELAGO_COLOR: equ 00000001h
     317.  00:4000  (00:0000)           JEFEMURCIELAGO_LIMIARR: equ 00000000h
     318.  00:4000  (00:0060)           JEFEMURCIELAGO_LIMIABA: equ 00000060h
     319.  00:4000  (00:00E0)           JEFEMURCIELAGO_SPRITE1A: equ 000000E0h
     320.  00:4000  (00:00E4)           JEFEMURCIELAGO_SPRITE2A: equ 000000E4h
     321.  00:4000  (00:00E8)           JEFEMURCIELAGO_SPRITE3A: equ 000000E8h
     322.  00:4000  (00:00EC)           JEFEMURCIELAGO_SPRITE4A: equ 000000ECh
     323.  00:4000  (00:00F0)           JEFEMURCIELAGO_SPRITE1B: equ 000000F0h
     324.  00:4000  (00:00F4)           JEFEMURCIELAGO_SPRITE2B: equ 000000F4h
     325.  00:4000  (00:00F8)           JEFEMURCIELAGO_SPRITE3B: equ 000000F8h
     326.  00:4000  (00:00FC)           JEFEMURCIELAGO_SPRITE4B: equ 000000FCh
     327.  00:4000  (00:0010)           JEFEMURCIELAGO_VELESCENA: equ 00000010h
     328.  00:4000  (00:0009)           TIPOFANTASMA: equ 00000009h
     329.  00:4000  (00:0001)           FANTASMA_COLOR: equ 00000001h
     330.  00:4000  (00:00A0)           FANTASMA_SPRITE1A: equ 000000A0h
     331.  00:4000  (00:00A4)           FANTASMA_SPRITE2A: equ 000000A4h
     332.  00:4000  (00:00A8)           FANTASMA_SPRITE1B: equ 000000A8h
     333.  00:4000  (00:00AC)           FANTASMA_SPRITE2B: equ 000000ACh
     334.  00:4000  (00:0064)           FANTASMA_LIM_PASOS: equ 00000064h
     335.  00:4000  (00:0040)           FANTASMA_X1: equ 00000040h
     336.  00:4000  (00:0018)           FANTASMA_Y1: equ 00000018h
     337.  00:4000  (00:00A0)           FANTASMA_X2: equ 000000A0h
     338.  00:4000  (00:0018)           FANTASMA_Y2: equ 00000018h
     339.  00:4000  (00:0028)           FANTASMA_X3: equ 00000028h
     340.  00:4000  (00:0040)           FANTASMA_Y3: equ 00000040h
     341.  00:4000  (00:00B8)           FANTASMA_X4: equ 000000B8h
     342.  00:4000  (00:0040)           FANTASMA_Y4: equ 00000040h
     343.  00:4000  (00:0010)           FANTASMA_VELESCENA: equ 00000010h
     344.  00:4000  (00:0010)           TIPOJEFEFANTASMA: equ 00000010h
     345.  00:4000  (00:0001)           JEFEFANTASMA_COLOR: equ 00000001h
     346.  00:4000  (00:00E0)           JEFEFANTASMA_SPRITE1A: equ 000000E0h
     347.  00:4000  (00:00E4)           JEFEFANTASMA_SPRITE2A: equ 000000E4h
     348.  00:4000  (00:00E8)           JEFEFANTASMA_SPRITE3A: equ 000000E8h
     349.  00:4000  (00:00EC)           JEFEFANTASMA_SPRITE4A: equ 000000ECh
     350.  00:4000  (00:00F0)           JEFEFANTASMA_SPRITE1B: equ 000000F0h
     351.  00:4000  (00:00F4)           JEFEFANTASMA_SPRITE2B: equ 000000F4h
     352.  00:4000  (00:00F8)           JEFEFANTASMA_SPRITE3B: equ 000000F8h
     353.  00:4000  (00:00FC)           JEFEFANTASMA_SPRITE4B: equ 000000FCh
     354.  00:4000  (00:0064)           JEFEFANTASMA_LIM_PASOS: equ 00000064h
     355.  00:4000  (00:0008)           JEFEFANTASMA_X1: equ 00000008h
     356.  00:4000  (00:0008)           JEFEFANTASMA_Y1: equ 00000008h
     357.  00:4000  (00:0068)           JEFEFANTASMA_X2: equ 00000068h
     358.  00:4000  (00:0008)           JEFEFANTASMA_Y2: equ 00000008h
     359.  00:4000  (00:00E0)           JEFEFANTASMA_X3: equ 000000E0h
     360.  00:4000  (00:0010)           JEFEFANTASMA_Y3: equ 00000010h
     361.  00:4000  (00:0018)           JEFEFANTASMA_X4: equ 00000018h
     362.  00:4000  (00:0030)           JEFEFANTASMA_Y4: equ 00000030h
     363.  00:4000  (00:00A8)           JEFEFANTASMA_X5: equ 000000A8h
     364.  00:4000  (00:0018)           JEFEFANTASMA_Y5: equ 00000018h
     365.  00:4000  (00:00C0)           JEFEFANTASMA_X6: equ 000000C0h
     366.  00:4000  (00:0058)           JEFEFANTASMA_Y6: equ 00000058h
     367.  00:4000  (00:0080)           JEFEFANTASMA_X7: equ 00000080h
     368.  00:4000  (00:0048)           JEFEFANTASMA_Y7: equ 00000048h
     369.  00:4000  (00:0040)           JEFEFANTASMA_X8: equ 00000040h
     370.  00:4000  (00:0058)           JEFEFANTASMA_Y8: equ 00000058h
     371.  00:4000  (00:0010)           JEFEFANTASMA_VELESCENA: equ 00000010h
     372.  00:4000  (00:000A)           TIPOCABALLEROGRIS: equ 0000000Ah
     373.  00:4000  (00:0001)           CABALLERO_COLOR: equ 00000001h
     374.  00:4000  (00:0040)           CABALLERO_SPRITE1A: equ 00000040h
     375.  00:4000  (00:0044)           CABALLERO_SPRITE2A: equ 00000044h
     376.  00:4000  (00:0048)           CABALLERO_SPRITE3A: equ 00000048h
     377.  00:4000  (00:004C)           CABALLERO_SPRITE4A: equ 0000004Ch
     378.  00:4000  (00:0050)           CABALLERO_SPRITE1B: equ 00000050h
     379.  00:4000  (00:0054)           CABALLERO_SPRITE2B: equ 00000054h
     380.  00:4000  (00:0058)           CABALLERO_SPRITE3B: equ 00000058h
     381.  00:4000  (00:005C)           CABALLERO_SPRITE4B: equ 0000005Ch
     382.  00:4000  (00:0030)           CABALLERO_POSYINI: equ 00000030h
     383.  00:4000  (00:00C0)           CABALLERO_POSXINI: equ 000000C0h
     384.  00:4000  (00:0090)           CABALLERO_PASOS: equ 00000090h
     385.  00:4000  (00:0010)           CABALLERO_VELESCENA: equ 00000010h
     386.  00:4000  (00:0011)           TIPOJEFEZOMBI: equ 00000011h
     387.  00:4000  (00:0001)           JEFEZOMBI_COLOR_A: equ 00000001h
     388.  00:4000  (00:0001)           JEFEZOMBI_COLOR_B: equ 00000001h
     389.  00:4000  (00:0001)           JEFEZOMBI_COLOR_C: equ 00000001h
     390.  00:4000  (00:0001)           JEFEZOMBI_COLOR_D: equ 00000001h
     391.  00:4000  (00:00C0)           JEFEZOMBI_SPRITE1A: equ 000000C0h
     392.  00:4000  (00:00C4)           JEFEZOMBI_SPRITE2A: equ 000000C4h
     393.  00:4000  (00:00C8)           JEFEZOMBI_SPRITE3A: equ 000000C8h
     394.  00:4000  (00:00CC)           JEFEZOMBI_SPRITE4A: equ 000000CCh
     395.  00:4000  (00:00D0)           JEFEZOMBI_SPRITE1B: equ 000000D0h
     396.  00:4000  (00:00D4)           JEFEZOMBI_SPRITE2B: equ 000000D4h
     397.  00:4000  (00:00D8)           JEFEZOMBI_SPRITE3B: equ 000000D8h
     398.  00:4000  (00:00DC)           JEFEZOMBI_SPRITE4B: equ 000000DCh
     399.  00:4000  (00:00E0)           JEFEZOMBI_SPRITE1C: equ 000000E0h
     400.  00:4000  (00:00E4)           JEFEZOMBI_SPRITE2C: equ 000000E4h
     401.  00:4000  (00:00E8)           JEFEZOMBI_SPRITE3C: equ 000000E8h
     402.  00:4000  (00:00EC)           JEFEZOMBI_SPRITE4C: equ 000000ECh
     403.  00:4000  (00:00F0)           JEFEZOMBI_SPRITE1D: equ 000000F0h
     404.  00:4000  (00:00F4)           JEFEZOMBI_SPRITE2D: equ 000000F4h
     405.  00:4000  (00:00F8)           JEFEZOMBI_SPRITE3D: equ 000000F8h
     406.  00:4000  (00:00FC)           JEFEZOMBI_SPRITE4D: equ 000000FCh
     407.  00:4000  (00:00D8)           JEFEZOMBI_LIMX_DER: equ 000000D8h
     408.  00:4000  (00:0020)           JEFEZOMBI_LIMX_IZQ: equ 00000020h
     409.  00:4000  (00:00C8)           JEFEZOMBI_POSX: equ 000000C8h
     410.  00:4000  (00:0040)           JEFEZOMBI_POSY: equ 00000040h
     411.  00:4000  (00:0096)           JEFEZOMBI_PASOS: equ 00000096h
     412.  00:4000  (00:0010)           JEFEZOMBI_VELESCENA: equ 00000010h
     413.  00:4000  (00:000C)           TIPOFUEGO: equ 0000000Ch
     414.  00:4000  (00:0001)           FUEGO_COLOR1: equ 00000001h
     415.  00:4000  (00:0001)           FUEGO_COLOR2: equ 00000001h
     416.  00:4000  (00:00D0)           FUEGO_PASOSX: equ 000000D0h
     417.  00:4000  (00:0040)           FUEGO_PASOSY: equ 00000040h
     418.  00:4000  (00:00B0)           FUEGO_SPRITE1A: equ 000000B0h
     419.  00:4000  (00:00B4)           FUEGO_SPRITE2A: equ 000000B4h
     420.  00:4000  (00:00B8)           FUEGO_SPRITE1B: equ 000000B8h
     421.  00:4000  (00:00BC)           FUEGO_SPRITE2B: equ 000000BCh
     422.  00:4000  (00:000F)           FUEGO_POS1X: equ 0000000Fh
     423.  00:4000  (00:000F)           FUEGO_POS1Y: equ 0000000Fh
     424.  00:4000  (00:00DF)           FUEGO_POS2X: equ 000000DFh
     425.  00:4000  (00:000F)           FUEGO_POS2Y: equ 0000000Fh
     426.  00:4000  (00:00DF)           FUEGO_POS3X: equ 000000DFh
     427.  00:4000  (00:004F)           FUEGO_POS3Y: equ 0000004Fh
     428.  00:4000  (00:000F)           FUEGO_POS4X: equ 0000000Fh
     429.  00:4000  (00:004F)           FUEGO_POS4Y: equ 0000004Fh
     430.  00:4000  (00:0020)           FUEGO_VELESCENA: equ 00000020h
     431.  00:4000  (00:0012)           TIPOJEFECABALLERO: equ 00000012h
     432.  00:4000  (00:0001)           JCABALLERO_COLOR: equ 00000001h
     433.  00:4000  (00:00C0)           JCABALLERO_SPRITE1A: equ 000000C0h
     434.  00:4000  (00:00C4)           JCABALLERO_SPRITE2A: equ 000000C4h
     435.  00:4000  (00:00C8)           JCABALLERO_SPRITE3A: equ 000000C8h
     436.  00:4000  (00:00CC)           JCABALLERO_SPRITE4A: equ 000000CCh
     437.  00:4000  (00:00D0)           JCABALLERO_SPRITE1B: equ 000000D0h
     438.  00:4000  (00:00D4)           JCABALLERO_SPRITE2B: equ 000000D4h
     439.  00:4000  (00:00D8)           JCABALLERO_SPRITE3B: equ 000000D8h
     440.  00:4000  (00:00DC)           JCABALLERO_SPRITE4B: equ 000000DCh
     441.  00:4000  (00:00E0)           JCABALLERO_SPRITE1C: equ 000000E0h
     442.  00:4000  (00:00E4)           JCABALLERO_SPRITE2C: equ 000000E4h
     443.  00:4000  (00:00E8)           JCABALLERO_SPRITE3C: equ 000000E8h
     444.  00:4000  (00:00EC)           JCABALLERO_SPRITE4C: equ 000000ECh
     445.  00:4000  (00:00F0)           JCABALLERO_SPRITE1D: equ 000000F0h
     446.  00:4000  (00:00F4)           JCABALLERO_SPRITE2D: equ 000000F4h
     447.  00:4000  (00:00F8)           JCABALLERO_SPRITE3D: equ 000000F8h
     448.  00:4000  (00:00FC)           JCABALLERO_SPRITE4D: equ 000000FCh
     449.  00:4000  (00:0030)           JCABALLERO_POSYINI: equ 00000030h
     450.  00:4000  (00:00C0)           JCABALLERO_POSXINI: equ 000000C0h
     451.  00:4000  (00:00B6)           JCABALLERO_PASOS: equ 000000B6h
     452.  00:4000  (00:0010)           JCABALLERO_VELESCENA: equ 00000010h
     453.  00:4000  (00:000D)           TIPOMAGIA: equ 0000000Dh
     454.  00:4000  (00:0001)           MAGIA_COLOR: equ 00000001h
     455.  00:4000  (00:0020)           MAGIA_SPRITE1A: equ 00000020h
     456.  00:4000  (00:0024)           MAGIA_SPRITE1B: equ 00000024h
     457.  00:4000  (00:0028)           MAGIA_SPRITE2A: equ 00000028h
     458.  00:4000  (00:002C)           MAGIA_SPRITE2B: equ 0000002Ch
     459.  00:4000  (00:0023)           MAGIA_PASOS: equ 00000023h
     460.  00:4000  (00:0040)           MAGIA_POSX: equ 00000040h
     461.  00:4000  (00:0037)           MAGIA_POSY: equ 00000037h
     462.  00:4000  (00:0005)           MAGIA_INCREMENTO: equ 00000005h
     463.  00:4000  (00:0010)           MAGIA_VELESCENA: equ 00000010h
     464.  00:4000  (00:0013)           TIPOJEFEBEHOLDER: equ 00000013h
     465.  00:4000  (00:0001)           JEFEBEHOLDER_COLOR: equ 00000001h
     466.  00:4000  (00:00E0)           JEFEBEHOLDER_SPRITE1A: equ 000000E0h
     467.  00:4000  (00:00E4)           JEFEBEHOLDER_SPRITE2A: equ 000000E4h
     468.  00:4000  (00:00E8)           JEFEBEHOLDER_SPRITE3A: equ 000000E8h
     469.  00:4000  (00:00EC)           JEFEBEHOLDER_SPRITE4A: equ 000000ECh
     470.  00:4000  (00:00F0)           JEFEBEHOLDER_SPRITE1B: equ 000000F0h
     471.  00:4000  (00:00F4)           JEFEBEHOLDER_SPRITE2B: equ 000000F4h
     472.  00:4000  (00:00F8)           JEFEBEHOLDER_SPRITE3B: equ 000000F8h
     473.  00:4000  (00:00FC)           JEFEBEHOLDER_SPRITE4B: equ 000000FCh
     474.  00:4000  (00:0037)           JEFEBEHOLDER_PASOS: equ 00000037h
     475.  00:4000  (00:0040)           JEFEBEHOLDER_POSX: equ 00000040h
     476.  00:4000  (00:0037)           JEFEBEHOLDER_POSY: equ 00000037h
     477.  00:4000  (00:0003)           JEFEBEHOLDER_INCREMENTO: equ 00000003h
     478.  00:4000  (00:0010)           JEFEBEHOLDER_VELESCENA: equ 00000010h
     479.  00:4000  (00:0016)           TIPODRACULA: equ 00000016h
     480.  00:4000  (00:0001)           DRACULA_COLOR: equ 00000001h
     481.  00:4000  (00:0064)           DRACULA_PASOS: equ 00000064h
     482.  00:4000  (00:0040)           DRACULA_Y: equ 00000040h
     483.  00:4000  (00:002F)           DRACULA_X1: equ 0000002Fh
     484.  00:4000  (00:005F)           DRACULA_X2: equ 0000005Fh
     485.  00:4000  (00:008F)           DRACULA_X3: equ 0000008Fh
     486.  00:4000  (00:00BF)           DRACULA_X4: equ 000000BFh
     487.  00:4000  (00:00F0)           DRACULA_SPRITE1A: equ 000000F0h
     488.  00:4000  (00:00F4)           DRACULA_SPRITE1B: equ 000000F4h
     489.  00:4000  (00:00F8)           DRACULA_SPRITE2A: equ 000000F8h
     490.  00:4000  (00:00FC)           DRACULA_SPRITE2B: equ 000000FCh
     491.  00:4000  (00:0010)           DRACULA_VELESCENA: equ 00000010h
     492.  00:4000  (00:0015)           TIPOMANOIZQUIERDA: equ 00000015h
     493.  00:4000  (00:0001)           MANOI_COLOR: equ 00000001h
     494.  00:4000  (00:00E0)           MANOI_SPRITE1A: equ 000000E0h
     495.  00:4000  (00:00E4)           MANOI_SPRITE1B: equ 000000E4h
     496.  00:4000  (00:0023)           MANOI_PASOS: equ 00000023h
     497.  00:4000  (00:0040)           MANOI_POSY: equ 00000040h
     498.  00:4000  (00:002F)           MANOI_POSX: equ 0000002Fh
     499.  00:4000  (00:0005)           MANOI_INCREMENTO: equ 00000005h
     500.  00:4000  (00:0010)           MANOI_VELESCENA: equ 00000010h
     501.  00:4000  (00:0014)           TIPOMANODERECHA: equ 00000014h
     502.  00:4000  (00:0001)           MANOD_COLOR: equ 00000001h
     503.  00:4000  (00:00E8)           MANOD_SPRITE1A: equ 000000E8h
     504.  00:4000  (00:00EC)           MANOD_SPRITE1B: equ 000000ECh
     505.  00:4000  (00:0023)           MANOD_PASOS: equ 00000023h
     506.  00:4000  (00:0040)           MANOD_POSY: equ 00000040h
     507.  00:4000  (00:002F)           MANOD_POSX: equ 0000002Fh
     508.  00:4000  (00:0005)           MANOD_INCREMENTO: equ 00000005h
     509.  00:4000  (00:0010)           MANOD_VELESCENA: equ 00000010h
     510.  00:4000  (00:0000)           ESTRUCTURA_PUNTOMIRA.posx: equ 00000000h
     511.  00:4000  (00:0001)           ESTRUCTURA_PUNTOMIRA.posy: equ 00000001h
     512.  00:4000  (00:0002)           ESTRUCTURA_PUNTOMIRA.escena: equ 00000002h
     513.  00:4000  (00:0003)           ESTRUCTURA_PUNTOMIRA.velocidad: equ 00000003h
     514.  00:4000  (00:0004)           ESTRUCTURA_PUNTOMIRA.cadencia: equ 00000004h
     515.  00:4000  (00:0005)           ESTRUCTURA_PUNTOMIRA.spritea: equ 00000005h
     516.  00:4000  (00:0006)           ESTRUCTURA_PUNTOMIRA.spriteb: equ 00000006h
     517.  00:4000  (00:0007)           ESTRUCTURA_PUNTOMIRA: equ 00000007h
     518.  00:4000  (00:0000)           ESTRUCTURA_ANTORCHA.activo: equ 00000000h
     519.  00:4000  (00:0001)           ESTRUCTURA_ANTORCHA.postilemem_antor1: equ 00000001h
     520.  00:4000  (00:0003)           ESTRUCTURA_ANTORCHA.pospantalla_antor1: equ 00000003h
     521.  00:4000  (00:0004)           ESTRUCTURA_ANTORCHA.pospantalla_antor2: equ 00000004h
     522.  00:4000  (00:0005)           ESTRUCTURA_ANTORCHA.escena: equ 00000005h
     523.  00:4000  (00:0006)           ESTRUCTURA_ANTORCHA.cont_sig_escena: equ 00000006h
     524.  00:4000  (00:0007)           ESTRUCTURA_ANTORCHA: equ 00000007h
     525.  00:4000  (00:0000)           ESTRUCTURA_ESQUELETO.activo: equ 00000000h
     526.  00:4000  (00:0001)           ESTRUCTURA_ESQUELETO.postilemem_antor1: equ 00000001h
     527.  00:4000  (00:0003)           ESTRUCTURA_ESQUELETO.pospantalla_esquel1: equ 00000003h
     528.  00:4000  (00:0004)           ESTRUCTURA_ESQUELETO.pospantalla_esquel2: equ 00000004h
     529.  00:4000  (00:0005)           ESTRUCTURA_ESQUELETO.escena: equ 00000005h
     530.  00:4000  (00:0006)           ESTRUCTURA_ESQUELETO.cont_sig_escena: equ 00000006h
     531.  00:4000  (00:0007)           ESTRUCTURA_ESQUELETO: equ 00000007h
     532.  00:4000  (00:0000)           ESTRUCTURA_AYUDA.activa: equ 00000000h
     533.  00:4000  (00:0001)           ESTRUCTURA_AYUDA.posx: equ 00000001h
     534.  00:4000  (00:0002)           ESTRUCTURA_AYUDA.posy: equ 00000002h
     535.  00:4000  (00:0003)           ESTRUCTURA_AYUDA.radiox: equ 00000003h
     536.  00:4000  (00:0004)           ESTRUCTURA_AYUDA.radioy: equ 00000004h
     537.  00:4000  (00:0005)           ESTRUCTURA_AYUDA.accion: equ 00000005h
     538.  00:4000  (00:0007)           ESTRUCTURA_AYUDA.tiles_ayudaon: equ 00000007h
     539.  00:4000  (00:0009)           ESTRUCTURA_AYUDA.tiles_ayudaoff: equ 00000009h
     540.  00:4000  (00:000B)           ESTRUCTURA_AYUDA.pos_en_tilemap: equ 0000000Bh
     541.  00:4000  (00:000D)           ESTRUCTURA_AYUDA.alto: equ 0000000Dh
     542.  00:4000  (00:000E)           ESTRUCTURA_AYUDA.ancho: equ 0000000Eh
     543.  00:4000  (00:000F)           ESTRUCTURA_AYUDA: equ 0000000Fh
     544.  00:4000  (00:0000)           ESTRUCTURA_PUERTA.activa: equ 00000000h
     545.  00:4000  (00:0001)           ESTRUCTURA_PUERTA.posx: equ 00000001h
     546.  00:4000  (00:0002)           ESTRUCTURA_PUERTA.posy: equ 00000002h
     547.  00:4000  (00:0003)           ESTRUCTURA_PUERTA.radiox: equ 00000003h
     548.  00:4000  (00:0004)           ESTRUCTURA_PUERTA.radioy: equ 00000004h
     549.  00:4000  (00:0005)           ESTRUCTURA_PUERTA.accion: equ 00000005h
     550.  00:4000  (00:0007)           ESTRUCTURA_PUERTA.tiles_puerta: equ 00000007h
     551.  00:4000  (00:0009)           ESTRUCTURA_PUERTA.pos_en_tilemap: equ 00000009h
     552.  00:4000  (00:000B)           ESTRUCTURA_PUERTA.alto: equ 0000000Bh
     553.  00:4000  (00:000C)           ESTRUCTURA_PUERTA.ancho: equ 0000000Ch
     554.  00:4000  (00:000D)           ESTRUCTURA_PUERTA: equ 0000000Dh
     555.  00:4000  (00:0000)           ESTRUCTURA_ENEMIGO.activo_tipo: equ 00000000h
     556.  00:4000  (00:0001)           ESTRUCTURA_ENEMIGO.escena: equ 00000001h
     557.  00:4000  (00:0002)           ESTRUCTURA_ENEMIGO.cont_sig_escena: equ 00000002h
     558.  00:4000  (00:0003)           ESTRUCTURA_ENEMIGO.energia: equ 00000003h
     559.  00:4000  (00:0004)           ESTRUCTURA_ENEMIGO.posx: equ 00000004h
     560.  00:4000  (00:0005)           ESTRUCTURA_ENEMIGO.posy: equ 00000005h
     561.  00:4000  (00:0006)           ESTRUCTURA_ENEMIGO.radiox: equ 00000006h
     562.  00:4000  (00:0007)           ESTRUCTURA_ENEMIGO.radioy: equ 00000007h
     563.  00:4000  (00:0008)           ESTRUCTURA_ENEMIGO.incx: equ 00000008h
     564.  00:4000  (00:0009)           ESTRUCTURA_ENEMIGO.inxy: equ 00000009h
     565.  00:4000  (00:000A)           ESTRUCTURA_ENEMIGO.direccionx: equ 0000000Ah
     566.  00:4000  (00:000B)           ESTRUCTURA_ENEMIGO.direcciony: equ 0000000Bh
     567.  00:4000  (00:000C)           ESTRUCTURA_ENEMIGO.pasos: equ 0000000Ch
     568.  00:4000  (00:000D)           ESTRUCTURA_ENEMIGO.pocavida: equ 0000000Dh
     569.  00:4000  (00:000E)           ESTRUCTURA_ENEMIGO.ptr_mover: equ 0000000Eh
     570.  00:4000  (00:0010)           ESTRUCTURA_ENEMIGO.sprite_a: equ 00000010h
     571.  00:4000  (00:0011)           ESTRUCTURA_ENEMIGO.sprite_b: equ 00000011h
     572.  00:4000  (00:0012)           ESTRUCTURA_ENEMIGO.sprite_c: equ 00000012h
     573.  00:4000  (00:0013)           ESTRUCTURA_ENEMIGO.sprite_d: equ 00000013h
     574.  00:4000  (00:0014)           ESTRUCTURA_ENEMIGO: equ 00000014h
     575.  00:4000  (00:C000)           prota: equ 0000C000h
     576.  00:4000  (00:C000)           prota_nivel: equ 0000C000h
     577.  00:4000  (00:C001)           prota_vidas: equ 0000C001h
     578.  00:4000  (00:C002)           prota_reliquias: equ 0000C002h
     579.  00:4000  (00:C003)           prota_pos_mapx: equ 0000C003h
     580.  00:4000  (00:C004)           prota_pos_mapy: equ 0000C004h
     581.  00:4000  (00:C005)           prota_energia: equ 0000C005h
     582.  00:4000  (00:C006)           prota_energia_bytebajo: equ 0000C006h
     583.  00:4000  (00:C007)           array_aux_vidas: equ 0000C007h
     584.  00:4000  (00:C00F)           array_aux_reliquias: equ 0000C00Fh
     585.  00:4000  (00:C017)           array_aux_energia: equ 0000C017h
     586.  00:4000  (00:C01E)           ultimo_pos_array_aux_energia: equ 0000C01Eh
     587.  00:4000  (00:C01F)           array_aux_mapa_limpiar: equ 0000C01Fh
     588.  00:4000  (00:C026)           elemento_pintar_mapa: equ 0000C026h
     589.  00:4000  (00:C027)           antorchas: equ 0000C027h
     590.  00:4000  (00:C02E)           array_antorcha: equ 0000C02Eh
     591.  00:4000  (00:C031)           esqueletos: equ 0000C031h
     592.  00:4000  (00:C038)           array_esqueleto: equ 0000C038h
     593.  00:4000  (00:C044)           lista_escenas_calavera: equ 0000C044h
     594.  00:4000  (00:C048)           var_aux_calavera: equ 0000C048h
     595.  00:4000  (00:C049)           heartbeat_cienpies: equ 0000C049h
     596.  00:4000  (00:C04A)           heartbeat_serpiente: equ 0000C04Ah
     597.  00:4000  (00:C04B)           heartbeat_arana: equ 0000C04Bh
     598.  00:4000  (00:C04C)           heartbeat_murcielago: equ 0000C04Ch
     599.  00:4000  (00:C04D)           heartbeat_lobo: equ 0000C04Dh
     600.  00:4000  (00:C04E)           heartbeat_esqueleto: equ 0000C04Eh
     601.  00:4000  (00:C04F)           heartbeat_zombi: equ 0000C04Fh
     602.  00:4000  (00:C050)           heartbeat_fantasma: equ 0000C050h
     603.  00:4000  (00:C051)           heartbeat_caballero: equ 0000C051h
     604.  00:4000  (00:C052)           heartbeat_fuego: equ 0000C052h
     605.  00:4000  (00:C053)           heartbeat_magia: equ 0000C053h
     606.  00:4000  (00:C054)           heartbeat_general: equ 0000C054h
     607.  00:4000  (00:C055)           enemigo1: equ 0000C055h
     608.  00:4000  (00:C069)           enemigo2: equ 0000C069h
     609.  00:4000  (00:C07D)           enemigo3: equ 0000C07Dh
     610.  00:4000  (00:C091)           enemigo4: equ 0000C091h
     611.  00:4000  (00:C0A5)           enemigo5: equ 0000C0A5h
     612.  00:4000  (00:C0B9)           enemigo6: equ 0000C0B9h
     613.  00:4000  (00:C0CD)           enemigo7: equ 0000C0CDh
     614.  00:4000  (00:C0E1)           array_sprites: equ 0000C0E1h
     615.  00:4000  (00:C0E1)           array_sprites_pm: equ 0000C0E1h
     616.  00:4000  (00:C0E9)           array_sprites_enem: equ 0000C0E9h
     617.  00:4000  (00:C161)           hay_ayudas_en_pantalla: equ 0000C161h
     618.  00:4000  (00:C162)           puntero_ayuda_actual: equ 0000C162h
     619.  00:4000  (00:C164)           lista_ayudas: equ 0000C164h
     620.  00:4000  (00:C164)           ayuda_oracion: equ 0000C164h
     621.  00:4000  (00:C173)           ayuda_cruz: equ 0000C173h
     622.  00:4000  (00:C182)           ayuda_aguabendita: equ 0000C182h
     623.  00:4000  (00:C191)           ayuda_armadura: equ 0000C191h
     624.  00:4000  (00:C1A0)           ayuda_planta: equ 0000C1A0h
     625.  00:4000  (00:C1AF)           ayuda_vidaextra: equ 0000C1AFh
     626.  00:4000  (00:C1BE)           ayuda_ballesta: equ 0000C1BEh
     627.  00:4000  (00:C1CD)           tiles_patrones: equ 0000C1CDh
     628.  00:4000  (00:C1CF)           tiles_colores: equ 0000C1CFh
     629.  00:4000  (00:C1D1)           tiles_mapa: equ 0000C1D1h
     630.  00:4000  (00:C1D3)           wordaux1: equ 0000C1D3h
     631.  00:4000  (00:C1D5)           wordaux2: equ 0000C1D5h
     632.  00:4000  (00:C1D7)           byteaux1: equ 0000C1D7h
     633.  00:4000  (00:C1D8)           byteaux2: equ 0000C1D8h
     634.  00:4000  (00:C1D9)           lista_puertas: equ 0000C1D9h
     635.  00:4000  (00:C1D9)           puerta_arriba: equ 0000C1D9h
     636.  00:4000  (00:C1E6)           puerta_derecha: equ 0000C1E6h
     637.  00:4000  (00:C1F3)           puerta_abajo: equ 0000C1F3h
     638.  00:4000  (00:C200)           puerta_izquierda: equ 0000C200h
     639.  00:4000  (00:C20D)           puerta_escalera: equ 0000C20Dh
     640.  00:4000  (00:C21A)           dano_actual: equ 0000C21Ah
     641.  00:4000  (00:C21B)           puntomira: equ 0000C21Bh
     642.  00:4000  (00:C222)           habitacion_actual: equ 0000C222h
     643.  00:4000  (00:C223)           habitacion_extras: equ 0000C223h
     644.  00:4000  (00:C224)           habitacion_actual_puntero: equ 0000C224h
     645.  00:4000  (00:C226)           habitacion_terminada: equ 0000C226h
     646.  00:4000  (00:C227)           puntero_extras_habitacion_actual: equ 0000C227h
     647.  00:4000  (00:C229)           puntero_habitacion_actual: equ 0000C229h
     648.  00:4000  (00:C22B)           habitaciones_juego: equ 0000C22Bh
     649.  00:4000  (00:C22B)           habitaciones_nivel0: equ 0000C22Bh
     650.  00:4000  (00:C29B)           habitaciones_nivel1: equ 0000C29Bh
     651.  00:4000  (00:C30B)           habitaciones_nivel2: equ 0000C30Bh
     652.  00:4000  (00:C37B)           habitaciones_nivel3: equ 0000C37Bh
     653.  00:4000  (00:C3EB)           habitaciones_nivel4: equ 0000C3EBh
     654.  00:4000  (00:C45B)           habitaciones_nivel5: equ 0000C45Bh
     655.  00:4000  (00:C4CB)           habitaciones_nivel6: equ 0000C4CBh
     656.  00:4000  (00:C53B)           tiempo: equ 0000C53Bh
     657.  00:4000  (00:C53B)           contador: equ 0000C53Bh
     658.  00:4000  (00:C53C)           segundos: equ 0000C53Ch
     659.  00:4000  (00:C53D)           minutos: equ 0000C53Dh
       4   00:4000                      	
       5   00:4000                      ;;=====================================================
       6   00:4000                      ;;DEFINICIÓN DE CONSTANTES
       7   00:4000                      ;;=====================================================	
       8   00:4000                      ;	include "constantesyvariables/constantes.asm"
       9   00:4000                      ;	include "constantesyvariables/constantesenemigos.asm"
      10   00:4000                      
      11   00:4000                      
      12   00:4000                      ;;=====================================================
      13   00:4000                      ;;DEFINICIÓN DE CABECERA DE ARCHIVO BIN
      14   00:4000                      ;;=====================================================		
      15   00:4000                      	include "cabecerarom.asm"
       1.  00:4000                      ;;=====================================================
       2.  00:4000                      ;; FICHERO cabecera.asm
       3.  00:4000                      ;;=====================================================
       4.  00:4000                      
       5.  00:4000                      	ORG #4000
       6.  00:4000                      	
       7.  00:4000                      ;;CABECERA FICHERO ROM
       8.  00:4000  41 42               	DB "AB" ;#41,#42 Identificador de rom
       9.  00:4002                      	DW START,0,0,0,0,0,0  ;Inicio codigo. Puede ser qualquier dirección
       9.  00:4002  10 40 00 00 00 00 00 00 00 00 00 00 00 00 
      10.  00:4010                      
      11.  00:4010                      	
      16   00:4010                      	
      17   00:4010                      	
      18   00:4010                      START:
      19   00:4010                      ;;
      20   00:4010                      ;;INTRODUCCIÓN DE CÓDIGO PARA PODER USAR 32K
      21   00:4010                      ;;
      22   00:4010  F3                  		DI	
      23   00:4011                      	
      24   00:4011  ED 56               		IM 		 	 1
      25   00:4013  31 80 F3            		LD			SP, #F380
      26   00:4016                      	
      27   00:4016                      ;preparando para 32K
      28   00:4016  CD 38 01            		CALL 		#0138 ;RSLREG
      29   00:4019  0F 0F               [2]		RRCA
      30   00:401B  E6 03               		AND 		#03
      31   00:401D                      
      32   00:401D                      ; Secondary Slot
      33   00:401D  4F                  		LD 			 C, A
      34   00:401E  21 C1 FC            		LD 			HL, #FCC1
      35   00:4021  85                  		ADD 		 A, L
      36   00:4022  6F                  		LD 			 L, A
      37   00:4023  7E                  		LD 			 A, [HL]
      38   00:4024  E6 80               		AND 		#80
      39   00:4026  B1                  		OR 			 C
      40   00:4027  4F                  		LD 			 C, A
      41   00:4028  2C 2C 2C 2C         [4]		INC 		 L
      42   00:402C  7E                  		LD 			 A, [HL]
      43   00:402D                      
      44   00:402D                      ; Define slot ID
      45   00:402D  E6 0C               		AND 		#0C
      46   00:402F  B1                  		OR 			 C
      47   00:4030  26 80               		LD 			 H, #80
      48   00:4032                      
      49   00:4032                      ; Enable
      50   00:4032  CD 24 00            		CALL 		#0024 ;ENASLT
      51   00:4035                      
      52   00:4035  FB                  		EI
      53   00:4036                      ;;
      54   00:4036                      ;;FIN INTRODUCCIÓN DE CÓDIGO PARA PODER USAR 32K
      55   00:4036                      ;;
      56   00:4036                      		
      57   00:4036                      		;incializacion de replayer con interrupciones
      58   00:4036                      		;CALL		inicializa_replayer_efectos_interrupciones
      59   00:4036                      		
      60   00:4036                      		;inicializa variables
      61   00:4036  CD 0C 43            		CALL		carga_valores_iniciales_variables
      62   00:4039                      
      63   00:4039                      		;inicializa pantalla y entonrno
      64   00:4039  CD 3D 43            		CALL		sub_preparapantalla			;screen 2,2 sin click al pulsar tecla y color 16,1,1
      65   00:403C                      		
      66   00:403C                      pantalla_inicial:
      67   00:403C  CD 1D 48            		CALL		muestra_pantalla_inicial
      68   00:403F                      
      69   00:403F                      		;inicializa variables para parametrizar funciones y que lo que se muestre sea variable (nº vidas, mapa, puertas, pantalla, etc...)
      70   00:403F  CD 7F 40            		CALL		inicializa_variables_prota
      71   00:4042                      	
      72   00:4042                      		;inicializa el punto de mira
      73   00:4042  CD 9A 48            		CALL		inicializa_punto_mira
      74   00:4045                      	
      75   00:4045                      		;inicializa los niveles por partida (habitaciones)
      76   00:4045  CD A3 40            		CALL		inicializa_niveles			;no es necesario parametrizarlo según el nivel del usuario ya que se cargan todos
      77   00:4048                      
      78   00:4048                      		;inicializa los valores de cada puerta excepto si están activas o no (eso ocurre cuando se matan todos los enemigos de la hab. y sólo a las puertas que se muestren)
      79   00:4048  CD 9F 49            		CALL		inicializa_puertas
      80   00:404B                      	
      81   00:404B                      		;inicializa las estructuras de forma particular según ayuda pero sin poner valores de posición
      82   00:404B  CD 9F 4E            		CALL		inicializa_ayudas
      83   00:404E                      	
      84   00:404E                      		;inicializa las estructuras de las antorchas y esqueletos
      85   00:404E  CD 3A 46            		CALL		inicializa_antorchas
      86   00:4051  CD 5C 46            		CALL		inicializa_esqueletos
      87   00:4054                      	
      88   00:4054                      		;pinta la pantalla (la primera o algunas especiales se pintan completamente)
      89   00:4054  CD 5E 43            		CALL		pinta_pantalla_completa
      90   00:4057                      	
      91   00:4057                      		;funciones que modificarian el marcador si se produce un evento cuando toque y cuando se pinta la pantalla ya se mira
      92   00:4057                      		;una variable para ver si el array hay que actualizarlo en pantalla o no
      93   00:4057  CD 79 44            		CALL		pinta_vidas
      94   00:405A  CD 88 44            		CALL 		pinta_reliquias
      95   00:405D                      		
      96   00:405D  CD C5 42            		CALL		cambio_nivel
      97   00:4060                      	
      98   00:4060  CD 08 45            		CALL		pinta_energia
      99   00:4063                      	
     100   00:4063  CD 5C 42            		CALL		entra_habitacion 		;CALL resetea enemigos + CALL inicializa_enemigos_fase + CALL	pinta_puertas + CALL pinta_ayudas_habitacion + CALL	pinta_extra_fondo 
     101   00:4066                      	
     102   00:4066                      		;esta función no va aquí sino en check colisiones pero se pone aquí para realizar pruebas
     103   00:4066                      ;		CALL		terminada_habitacion_recorrida ;para cuando se maten todos los enemigos de la habitación
     104   00:4066                      
     105   00:4066                      loop_principal:
     106   00:4066  76                  		HALT								;espera VBLANK y sincroniza
     107   00:4067                      
     108   00:4067  CD F4 46            		CALL		actualiza_elementos_fondo;como antorchas o esqueletos
     109   00:406A                      		
     110   00:406A  CD 26 6D            		CALL		check_enemigos			;examina los enemigos por pantalla y los pone en su sitio  **************************** MODIFICAR PARA VARIAS FASES
     111   00:406D                      
     112   00:406D  CD DB 4D            		CALL		check_player			;MIRA EL CONTROL Y APLICA LA LOGICA DE MOVIMIENTO DEL PROTAGONISTA
     113   00:4070                      	
     114   00:4070                      		;incrementa el hearbeat para el movimiento de los enemigos		
     115   00:4070  06 0C               					LD			 B, 12
     116   00:4072  21 49 C0            					LD			HL, heartbeat_cienpies
     117   00:4075  34                  .loop_heartbeat:	INC			(HL)
     118   00:4076  23                  					INC			HL
     119   00:4077  10 FC               .fin_loop_hearbeat:	DJNZ		.loop_heartbeat
     120   00:4079                      
     121   00:4079                      		;poner arriba
     122   00:4079  CD 84 4D            		CALL		render_sprites			;actualiza array de sprites y los pinta en pantalla
     123   00:407C                      	
     124   00:407C  C3 66 40            		JP			loop_principal
     125   00:407F                      fin_programa_principal:
     126   00:407F                      	;no necesita RET
     127   00:407F                      
     128   00:407F                      
     129   00:407F                      ;;=====================================================
     130   00:407F                      ;;INICIALIZA_VARIABLES_PROTA
     131   00:407F                      ;;=====================================================
     132   00:407F                      ; funcion: inicializa las variables que afectan al prota y dónde empieza la partida
     133   00:407F                      inicializa_variables_prota:
     134   00:407F  3E 03               	LD		 A, PROTAVIDAS
     135   00:4081  32 01 C0            	LD		(prota_vidas),A
     136   00:4084                      
     137   00:4084  3E 03               	LD		 A, PROTARELIQUIAS
     138   00:4086  32 02 C0            	LD		(prota_reliquias), A
     139   00:4089                      
     140   00:4089  3E C8               	LD		 A, PROTAENERGIA			
     141   00:408B  32 05 C0            	LD		(prota_energia), A
     142   00:408E                      	
     143   00:408E  3E 00               	LD		 A, PROTAENERGIABYTEBAJO			
     144   00:4090  32 06 C0            	LD		(prota_energia_bytebajo), A
     145   00:4093                      
     146   00:4093                      	;ubico al prota dentro del nivel para obtener luego las habitaciones y enemigos que aparecerán
     147   00:4093                      	;será igual la posición inicial en todos los niveles
     148   00:4093                      	
     149   00:4093  3E 00               	LD		 A, PROTANIVEL		
     150   00:4095  32 00 C0            	LD		(prota_nivel), A
     151   00:4098                      
     152   00:4098  3E 00               	LD		 A, PROTAPOSMAPY	
     153   00:409A  32 04 C0            	LD		(prota_pos_mapy), A	
     154   00:409D                      
     155   00:409D  3E 03               	LD		 A, PROTAPOSMAPX	
     156   00:409F  32 03 C0            	LD		(prota_pos_mapx), A	
     157   00:40A2                      fin_inicializa_variables_pruebas:
     158   00:40A2  C9                  		RET
     159   00:40A3                      ;;************************************************************************
     160   00:40A3                      
     161   00:40A3                      
     162   00:40A3                      ;;=====================================================
     163   00:40A3                      ;;DEFINICIÓN DE SUBRUTINAS
     164   00:40A3                      ;;=====================================================
     165   00:40A3                      	include "subrutinas.asm"
       1.  00:40A3                      ;;=====================================================
       2.  00:40A3                      ;;DEFINICIÓN DE SUBRUTINAS
       3.  00:40A3                      ;;=====================================================	
       4.  00:40A3                      
       5.  00:40A3                      
       6.  00:40A3                      ;;=====================================================
       7.  00:40A3                      ;;INICIALIZA_NIVELES
       8.  00:40A3                      ;;=====================================================	
       9.  00:40A3                      ; función: 	pone el bit 4 de todas las habitaciones (byte habitacion_actual 0,2,4....) a 0 porque hay enemigos
      10.  00:40A3                      ;			pone el bit 6 a 1 si hay ayudas y 0 si no hay ayudas
      11.  00:40A3                      ; entrada: 	habitaciones_plantilla
      12.  00:40A3                      ; salida: 	habitaciones_plantilla con los el bit 4 de los bites bytes impares a 0
      13.  00:40A3                      ; toca: 	habitaciones_plantilla, B
      14.  00:40A3                      
      15.  00:40A3                      
      16.  00:40A3                      ;ahora mismo se pondrá que se pueda navegar por cualquier habitación y sólo se controlarán las ayudas
      17.  00:40A3                      ;cuando ya haya enemigos se modificará para que el bit 4 a 0 todos los enemigos muerto y 1 hay enemigos vivos
      18.  00:40A3                      ;ayudas bit 6 1 hay ayudas y 0 no hay ayudas
      19.  00:40A3                      
      20.  00:40A3                      inicializa_niveles:
      21.  00:40A3  F5                  		PUSH		AF
      22.  00:40A4  C5                  		PUSH		BC
      23.  00:40A5  E5                  		PUSH		HL
      24.  00:40A6                      
      25.  00:40A6                      		;inicia habitación para decir si por esa habitación no se ha pasado
      26.  00:40A6                      		;el 4 bit a 0 indica que por esa habitacion no se ha pasado/no se han atado todos los enemigos
      27.  00:40A6                      		;el 6 bit a 1 indica que en esa habitación hay ayudas no utilizadas
      28.  00:40A6                      
      29.  00:40A6                      ;nivel 0 -----------------------------------------------------------------------
      30.  00:40A6  06 38               		LD			 B, 56	;la mitad de bytes del array de un nivel
      31.  00:40A8  21 2B C2            		LD 			HL, habitaciones_nivel0	;puntero al byte de la habitación
      32.  00:40AB  DD 21 2B C2         		LD			IX, habitaciones_nivel0
      33.  00:40AF  DD 23               		INC			IX						;el puntero IX apuntará siempre al byte de las ayudas
      34.  00:40B1                      .inicia_nivel_0:
      35.  00:40B1  4E                  		LD		 	 C, (HL)
      36.  00:40B2                      		;pongo habitación no terminada bit 4 habitación a 1
      37.  00:40B2  CB E1               		SET			 4, C	;***********************************************************************   ESTO HAY QUE PONERLO A 0 CUANDO HAYA ENEMIGOS
      38.  00:40B4                      
      39.  00:40B4                      		;examino si hay ayudas en siguiente byte
      40.  00:40B4  DD 7E 00            		LD			 A, (IX)
      41.  00:40B7  E6 FE               		AND			11111110b
      42.  00:40B9  28 05               		JR			 Z, .no_tiene_ayuda_nivel0
      43.  00:40BB                      .si_tiene_ayuda_nivel0:
      44.  00:40BB  CB F1               		SET			 6, C
      45.  00:40BD  C3 C2 40            		JP			.fin_tiene_ayuda_nivel0
      46.  00:40C0                      .no_tiene_ayuda_nivel0:
      47.  00:40C0  CB B1               		RES			 6, C
      48.  00:40C2                      .fin_tiene_ayuda_nivel0:
      49.  00:40C2                      		
      50.  00:40C2  71                  		LD			(HL), C
      51.  00:40C3  23 23               [2]		INC			HL		;pongo puntero en la siguiente habitación (2 saltos)
      52.  00:40C5  DD 23 DD 23         [2]		INC			IX		;pongo puntero en la siguiente habitación (2 saltos)
      53.  00:40C9  10 E6               		DJNZ		.inicia_nivel_0
      54.  00:40CB                      
      55.  00:40CB                      ;nivel 1 -----------------------------------------------------------------------
      56.  00:40CB  06 38               		LD			 B, 56	;la mitad de bytes del array de un nivel
      57.  00:40CD  21 9B C2            		LD 			HL, habitaciones_nivel1	;puntero al byte de la habitación
      58.  00:40D0  DD 21 9B C2         		LD			IX, habitaciones_nivel1
      59.  00:40D4  DD 23               		INC			IX						;el puntero IX apuntará siempre al byte de las ayudas
      60.  00:40D6                      .inicia_nivel_1:
      61.  00:40D6  4E                  		LD		 	 C, (HL)
      62.  00:40D7                      		;pongo habitación no terminada bit 4 habitación a 1
      63.  00:40D7  CB E1               		SET			 4, C	;***********************************************************************   ESTO HAY QUE PONERLO A 0 CUANDO HAYA ENEMIGOS
      64.  00:40D9                      		
      65.  00:40D9                      		;examino si hay ayudas en siguiente byte
      66.  00:40D9  DD 7E 00            		LD			 A, (IX)
      67.  00:40DC  E6 7E               		AND			1111110b
      68.  00:40DE  CA E6 40            		JP			 Z, .no_tiene_ayuda_nivel1
      69.  00:40E1                      .si_tiene_ayuda_nivel1:
      70.  00:40E1  CB F1               		SET			 6, C
      71.  00:40E3  C3 E8 40            		JP			.fin_tiene_ayuda_nivel1
      72.  00:40E6                      .no_tiene_ayuda_nivel1:
      73.  00:40E6  CB B1               		RES			 6, C
      74.  00:40E8                      .fin_tiene_ayuda_nivel1:
      75.  00:40E8                      		
      76.  00:40E8  71                  		LD			(HL), C
      77.  00:40E9  23 23               [2]		INC			HL		;pongo puntero en la siguiente habitación (2 saltos)
      78.  00:40EB  DD 23 DD 23         [2]		INC			IX		;pongo puntero en la siguiente habitación (2 saltos)
      79.  00:40EF  10 E5               		DJNZ		.inicia_nivel_1
      80.  00:40F1                      
      81.  00:40F1                      ;nivel 2 -----------------------------------------------------------------------
      82.  00:40F1  06 38               		LD			 B, 56	;la mitad de bytes del array de un nivel
      83.  00:40F3  21 0B C3            		LD 			HL, habitaciones_nivel2	;puntero al byte de la habitación
      84.  00:40F6  DD 21 0B C3         		LD			IX, habitaciones_nivel2
      85.  00:40FA  DD 23               		INC			IX						;el puntero IX apuntará siempre al byte de las ayudas
      86.  00:40FC                      .inicia_nivel_2:
      87.  00:40FC  4E                  		LD		 	 C, (HL)
      88.  00:40FD                      		;pongo habitación no terminada bit 4 habitación a 1
      89.  00:40FD  CB E1               		SET			 4, C	;***********************************************************************   ESTO HAY QUE PONERLO A 0 CUANDO HAYA ENEMIGOS
      90.  00:40FF                      		
      91.  00:40FF                      		;examino si hay ayudas en siguiente byte
      92.  00:40FF  DD 7E 00            		LD			 A, (IX)
      93.  00:4102  E6 7E               		AND			1111110b
      94.  00:4104  CA 0C 41            		JP			 Z, .no_tiene_ayuda_nivel2
      95.  00:4107                      .si_tiene_ayuda_nivel2:
      96.  00:4107  CB F1               		SET			 6, C
      97.  00:4109  C3 0E 41            		JP			.fin_tiene_ayuda_nivel2
      98.  00:410C                      .no_tiene_ayuda_nivel2:
      99.  00:410C  CB B1               		RES			 6, C
     100.  00:410E                      .fin_tiene_ayuda_nivel2:
     101.  00:410E                      		
     102.  00:410E  71                  		LD			(HL), C
     103.  00:410F  23 23               [2]		INC			HL		;pongo puntero en la siguiente habitación (2 saltos)
     104.  00:4111  DD 23 DD 23         [2]		INC			IX		;pongo puntero en la siguiente habitación (2 saltos)
     105.  00:4115  10 E5               		DJNZ		.inicia_nivel_2
     106.  00:4117                      
     107.  00:4117                      ;nivel 3 -----------------------------------------------------------------------
     108.  00:4117  06 38               		LD			 B, 56	;la mitad de bytes del array de un nivel
     109.  00:4119  21 7B C3            		LD 			HL, habitaciones_nivel3	;puntero al byte de la habitación
     110.  00:411C  DD 21 7B C3         		LD			IX, habitaciones_nivel3
     111.  00:4120  DD 23               		INC			IX						;el puntero IX apuntará siempre al byte de las ayudas
     112.  00:4122                      .inicia_nivel_3:
     113.  00:4122  4E                  		LD		 	 C, (HL)
     114.  00:4123                      		;pongo habitación no terminada bit 4 habitación a 1
     115.  00:4123  CB E1               		SET			 4, C	;***********************************************************************   ESTO HAY QUE PONERLO A 0 CUANDO HAYA ENEMIGOS
     116.  00:4125                      		
     117.  00:4125                      		;examino si hay ayudas en siguiente byte
     118.  00:4125  DD 7E 00            		LD			 A, (IX)
     119.  00:4128  E6 7E               		AND			1111110b
     120.  00:412A  CA 32 41            		JP			 Z, .no_tiene_ayuda_nivel3
     121.  00:412D                      .si_tiene_ayuda_nivel3:
     122.  00:412D  CB F1               		SET			 6, C
     123.  00:412F  C3 34 41            		JP			.fin_tiene_ayuda_nivel3
     124.  00:4132                      .no_tiene_ayuda_nivel3:
     125.  00:4132  CB B1               		RES			 6, C
     126.  00:4134                      .fin_tiene_ayuda_nivel3:
     127.  00:4134                      		
     128.  00:4134  71                  		LD			(HL), C
     129.  00:4135  23 23               [2]		INC			HL		;pongo puntero en la siguiente habitación (2 saltos)
     130.  00:4137  DD 23 DD 23         [2]		INC			IX		;pongo puntero en la siguiente habitación (2 saltos)
     131.  00:413B  10 E5               		DJNZ		.inicia_nivel_3
     132.  00:413D                      
     133.  00:413D                      ;nivel 4 -----------------------------------------------------------------------
     134.  00:413D  06 38               		LD			 B, 56	;la mitad de bytes del array de un nivel
     135.  00:413F  21 EB C3            		LD 			HL, habitaciones_nivel4	;puntero al byte de la habitación
     136.  00:4142  DD 21 EB C3         		LD			IX, habitaciones_nivel4
     137.  00:4146  DD 23               		INC			IX						;el puntero IX apuntará siempre al byte de las ayudas
     138.  00:4148                      .inicia_nivel_4:
     139.  00:4148  4E                  		LD		 	 C, (HL)
     140.  00:4149                      		;pongo habitación no terminada bit 4 habitación a 1
     141.  00:4149  CB E1               		SET			 4, C	;***********************************************************************   ESTO HAY QUE PONERLO A 0 CUANDO HAYA ENEMIGOS
     142.  00:414B                      		
     143.  00:414B                      		;examino si hay ayudas en siguiente byte
     144.  00:414B  DD 7E 00            		LD			 A, (IX)
     145.  00:414E  E6 7E               		AND			1111110b
     146.  00:4150  CA 58 41            		JP			 Z, .no_tiene_ayuda_nivel4
     147.  00:4153                      .si_tiene_ayuda_nivel4:
     148.  00:4153  CB F1               		SET			 6, C
     149.  00:4155  C3 5A 41            		JP			.fin_tiene_ayuda_nivel4
     150.  00:4158                      .no_tiene_ayuda_nivel4:
     151.  00:4158  CB B1               		RES			 6, C
     152.  00:415A                      .fin_tiene_ayuda_nivel4:
     153.  00:415A                      		
     154.  00:415A  71                  		LD			(HL), C
     155.  00:415B  23 23               [2]		INC			HL		;pongo puntero en la siguiente habitación (2 saltos)
     156.  00:415D  DD 23 DD 23         [2]		INC			IX		;pongo puntero en la siguiente habitación (2 saltos)
     157.  00:4161  10 E5               		DJNZ		.inicia_nivel_4
     158.  00:4163                      		
     159.  00:4163                      ;nivel 5 -----------------------------------------------------------------------
     160.  00:4163  06 38               		LD			 B, 56	;la mitad de bytes del array de un nivel
     161.  00:4165  21 5B C4            		LD 			HL, habitaciones_nivel5	;puntero al byte de la habitación
     162.  00:4168  DD 21 5B C4         		LD			IX, habitaciones_nivel5
     163.  00:416C  DD 23               		INC			IX						;el puntero IX apuntará siempre al byte de las ayudas
     164.  00:416E                      .inicia_nivel_5:
     165.  00:416E  4E                  		LD		 	 C, (HL)
     166.  00:416F                      		;pongo habitación no terminada bit 4 habitación a 1
     167.  00:416F  CB E1               		SET			 4, C	;***********************************************************************   ESTO HAY QUE PONERLO A 0 CUANDO HAYA ENEMIGOS
     168.  00:4171                      		
     169.  00:4171                      		;examino si hay ayudas en siguiente byte
     170.  00:4171  DD 7E 00            		LD			 A, (IX)
     171.  00:4174  E6 7E               		AND			1111110b
     172.  00:4176  CA 7E 41            		JP			 Z, .no_tiene_ayuda_nivel5
     173.  00:4179                      .si_tiene_ayuda_nivel5:
     174.  00:4179  CB F1               		SET			 6, C
     175.  00:417B  C3 80 41            		JP			.fin_tiene_ayuda_nivel5
     176.  00:417E                      .no_tiene_ayuda_nivel5:
     177.  00:417E  CB B1               		RES			 6, C
     178.  00:4180                      .fin_tiene_ayuda_nivel5:
     179.  00:4180                      		
     180.  00:4180  71                  		LD			(HL), C
     181.  00:4181  23 23               [2]		INC			HL		;pongo puntero en la siguiente habitación (2 saltos)
     182.  00:4183  DD 23 DD 23         [2]		INC			IX		;pongo puntero en la siguiente habitación (2 saltos)
     183.  00:4187  10 E5               		DJNZ		.inicia_nivel_5
     184.  00:4189                      		
     185.  00:4189                      ;nivel 6 -----------------------------------------------------------------------
     186.  00:4189  06 38               		LD			 B, 56	;la mitad de bytes del array de un nivel
     187.  00:418B  21 CB C4            		LD 			HL, habitaciones_nivel6	;puntero al byte de la habitación
     188.  00:418E  DD 21 CB C4         		LD			IX, habitaciones_nivel6
     189.  00:4192  DD 23               		INC			IX						;el puntero IX apuntará siempre al byte de las ayudas
     190.  00:4194                      .inicia_nivel_6:
     191.  00:4194  4E                  		LD		 	 C, (HL)
     192.  00:4195                      		;pongo habitación no terminada bit 4 habitación a 1
     193.  00:4195  CB E1               		SET			 4, C	;***********************************************************************   ESTO HAY QUE PONERLO A 0 CUANDO HAYA ENEMIGOS
     194.  00:4197                      
     195.  00:4197                      		;examino si hay ayudas en siguiente byte
     196.  00:4197  DD 7E 00            		LD			 A, (IX)
     197.  00:419A  E6 FE               		AND			11111110b
     198.  00:419C  28 05               		JR			 Z, .no_tiene_ayuda_nivel6
     199.  00:419E                      .si_tiene_ayuda_nivel6:
     200.  00:419E  CB F1               		SET			 6, C
     201.  00:41A0  C3 A5 41            		JP			.fin_tiene_ayuda_nivel6
     202.  00:41A3                      .no_tiene_ayuda_nivel6:
     203.  00:41A3  CB B1               		RES			 6, C
     204.  00:41A5                      .fin_tiene_ayuda_nivel6:
     205.  00:41A5                      		
     206.  00:41A5  71                  		LD			(HL), C
     207.  00:41A6  23 23               [2]		INC			HL		;pongo puntero en la siguiente habitación (2 saltos)
     208.  00:41A8  DD 23 DD 23         [2]		INC			IX		;pongo puntero en la siguiente habitación (2 saltos)
     209.  00:41AC  10 E6               		DJNZ		.inicia_nivel_6
     210.  00:41AE                      
     211.  00:41AE  E1                  		POP			HL
     212.  00:41AF  C1                  		POP			BC
     213.  00:41B0  F1                  		POP			AF
     214.  00:41B1                      fin_iniciliza_niveles:
     215.  00:41B1  C9                  		RET
     216.  00:41B2                      
     217.  00:41B2                      
     218.  00:41B2                      ;;=====================================================
     219.  00:41B2                      ;;ACTUALIZA_MARCADOR_VIDAS
     220.  00:41B2                      ;;=====================================================	
     221.  00:41B2                      ; función:  actualiza el buffer de vidas
     222.  00:41B2                      ; entrada: 	prota_vidas
     223.  00:41B2                      ; salida: 	array_aux_vidas
     224.  00:41B2                      ; toca:		A,B,HL
     225.  00:41B2                      actualiza_marcador_vidas:
     226.  00:41B2                      		;para no andar restando pongo todos los huecos a negro y luego en otro bucle las caras
     227.  00:41B2                      		;1-pinto todo en blanco
     228.  00:41B2  21 07 C0            		LD			HL,array_aux_vidas
     229.  00:41B5  06 08               		LD			 B,NMAXVIDREL
     230.  00:41B7                      loop_marcador_caras_negro:	;asignar espacios en negro
     231.  00:41B7  36 00               		LD			(HL),0			;0 posición mapa tiles para nada (es transparente pero el fondo es negro)
     232.  00:41B9  23                  		INC			HL
     233.  00:41BA  10 FB               		DJNZ		loop_marcador_caras_negro
     234.  00:41BC                      fin_loop_marcador_caras_negro:
     235.  00:41BC                      		;2-pinto las caras según el n de vidas
     236.  00:41BC  3A 01 C0            		LD			 A, (prota_vidas)
     237.  00:41BF  B7                  		OR			 A
     238.  00:41C0  C8                  		RET 		 Z
     239.  00:41C1  47                  		LD			 B, A
     240.  00:41C2  21 07 C0            		LD			HL, array_aux_vidas
     241.  00:41C5                      loop_marcador_caras: ;asignar caras
     242.  00:41C5  36 0D               		LD			(HL), POSCARAMAP	;13 posición mapa tiles para cara
     243.  00:41C7  23                  		INC			HL
     244.  00:41C8  10 FB               		DJNZ		loop_marcador_caras
     245.  00:41CA                      fin_loop_marcador_caras:
     246.  00:41CA                      fin_actualiza_marcador_vidas:
     247.  00:41CA  C9                  		RET
     248.  00:41CB                      
     249.  00:41CB                      
     250.  00:41CB                      ;;=====================================================
     251.  00:41CB                      ;;ACTUALIZA_BUFFER_RELIQUIAS
     252.  00:41CB                      ;;=====================================================	
     253.  00:41CB                      ; función: 	actualiza buffer de reliquias
     254.  00:41CB                      ; entrada: 	prota_reliquias
     255.  00:41CB                      ; salida: 	array_aux_reliquias
     256.  00:41CB                      ; toca:		A,B,HL
     257.  00:41CB                      actualiza_buffer_reliquias:	
     258.  00:41CB                      	;para no andar restando pongo todos los huecos a negro y luego en otro bucle las reliquias
     259.  00:41CB                      	;1-pinto todo en blanco
     260.  00:41CB  21 0F C0            	LD		HL, array_aux_reliquias
     261.  00:41CE  06 08               	LD		 B, NMAXVIDREL
     262.  00:41D0  AF                  	XOR		 A
     263.  00:41D1                      loop_buffer_reliquias_negro:	;asignar espacios en negro
     264.  00:41D1  77                  	LD		(HL), A			;0 posición mapa tiles para nada (es transparente pero el fondo es negro)
     265.  00:41D2  23                  	INC		HL
     266.  00:41D3  10 FC               	DJNZ	loop_buffer_reliquias_negro
     267.  00:41D5                      
     268.  00:41D5                      	;2-pinto las cruces según el n de reliquias
     269.  00:41D5  21 0F C0            	LD		HL, array_aux_reliquias
     270.  00:41D8  3A 02 C0            	LD		 A, (prota_reliquias)
     271.  00:41DB  B7                  	OR		 A
     272.  00:41DC  C8                  	RET		 Z
     273.  00:41DD  47                  	LD		 B, A
     274.  00:41DE                      loop_buffer_reliquias: ;asignar reliquias
     275.  00:41DE  36 11               	LD		(HL), POSRELIMAP	;17 posición mapa tiles para reliquia
     276.  00:41E0  23                  	INC		HL
     277.  00:41E1  10 FB               	DJNZ	loop_buffer_reliquias
     278.  00:41E3                      fin_actualiza_buffer_reliquias:
     279.  00:41E3  C9                  	RET
     280.  00:41E4                      
     281.  00:41E4                      
     282.  00:41E4                      ;;=====================================================
     283.  00:41E4                      ;;LOCALIZA_INFO_HABITACION
     284.  00:41E4                      ;;=====================================================	
     285.  00:41E4                      ; función: 	busca las puertas que hay que pintar egún la posición del usuario y las pone en habitacion_actual
     286.  00:41E4                      ; entrada: 	prota.pos_mapy, prota.pos_mapx, prota_nivel habitaciones_juego
     287.  00:41E4                      ; salida: 	habitacion_actual
     288.  00:41E4                      ; toca:		todo
     289.  00:41E4                      ;ejemplo: nivel 4, posy 5 y posx 3
     290.  00:41E4                      ;3 + 5 x 8 + 4 x 49
     291.  00:41E4                      localiza_info_habitacion:
     292.  00:41E4  E5                  	PUSH	HL
     293.  00:41E5                      
     294.  00:41E5                      ;primera posición: me coloco en la columna correcta
     295.  00:41E5  21 2B C2            	LD		HL, habitaciones_juego
     296.  00:41E8                      .situo_columna:	
     297.  00:41E8  3A 03 C0            	LD		 A, (prota_pos_mapx)
     298.  00:41EB  CB 27               	SLA		 A				;multiplico por dos ya que cada habitación va de dos en dos bytes
     299.  00:41ED  06 00               	LD		 B, 0
     300.  00:41EF  4F                  	LD		 C, A
     301.  00:41F0  09                  	ADD 	HL, BC			;sumo a la posición 0 la columnax2 en la que situarme
     302.  00:41F1                      	
     303.  00:41F1                      .situo_fila:
     304.  00:41F1  3A 04 C0            	LD		A, (prota_pos_mapy)
     305.  00:41F4  B7                  	OR	 	A
     306.  00:41F5  CA 02 42            	JP		Z, .situo_nivel	;si la fila es 0 no es necesario seguir operando en fila
     307.  00:41F8                      	
     308.  00:41F8  47                  	LD		B, A
     309.  00:41F9  AF                  	XOR		A
     310.  00:41FA                      .loop_suma_fila:
     311.  00:41FA  C6 10               	ADD		16				;cada fila tiene 16 bytes
     312.  00:41FC  10 FC               	DJNZ	.loop_suma_fila
     313.  00:41FE                      	
     314.  00:41FE  06 00               	LD		 B, 0
     315.  00:4200  4F                  	LD		 C, A
     316.  00:4201                      
     317.  00:4201  09                  	ADD 	HL, BC			;sumo a la columna 16 x filas para situarme en la fila correcta
     318.  00:4202                      
     319.  00:4202                      .situo_nivel:
     320.  00:4202  3A 00 C0            	LD		 A, (prota_nivel)
     321.  00:4205  B7                  	OR	 	 A
     322.  00:4206  CA 16 42            	JP		 Z, .actualiza_variable_habitacion	;si el nivel es 0 al pasar por las anterirores ya estoy situado actualizo la variable y termino
     323.  00:4209                      	
     324.  00:4209  E5                  	PUSH	HL				;guardo el resultado intermedio
     325.  00:420A                      	
     326.  00:420A  47                  	LD		 B, A			;preparo la varible del bucle
     327.  00:420B  11 70 00            	LD		DE, 112			;112 = 16x42 son los bytes de cada matriz-nivel
     328.  00:420E  21 00 00            	LD		HL, 0
     329.  00:4211                      .loop_suma_nivel:
     330.  00:4211  19                  	ADD		HL, DE
     331.  00:4212  10 FD               	DJNZ	.loop_suma_nivel
     332.  00:4214                      	
     333.  00:4214  D1                  	POP		DE				;devuelvo el resultado intermedio en DE que ya no lo necesito
     334.  00:4215                      	
     335.  00:4215  19                  	ADD		HL, DE			;sumo el resultado del nivel al resultado intermedio anterior
     336.  00:4216                      	
     337.  00:4216                      .actualiza_variable_habitacion
     338.  00:4216  7E                  	LD		 A, (HL)
     339.  00:4217  32 22 C2            	LD		(habitacion_actual), A
     340.  00:421A                      	
     341.  00:421A                      	;actualizo la variable habitacion_actual y su puntero para poder modificar por si se vuelve a pasar por ahí
     342.  00:421A  DD 21 29 C2         	LD		IX, puntero_habitacion_actual
     343.  00:421E  DD 74 00            	LD		(IX), H
     344.  00:4221  DD 75 01            	LD		(IX + 1), L
     345.  00:4224                      	
     346.  00:4224                      	;actualizo la variable habitacion_terminada
     347.  00:4224  3A 22 C2            	LD		  	 A, (habitacion_actual)
     348.  00:4227  CB 67               	BIT		  	 4, A					;está terminada la habitación
     349.  00:4229  C2 33 42            	JP			NZ, .si_terminada
     350.  00:422C                      .no_terminada:						;pongo un 0 en habitacion_terminada
     351.  00:422C  AF                  	XOR		 	 A
     352.  00:422D  32 26 C2            	LD			(habitacion_terminada), A
     353.  00:4230  C3 38 42            	JP			.fin_esta_terminada
     354.  00:4233                      .si_terminada:						;pongo un 1 en habitacion_terminada
     355.  00:4233  3E 01               	LD		 	 A, 1		
     356.  00:4235  32 26 C2            	LD			(habitacion_terminada), A
     357.  00:4238                      .fin_esta_terminada:
     358.  00:4238                      	
     359.  00:4238                      	;actualizo la variable hay_ayudas
     360.  00:4238  3A 22 C2            	LD		 A, (habitacion_actual)
     361.  00:423B  CB 77               	BIT		 6, A							;pintar ayuda
     362.  00:423D  CA 48 42            	JP		 Z, .no_mostrar_ayuda_activa	;0 no hay o ya se han cogido ayudas // 1 mostrar ayuda activa
     363.  00:4240                      .si_mostrar_ayuda_activa:							
     364.  00:4240  3E 01               	LD		 A, 1
     365.  00:4242  32 61 C1            	LD		(hay_ayudas_en_pantalla), A	
     366.  00:4245  C3 4C 42            	JP		.fin_mostrar_ayuda_activa
     367.  00:4248                      .no_mostrar_ayuda_activa:
     368.  00:4248  AF                  	XOR		 A
     369.  00:4249  32 61 C1            	LD		(hay_ayudas_en_pantalla), A
     370.  00:424C                      .fin_mostrar_ayuda_activa:					;no restauro B en A porque ya no lo necesito
     371.  00:424C                      	
     372.  00:424C                      	;actualizo la variable habitacion_extras
     373.  00:424C  23                  	INC		HL				;el byte de los extras está antes de donde se especifican las puertas
     374.  00:424D  22 27 C2            	LD		(puntero_extras_habitacion_actual), HL
     375.  00:4250  7E                  	LD		 A, (HL)
     376.  00:4251  32 23 C2            	LD		(habitacion_extras), A
     377.  00:4254                      
     378.  00:4254  E1                  	POP		HL	
     379.  00:4255                      fin_localiza_info_habitacion:
     380.  00:4255  C9                  	RET
     381.  00:4256                      	
     382.  00:4256                      
     383.  00:4256                      ;;=====================================================
     384.  00:4256                      ;;TERMINADA_HABIACION_RECORRIDA
     385.  00:4256                      ;;=====================================================	
     386.  00:4256                      ; función: 	usando la variable prota_pos_mapx pone un 1 a donde apunta habitacion_recorrida (el array... byte 14 de 
     387.  00:4256                      ;			habitaciones recorridas en esa fila) para ver si muestra enemigos o no y permita pasar por puertas
     388.  00:4256                      ; entrada: 	prota_pos_mapx, habitacion_recorrida
     389.  00:4256                      ; salida: 	habitacion_recorrida (byte 14 de la fila de habitaciones) actualizada con OR A (en A la habitacion)
     390.  00:4256                      ; toca:		IX, HL, AF
     391.  00:4256                      terminada_habitacion_recorrida:
     392.  00:4256                      		;~ LD			HL, puntero_habitacion_actual
     393.  00:4256                      		;~ LD			 A, (HL)
     394.  00:4256                      		;~ SET			 4, A					;¿?¿??¿?¿?¿?¿?¿?¿?¿¿?¿?
     395.  00:4256                      		;~ LD			(HL), A
     396.  00:4256                      		
     397.  00:4256  3E 01               		LD			 A, ISHABTERMIN	;da igual qué bit mientras sea distinto de 0 pero se pone 1
     398.  00:4258  32 26 C2            		LD			(habitacion_terminada), A
     399.  00:425B                      		
     400.  00:425B                      		;~ ;este trozo no sirve de nada pero ya me quedo más tranquilo si lo pongo, por ser exacto y completo
     401.  00:425B                      		;~ ;no sirve porque se cambiará de habitación y se perderá/actualizará el dato
     402.  00:425B                      		;~ LD			 A, (habitacion_actual)
     403.  00:425B                      		;~ SET			 4, A
     404.  00:425B                      		;~ LD			(habitacion_actual), A
     405.  00:425B                      fin_terminada_habitacion_recorrida:
     406.  00:425B  C9                  		RET
     407.  00:425C                      
     408.  00:425C                      
     409.  00:425C                      ;;=====================================================
     410.  00:425C                      ;;ENTRA_HABITACION
     411.  00:425C                      ;;=====================================================	
     412.  00:425C                      ; función: 	actualiza elementos en pantalla cuando hay cambios en habitación
     413.  00:425C                      ;			fondo
     414.  00:425C                      ;			puertas
     415.  00:425C                      ;			ayudas
     416.  00:425C                      ;			imagenes
     417.  00:425C                      ;			mapa inferior
     418.  00:425C                      ;			enemigos
     419.  00:425C                      ; entrada: 	prota_pos_mapy, prota_pos_mapy, prota_nivel
     420.  00:425C                      ; salida: 	
     421.  00:425C                      entra_habitacion:
     422.  00:425C  CD 73 65            		CALL		resetea_enemigos
     423.  00:425F                      
     424.  00:425F                      .mira_nivel0:
     425.  00:425F  3A 00 C0            		LD			 A, (prota_nivel)
     426.  00:4262  B7                  		OR			 A
     427.  00:4263  C2 6C 42            		JP			NZ, .mira_nivel1
     428.  00:4266  CD B2 65            		CALL		inicializa_enemigos_fase0
     429.  00:4269  C3 A6 42            		JP			.fin_mira_nivel
     430.  00:426C                      .mira_nivel1:
     431.  00:426C  FE 01               		CP			 1
     432.  00:426E  C2 77 42            		JP			NZ, .mira_nivel2
     433.  00:4271  CD E8 65            		CALL		inicializa_enemigos_fase1
     434.  00:4274  C3 A6 42            		JP			.fin_mira_nivel
     435.  00:4277                      .mira_nivel2:
     436.  00:4277  FE 02               		CP			 2
     437.  00:4279  C2 82 42            		JP			NZ, .mira_nivel3
     438.  00:427C  CD 1E 66            		CALL		inicializa_enemigos_fase2
     439.  00:427F  C3 A6 42            		JP			.fin_mira_nivel
     440.  00:4282                      .mira_nivel3:
     441.  00:4282  FE 03               		CP			 3
     442.  00:4284  C2 8D 42            		JP			NZ, .mira_nivel4
     443.  00:4287  CD 54 66            		CALL		inicializa_enemigos_fase3
     444.  00:428A  C3 A6 42            		JP			.fin_mira_nivel
     445.  00:428D                      .mira_nivel4:
     446.  00:428D  FE 04               		CP			 4
     447.  00:428F  C2 98 42            		JP			NZ, .mira_nivel5
     448.  00:4292  CD 8A 66            		CALL		inicializa_enemigos_fase4
     449.  00:4295  C3 A6 42            		JP			.fin_mira_nivel		
     450.  00:4298                      .mira_nivel5:
     451.  00:4298  FE 05               		CP			 5
     452.  00:429A  C2 A3 42            		JP			NZ, .mira_nivel6
     453.  00:429D  CD C0 66            		CALL		inicializa_enemigos_fase5
     454.  00:42A0  C3 A6 42            		JP			.fin_mira_nivel
     455.  00:42A3                      .mira_nivel6:
     456.  00:42A3  CD F6 66            		CALL		inicializa_enemigos_fase6
     457.  00:42A6                      .fin_mira_nivel:
     458.  00:42A6                      
     459.  00:42A6  CD 65 43            		CALL		pinta_parte_superior_pantalla
     460.  00:42A9  CD 38 4A            		CALL		pinta_puertas
     461.  00:42AC  CD 7E 46            		CALL		pinta_extra_fondo
     462.  00:42AF  CD 11 4F            		CALL		pinta_ayudas_habitacion
     463.  00:42B2  C3 B5 42            		JP			pinta_heroe_mapa
     464.  00:42B5                      fin_entra_habitacion:
     465.  00:42B5                      
     466.  00:42B5                      
     467.  00:42B5                      ;;=====================================================
     468.  00:42B5                      ;;PINTA_HEROE_MAPA
     469.  00:42B5                      ;;PINTA_BLANCO_MAPA
     470.  00:42B5                      ;;=====================================================	
     471.  00:42B5                      ; función: 	pinta el iconito del heroe en el mapa o un espacio en blanco
     472.  00:42B5                      ; entrada: 	
     473.  00:42B5                      ; salida: 	
     474.  00:42B5                      ; toca:		todo
     475.  00:42B5                      pinta_heroe_mapa:
     476.  00:42B5  3E 13               		LD			 A, TILEPROTAM
     477.  00:42B7  32 26 C0            		LD			(elemento_pintar_mapa), A
     478.  00:42BA  C3 6E 45            		JP			posiciona_en_mapa		;se le pasa elemento_pintar_mapa (tile del prota) está el prota y prota.posx y posy
     479.  00:42BD                      fin_pinta_heroe_mapa:
     480.  00:42BD                      pinta_blanco_mapa:
     481.  00:42BD  3E 09               		LD			 A, TILEGRISM
     482.  00:42BF  32 26 C0            		LD			(elemento_pintar_mapa), A
     483.  00:42C2  C3 6E 45            		JP			posiciona_en_mapa		;se le pasa elemento_pintar_mapa (tile del prota) está el prota y prota.posx y posy
     484.  00:42C5                      fin_pinta_blanco_mapa:
     485.  00:42C5                      	
     486.  00:42C5                      
     487.  00:42C5                      ;;=====================================================
     488.  00:42C5                      ;;CAMBIO_NIVEL
     489.  00:42C5                      ;;=====================================================	
     490.  00:42C5                      ; función: 	pinta el iconito del heroe en el mapa o un espacio en blanco
     491.  00:42C5                      ;			cambia el número de nivel
     492.  00:42C5                      ; entrada: 	
     493.  00:42C5                      ; salida: 	
     494.  00:42C5                      ; toca:		todo	
     495.  00:42C5                      cambio_nivel:
     496.  00:42C5                      		;MIRAR CUANDO EL NIVEL SEA -1 (SE SALE DEL CASTILLO Y PUEDE QUE SEA POR TERMINAR JUEGO O SALIR ANTES DE TIEMPO)
     497.  00:42C5                      ;		*****************************************************************************************************************************+
     498.  00:42C5                      
     499.  00:42C5  CD 97 44            		CALL		pinta_nivel
     500.  00:42C8                      		
     501.  00:42C8                      		;carga sprites en memoria
     502.  00:42C8  CD 7C 4C            		CALL 		carga_patrones_sprites_nivel
     503.  00:42CB                      	
     504.  00:42CB  C3 17 45            		JP			borra_mapa	
     505.  00:42CE                      fin_cambio_nivel:
     506.  00:42CE                      
     507.  00:42CE                      
     508.  00:42CE                      ;;=====================================================
     509.  00:42CE                      ;;CHECK_COLISIONES_OBJETOS
     510.  00:42CE                      ;;=====================================================	
     511.  00:42CE                      ; función: 	revisa (con enemigos+ayudas o puertas según si la habitación ha sido recorrida o no) las variables para ver si se disparó sobre ellas
     512.  00:42CE                      ; entrada: 	habitacion_terminada
     513.  00:42CE                      ; salida: 	-
     514.  00:42CE                      ; toca:		HL,BC, DE
     515.  00:42CE                      check_colisiones_objetos:
     516.  00:42CE                      		;pantalla limpia?
     517.  00:42CE  3A 26 C2            		LD			 A, (habitacion_terminada)
     518.  00:42D1  F6 00               		OR			 0
     519.  00:42D3  CA DA 42            		JP			 Z, .habitacion_no_terminada
     520.  00:42D6                      		;SI 
     521.  00:42D6                      			;recorre puertas y sale
     522.  00:42D6  CD E1 4A            			CALL		check_colisiones_puertas
     523.  00:42D9  C9                  			RET
     524.  00:42DA                      		;NO 
     525.  00:42DA                      .habitacion_no_terminada:
     526.  00:42DA                      		;recorre ayudas
     527.  00:42DA                      		;SI ;mira si hay colisiones con la ayuda que haya puntero_ayuda_actual
     528.  00:42DA  3A 61 C1            		LD			 A, (hay_ayudas_en_pantalla)
     529.  00:42DD  F6 00               		OR			 0
     530.  00:42DF  CA E5 42            		JP			 Z, .habitacion_sin_ayudas
     531.  00:42E2                      		;THEN
     532.  00:42E2  CD D1 4F            			CALL		check_colision_ayudas
     533.  00:42E5                      		;ENDIF
     534.  00:42E5                      .habitacion_sin_ayudas:
     535.  00:42E5                      	
     536.  00:42E5                      		;recorre enemigos ************************
     537.  00:42E5                      
     538.  00:42E5                      fin_check_colisiones_objetos:	
     539.  00:42E5  C9                  		RET
     540.  00:42E6                      
     166   00:42E6                      	
     167   00:42E6                      	include "subr_general.asm"
       1.  00:42E6                      ;;=====================================================
       2.  00:42E6                      ;;DEFINICIÓN DE SUBRUTINAS GENERALES USABLES PARA CUALQUIER PROYECTO
       3.  00:42E6                      ;;=====================================================	
       4.  00:42E6                      
       5.  00:42E6                      ;;=====================================================
       6.  00:42E6                      ;;SUMA_A_BC
       7.  00:42E6                      ;;=====================================================	
       8.  00:42E6                      ; función: 	suma A a BC por si da más de 255
       9.  00:42E6                      ; entrada: 	A, BC
      10.  00:42E6                      ; salida: 	A + BC
      11.  00:42E6                      ; toca:		A, BC
      12.  00:42E6                      suma_A_BC:
      13.  00:42E6  81                  		ADD		 	 C
      14.  00:42E7  4F                  		LD			 C, A
      15.  00:42E8  88                  		ADC			 B
      16.  00:42E9  91                  		SUB			 C
      17.  00:42EA  47                  		LD		 	 B, A
      18.  00:42EB                      fin_suma_A_BC:
      19.  00:42EB  C9                  		RET
      20.  00:42EC                      		
      21.  00:42EC                      		
      22.  00:42EC                      ;;=====================================================
      23.  00:42EC                      ;;SUMA_A_DE
      24.  00:42EC                      ;;=====================================================	
      25.  00:42EC                      ; función: 	suma A a DE por si da más de 255
      26.  00:42EC                      ; entrada: 	A, DE
      27.  00:42EC                      ; salida: 	A + DE
      28.  00:42EC                      ; toca:		A, DE
      29.  00:42EC                      suma_A_DE:
      30.  00:42EC  83                  		ADD		 	 E
      31.  00:42ED  5F                  		LD			 E, A
      32.  00:42EE  8A                  		ADC			 D
      33.  00:42EF  93                  		SUB			 E
      34.  00:42F0  57                  		LD		 	 D, A
      35.  00:42F1                      fin_suma_A_DE:
      36.  00:42F1  C9                  		RET
      37.  00:42F2                      	
      38.  00:42F2                      	
      39.  00:42F2                      ;;=====================================================
      40.  00:42F2                      ;;SUMA_A_HL
      41.  00:42F2                      ;;=====================================================	
      42.  00:42F2                      ; función: 	suma A a HL por si da más de 255
      43.  00:42F2                      ; entrada: 	A, HL
      44.  00:42F2                      ; salida: 	A + HL
      45.  00:42F2                      ; toca:		A, HL
      46.  00:42F2                      suma_A_HL:
      47.  00:42F2  85                  		ADD		 	 L
      48.  00:42F3  6F                  		LD		 	 L, A
      49.  00:42F4  8C                  		ADC		 	 H
      50.  00:42F5  95                  		SUB		 	 L
      51.  00:42F6  67                  		LD		 	 H, A
      52.  00:42F7                      fin_suma_A_HL:
      53.  00:42F7  C9                  		RET
      54.  00:42F8                      	
      55.  00:42F8                      	
      56.  00:42F8                      ;;=====================================================
      57.  00:42F8                      ;;TEST_OK
      58.  00:42F8                      ;;=====================================================	
      59.  00:42F8                      ; función: para pruebas.. cambia el color de fondo cuando se le llama
      60.  00:42F8                      test_OK:
      61.  00:42F8  F5                  	PUSH	AF
      62.  00:42F9                      	
      63.  00:42F9  3E 0F               	LD		 A, 15
      64.  00:42FB                      	
      65.  00:42FB  32 E9 F3            	LD 		(FORCLR), A
      66.  00:42FE  23                  	INC		HL
      67.  00:42FF                      	
      68.  00:42FF  32 EA F3            	LD 		(BAKCLR), A
      69.  00:4302  23                  	INC		HL
      70.  00:4303                      	
      71.  00:4303  7E                  	LD		 A, (HL)
      72.  00:4304  32 EB F3            	LD 		(BDRCLR), A
      73.  00:4307                      	
      74.  00:4307  CD 62 00            	CALL	CHGCLR 
      75.  00:430A                      	
      76.  00:430A  F1                  	POP		AF
      77.  00:430B                      fin_test_OK:
      78.  00:430B  C9                  	RET
      79.  00:430C                      
      80.  00:430C                      
      81.  00:430C                      ;;=====================================================
      82.  00:430C                      ;;CARGA_VALORES_INICIALES_VARIABLES
      83.  00:430C                      ;;=====================================================	
      84.  00:430C                      ; función: 	subrutina para poder usar la página 2 de memoria
      85.  00:430C                      ; entrada: 	
      86.  00:430C                      ; salida: 	
      87.  00:430C                      ; toca:		HL, A, C (y seguramente más)
      88.  00:430C                      carga_valores_iniciales_variables:
      89.  00:430C  21 5A B5            		LD			HL, inicializacion_variables
      90.  00:430F  11 00 C0            		LD			DE, #C000
      91.  00:4312  01 3E 05            		LD			BC, fin_inicializacion_variables - inicializacion_variables
      92.  00:4315  ED B0               		LDIR
      93.  00:4317                      fin_carga_valores_iniciales_variables:
      94.  00:4317  C9                  		RET
      95.  00:4318                      
      96.  00:4318                      
      97.  00:4318                      ;;=====================================================
      98.  00:4318                      ;;RETARDO16BITS
      99.  00:4318                      ;;=====================================================	
     100.  00:4318                      ; función: 	crea un retardo según lo que se le pase en BC
     101.  00:4318                      ; entrada: 	BC
     102.  00:4318                      ; salida: 	
     103.  00:4318                      ; toca:		BC
     104.  00:4318                      retardo16bits:		
     105.  00:4318                      .loop:
     106.  00:4318  0B                  		DEC			BC
     107.  00:4319  78                  		LD			 A, B
     108.  00:431A  B1                  		OR			 C
     109.  00:431B  C2 18 43            		JP			NZ, .loop
     110.  00:431E                      fin_retardo16bits:
     111.  00:431E  C9                  		RET
     112.  00:431F                      
     113.  00:431F                      
     114.  00:431F                      ;;=====================================================
     115.  00:431F                      ;;RETARDO8BITS
     116.  00:431F                      ;;=====================================================	
     117.  00:431F                      ; función: 	crea un retardo según lo que se le pase en B
     118.  00:431F                      ; entrada: 	B
     119.  00:431F                      ; salida: 	
     120.  00:431F                      ; toca:		B
     121.  00:431F                      retardo8bits:		
     122.  00:431F                      .loop:
     123.  00:431F  00                  		NOP
     124.  00:4320  10 FD               		DJNZ		.loop
     125.  00:4322                      fin_retardo8bits:
     126.  00:4322  C9                  		RET
     168   00:4323                      	
     169   00:4323                      	include "subr_pintapantalla.asm"
       1.  00:4323                      ;;=====================================================
       2.  00:4323                      ;;CONTANTES PANTALLAS
       3.  00:4323                      ;;=====================================================
       4.  00:4323                      ;colores base de la pantalla
       5.  00:4323  01 01 01            color_base:					DB		COLNEGRO,COLNEGRO,COLNEGRO
       6.  00:4326                      
       7.  00:4326                      ;colores de pantalla cuando se tira bomba
       8.  00:4326  08 08 08            color_bomba1:				DB		COLROJO,COLROJO,COLROJO
       9.  00:4329  06 06 06            color_bomba2:				DB		COLROJOOSC,COLROJOOSC,COLROJOOSC
      10.  00:432C                      
      11.  00:432C                      
      12.  00:432C                      ;;=====================================================
      13.  00:432C                      ;;DEFINICIÓN DE SUBRUTINAS
      14.  00:432C                      ;;=====================================================	
      15.  00:432C                      ;relacionadas con pintado en pantalla (y no sprites)
      16.  00:432C                      
      17.  00:432C                      
      18.  00:432C                      ;;=====================================================
      19.  00:432C                      ;;COLOR_PANTALLA
      20.  00:432C                      ;;=====================================================	
      21.  00:432C                      ; función: 	el equivalente en basic a color 15,1,1
      22.  00:432C                      ; entrada: 	HL	que apunta a un array de bytes con 3 bytes FORCLR, BAKCLR y BDRCLR
      23.  00:432C                      ; salida: 	-
      24.  00:432C                      ; toca: 	todo
      25.  00:432C                      color_pantalla:
      26.  00:432C  7E                  	LD		 A, (HL)			;FORCLR 
      27.  00:432D  32 E9 F3            	LD 		(FORCLR),A
      28.  00:4330  23                  	INC		HL
      29.  00:4331                      	
      30.  00:4331  7E                  	LD		 A, (HL)			;BAKCLR
      31.  00:4332  32 EA F3            	LD 		(BAKCLR),A
      32.  00:4335  23                  	INC		HL
      33.  00:4336                      	
      34.  00:4336  7E                  	LD		 A, (HL)
      35.  00:4337  32 EB F3            	LD 		(BDRCLR),A			;BDRCLR
      36.  00:433A  C3 62 00            	JP		CHGCLR 
      37.  00:433D                      fin_color_pantalla:
      38.  00:433D                      
      39.  00:433D                      
      40.  00:433D                      ;;=====================================================
      41.  00:433D                      ;;PREPARAPANTALLA
      42.  00:433D                      ;;=====================================================	
      43.  00:433D                      ; función: elimina clic cuando se pulsa tecla, cls, screen 2,2
      44.  00:433D                      ; entrada: -
      45.  00:433D                      ; salida: -
      46.  00:433D                      ; toca: si no son todos los regristros, casi todos
      47.  00:433D                      sub_preparapantalla:
      48.  00:433D                      	;toca A y Z
      49.  00:433D                      elimina_clic;
      50.  00:433D  AF                  	XOR		 A
      51.  00:433E  32 DB F3            	LD		(CLIKSW),A
      52.  00:4341                      fin_elimina_clic:
      53.  00:4341                      
      54.  00:4341                      	;toca A
      55.  00:4341                      limpia_pantalla:
      56.  00:4341  AF                  	XOR		 A
      57.  00:4342  CD C3 00            	CALL 	CLS
      58.  00:4345                      fin_limpia_pantalla:
      59.  00:4345                      
      60.  00:4345                      	;toca A y direcciones #F3E9/#F3EA/#F3EB, poner en HL array con 3 valores
      61.  00:4345  21 23 43            	LD		HL, color_base
      62.  00:4348  CD 2C 43            	CALL	color_pantalla
      63.  00:434B                      	
      64.  00:434B                      	;cambiamos a SCREEN 2,2 del BASIC
      65.  00:434B                      	;toca A
      66.  00:434B                      screen2:
      67.  00:434B  3E 02               	LD		 A, 2
      68.  00:434D  CD 5F 00            	CALL	CHGMOD			;selecciona screen 2
      69.  00:4350                      sprites_16_16:
      70.  00:4350  3A E0 F3            	LD		 A, (RG1SAV)
      71.  00:4353  F6 02               	OR		00000010b		;fuerza sprites de 16x16
      72.  00:4355  32 E0 F3            	LD		(RG1SAV), A		;no lo guardamos en la copia de variables del sistema
      73.  00:4358  47                  	LD		 B, A
      74.  00:4359  0E 01               	LD		 C, 1
      75.  00:435B  C3 47 00            	JP		WRTVDP			;opción alternativa de escribir las tres lineas siguientes
      76.  00:435E                      fin_sub_preparapantalla:
      77.  00:435E                      	
      78.  00:435E                      
      79.  00:435E                      ;;=====================================================
      80.  00:435E                      ;;PINTA_PANTALLA_COMPLETA
      81.  00:435E                      ;;=====================================================	
      82.  00:435E                      ; función: pinta el escenario, las 3 partes
      83.  00:435E                      ; entrada: -
      84.  00:435E                      ; salida: -
      85.  00:435E                      ; toca: si no son todos los regristros, casi todos
      86.  00:435E                      pinta_pantalla_completa:
      87.  00:435E  CD 65 43            	CALL 	pinta_parte_superior_pantalla
      88.  00:4361                      	
      89.  00:4361  CD 52 44            	CALL 	pinta_parte_inferior_pantalla	
      90.  00:4364                      fin_pinta_pantalla_completa:
      91.  00:4364  C9                  	RET
      92.  00:4365                      
      93.  00:4365                      
      94.  00:4365                      ;;=====================================================
      95.  00:4365                      ;;PINTA_PARTE_SUPERIOR_PANTALLA
      96.  00:4365                      ;;=====================================================	
      97.  00:4365                      ; función: pinta el escenario, los dos bancos superiores
      98.  00:4365                      ; entrada: -
      99.  00:4365                      ; salida: -
     100.  00:4365                      ; toca: si no son todos los regristros, casi todos
     101.  00:4365                      pinta_parte_superior_pantalla:
     102.  00:4365  3A 00 C0            	LD		 A, (prota_nivel)
     103.  00:4368  B7                  	OR		 A
     104.  00:4369  CA 95 43            	JP		 Z, .carga_nivel_0
     105.  00:436C  3D                  	DEC		 A
     106.  00:436D  3A 00 C0            	LD		 A, (prota_nivel)
     107.  00:4370  CA AA 43            	JP		 Z, .carga_nivel_1
     108.  00:4373  3D                  	DEC		 A
     109.  00:4374  3A 00 C0            	LD		 A, (prota_nivel)
     110.  00:4377  CA BF 43            	JP		 Z, .carga_nivel_2
     111.  00:437A  3D                  	DEC		 A
     112.  00:437B  3A 00 C0            	LD		 A, (prota_nivel)
     113.  00:437E  CA D4 43            	JP		 Z, .carga_nivel_3
     114.  00:4381  3D                  	DEC		 A
     115.  00:4382  3A 00 C0            	LD		 A, (prota_nivel)
     116.  00:4385  CA E9 43            	JP		 Z, .carga_nivel_4
     117.  00:4388  3D                  	DEC		 A
     118.  00:4389  3A 00 C0            	LD		 A, (prota_nivel)
     119.  00:438C  CA FE 43            	JP		 Z, .carga_nivel_5
     120.  00:438F                      	;esta opción es la de por defecto... si no cabe en ninguna anterior
     121.  00:438F  3A 00 C0            	LD		 A, (prota_nivel)
     122.  00:4392  C3 13 44            	JP		 .carga_nivel_6
     123.  00:4395                      	
     124.  00:4395                      .carga_nivel_0:
     125.  00:4395  21 96 85            	LD		HL, tiles_patrones_nivel0
     126.  00:4398  22 CD C1            	LD		(tiles_patrones), HL
     127.  00:439B  21 BE 88            	LD		HL, tiles_color_nivel0
     128.  00:439E  22 CF C1            	LD		(tiles_colores), HL
     129.  00:43A1  21 3F 89            	LD		HL, tiles_mapa_nivel0
     130.  00:43A4  22 D1 C1            	LD		(tiles_mapa), HL
     131.  00:43A7  C3 25 44            	JP		.fin_carga_niveles
     132.  00:43AA                      
     133.  00:43AA                      .carga_nivel_1:
     134.  00:43AA  21 74 89            	LD		HL, tiles_patrones_nivel1
     135.  00:43AD  22 CD C1            	LD		(tiles_patrones), HL
     136.  00:43B0  21 9C 8C            	LD		HL, tiles_color_nivel1
     137.  00:43B3  22 CF C1            	LD		(tiles_colores), HL
     138.  00:43B6  21 1D 8D            	LD		HL, tiles_mapa_nivel1
     139.  00:43B9  22 D1 C1            	LD		(tiles_mapa), HL
     140.  00:43BC  C3 25 44            	JP		.fin_carga_niveles
     141.  00:43BF                      	
     142.  00:43BF                      .carga_nivel_2:
     143.  00:43BF  21 52 8D            	LD		HL, tiles_patrones_nivel2
     144.  00:43C2  22 CD C1            	LD		(tiles_patrones), HL
     145.  00:43C5  21 7A 90            	LD		HL, tiles_color_nivel2
     146.  00:43C8  22 CF C1            	LD		(tiles_colores), HL
     147.  00:43CB  21 FB 90            	LD		HL, tiles_mapa_nivel2
     148.  00:43CE  22 D1 C1            	LD		(tiles_mapa), HL
     149.  00:43D1  C3 25 44            	JP		.fin_carga_niveles
     150.  00:43D4                      	
     151.  00:43D4                      .carga_nivel_3:
     152.  00:43D4  21 30 91            	LD		HL, tiles_patrones_nivel3
     153.  00:43D7  22 CD C1            	LD		(tiles_patrones), HL
     154.  00:43DA  21 58 94            	LD		HL, tiles_color_nivel3
     155.  00:43DD  22 CF C1            	LD		(tiles_colores), HL
     156.  00:43E0  21 D9 94            	LD		HL, tiles_mapa_nivel3
     157.  00:43E3  22 D1 C1            	LD		(tiles_mapa), HL
     158.  00:43E6  C3 25 44            	JP		.fin_carga_niveles
     159.  00:43E9                      	
     160.  00:43E9                      .carga_nivel_4:
     161.  00:43E9  21 0E 95            	LD		HL, tiles_patrones_nivel4
     162.  00:43EC  22 CD C1            	LD		(tiles_patrones), HL
     163.  00:43EF  21 36 98            	LD		HL, tiles_color_nivel4
     164.  00:43F2  22 CF C1            	LD		(tiles_colores), HL
     165.  00:43F5  21 B7 98            	LD		HL, tiles_mapa_nivel4
     166.  00:43F8  22 D1 C1            	LD		(tiles_mapa), HL
     167.  00:43FB  C3 25 44            	JP		.fin_carga_niveles
     168.  00:43FE                      	
     169.  00:43FE                      .carga_nivel_5:
     170.  00:43FE  21 EC 98            	LD		HL, tiles_patrones_nivel5
     171.  00:4401  22 CD C1            	LD		(tiles_patrones), HL
     172.  00:4404  21 14 9C            	LD		HL, tiles_color_nivel5
     173.  00:4407  22 CF C1            	LD		(tiles_colores), HL
     174.  00:440A  21 95 9C            	LD		HL, tiles_mapa_nivel5
     175.  00:440D  22 D1 C1            	LD		(tiles_mapa), HL
     176.  00:4410  C3 25 44            	JP		.fin_carga_niveles
     177.  00:4413                      	
     178.  00:4413                      .carga_nivel_6:
     179.  00:4413  21 CA 9C            	LD		HL, tiles_patrones_nivel6
     180.  00:4416  22 CD C1            	LD		(tiles_patrones), HL
     181.  00:4419  21 F2 9F            	LD		HL, tiles_color_nivel6
     182.  00:441C  22 CF C1            	LD		(tiles_colores), HL
     183.  00:441F  21 73 A0            	LD		HL, tiles_mapa_nivel6
     184.  00:4422  22 D1 C1            	LD		(tiles_mapa), HL
     185.  00:4425                      ;	JP		.fin_carga niveles			;no necesario
     186.  00:4425                      .fin_carga_niveles:
     187.  00:4425                      
     188.  00:4425                      	;cargando banco 1
     189.  00:4425                      	;cargamos los patrones
     190.  00:4425  2A CD C1            	LD		HL, (tiles_patrones)
     191.  00:4428  11 00 00            	LD		DE, CHRTBL
     192.  00:442B  CD 34 81            	CALL	depack_VRAM
     193.  00:442E                      	;cargamos los colores de los patrones
     194.  00:442E  2A CF C1            	LD		HL, (tiles_colores)
     195.  00:4431  11 00 20            	LD		DE, CLRTBL
     196.  00:4434  CD 34 81            	CALL	depack_VRAM
     197.  00:4437                      	
     198.  00:4437                      	;cargando banco 2
     199.  00:4437                      	;cargamos los patrones
     200.  00:4437  2A CD C1            	LD		HL, (tiles_patrones)
     201.  00:443A  11 00 08            	LD		DE, CHRTBL + #0800
     202.  00:443D  CD 34 81            	CALL	depack_VRAM	
     203.  00:4440                      	;cargamos los colores de los patrones
     204.  00:4440  2A CF C1            	LD		HL, (tiles_colores)
     205.  00:4443  11 00 28            	LD		DE, CLRTBL + #0800
     206.  00:4446  CD 34 81            	CALL	depack_VRAM
     207.  00:4449                      	
     208.  00:4449                      	;cargamos mapa de pantalla banco 1 y 2
     209.  00:4449  2A D1 C1            	LD		HL, (tiles_mapa)
     210.  00:444C  11 00 18            	LD		DE, TILMAP
     211.  00:444F  C3 34 81            	JP		depack_VRAM
     212.  00:4452                      fin_pinta_parte_superior_pantalla:
     213.  00:4452                      ;variables que usa
     214.  00:4452                      ;tiles_patrones:		DW	0
     215.  00:4452                      ;tiles_colores:			DW	0
     216.  00:4452                      ;tiles_mapa:			DW	0
     217.  00:4452                      
     218.  00:4452                      
     219.  00:4452                      ;;=====================================================
     220.  00:4452                      ;;PINTA_PARTE_INFERIOR_PANTALLA
     221.  00:4452                      ;;=====================================================	
     222.  00:4452                      ; función: pinta la parte inferior del escenario que es común
     223.  00:4452                      ; entrada: -
     224.  00:4452                      ; salida: -
     225.  00:4452                      ; toca: si no son todos los regristros, casi todos
     226.  00:4452                      pinta_parte_inferior_pantalla:
     227.  00:4452                      		;cangando banco 3
     228.  00:4452                      		;cargamos los patrones
     229.  00:4452  21 A8 A0            		LD			HL,tiles_patrones_marcador
     230.  00:4455  11 00 10            		LD			DE,CHRTBL + #1000
     231.  00:4458  CD 34 81            		CALL		depack_VRAM	
     232.  00:445B                      		;cargamos mapa de pantalla
     233.  00:445B  21 3C A2            		LD			HL,tiles_mapa_marcador
     234.  00:445E  11 00 1A            		LD			DE,TILMAP + #0200
     235.  00:4461  CD 34 81            		CALL		depack_VRAM
     236.  00:4464                      		;cargamos los colores de los patrones
     237.  00:4464  21 FB A1            		LD			HL,tiles_color_marcador
     238.  00:4467  11 00 30            		LD			DE,CLRTBL + #1000
     239.  00:446A  CD 34 81            		CALL		depack_VRAM
     240.  00:446D                      		;cargamos los textos de la parte inferior en el icioma que correspondan
     241.  00:446D  CD D6 B4            		CALL 		pinta_texto_vida
     242.  00:4470  CD E2 B4            		CALL 		pinta_texto_energia
     243.  00:4473  CD EE B4            		CALL		pinta_texto_reliquias
     244.  00:4476  C3 FA B4            		JP 			pinta_texto_nivel
     245.  00:4479                      fin_pinta_parte_inferior_pantalla:
     246.  00:4479                      
     247.  00:4479                      
     248.  00:4479                      ;;=====================================================
     249.  00:4479                      ;;PINTA_VIDAS
     250.  00:4479                      ;;=====================================================	
     251.  00:4479                      ; función: 	actualiza el mapa de tiles para que en el próximo refresco se pinten y actualiza_vidas
     252.  00:4479                      ; entrada: 	array_aux_vidas
     253.  00:4479                      ; salida: 	actualiza_vidas_sn
     254.  00:4479                      ; toca:		todo
     255.  00:4479                      pinta_vidas:
     256.  00:4479  CD B2 41            	CALL	actualiza_marcador_vidas
     257.  00:447C                      	
     258.  00:447C  21 07 C0            	LD		HL, array_aux_vidas
     259.  00:447F  11 48 1A            	LD		DE, TILMAP + POSVIDAS 	;inicio posición en el mapa de tiles de las vidas
     260.  00:4482  01 08 00            	LD		BC, NMAXVIDREL			;hay 8 posiciones para vidas/reliquias o espacios en negro si no tiene 8 vidas/reliquias
     261.  00:4485  C3 5C 00            	JP		LDIRVM
     262.  00:4488                      fin_pinta_vidas:
     263.  00:4488                      	
     264.  00:4488                      	
     265.  00:4488                      ;;=====================================================
     266.  00:4488                      ;;PINTA_RELIQUIAS
     267.  00:4488                      ;;=====================================================	
     268.  00:4488                      ; función: 	actualiza el mapa de tiles para que en el próximo refresco se pinten y actualiza_reliquias
     269.  00:4488                      ; entrada: 	array_aux_reliquias
     270.  00:4488                      ; salida: 	-
     271.  00:4488                      ; toca:		todo
     272.  00:4488                      pinta_reliquias:
     273.  00:4488  CD CB 41            	CALL	actualiza_buffer_reliquias
     274.  00:448B                      	
     275.  00:448B  21 0F C0            	LD		HL, array_aux_reliquias
     276.  00:448E  11 C8 1A            	LD		DE, TILMAP + POSRELIQ 	;inicio posición en el mapa de tiles de las vidas
     277.  00:4491  01 08 00            	LD		BC, NMAXVIDREL			;hay 8 posiciones para vidas/reliquias o espacios en negro si no tiene 8 vidas/reliquias
     278.  00:4494  C3 5C 00            	JP		LDIRVM
     279.  00:4497                      fin_pinta_reliquias:
     280.  00:4497                      	
     281.  00:4497                      
     282.  00:4497                      ;;=====================================================
     283.  00:4497                      ;;PINTA_NIVEL
     284.  00:4497                      ;;=====================================================	
     285.  00:4497                      ; función: 	actualiza el nivel en la parte de puntuación
     286.  00:4497                      ; entrada: 	prota_nivel
     287.  00:4497                      ; salida: 	-
     288.  00:4497                      ; toca:		HL,DE,BC
     289.  00:4497                      pinta_nivel:
     290.  00:4497                      	;forma más avanzada sin llamada a la bios
     291.  00:4497  01 B4 1A            	LD		BC,TILMAP + POSNIVEL ;posición en el mapa de tiles del tile de nivel
     292.  00:449A  3A 00 C0            	LD		 A, (prota_nivel)	 ;seleccionando la pos del banco de tiles a poner en el mapa
     293.  00:449D  C6 30               	ADD		'0'	
     294.  00:449F  57                  	LD		 D, A
     295.  00:44A0                      	
     296.  00:44A0  C3 A3 44            	JP		pinta_tile_suelto
     297.  00:44A3                      fin_pinta_nivel:
     298.  00:44A3                      
     299.  00:44A3                      
     300.  00:44A3                      ;;=====================================================
     301.  00:44A3                      ;;PINTA_TILE_SUELTO
     302.  00:44A3                      ;;=====================================================	
     303.  00:44A3                      ; función: 	escribe un valor en VRAM y también se usa
     304.  00:44A3                      ;			pinta al tile que digamos en D, en la posición BC
     305.  00:44A3                      ; entrada: 	BC (posición a pintar en el mapa),D (qué se va a pintar el esa posición)
     306.  00:44A3                      ; salida: 	-
     307.  00:44A3                      ; toca:		A
     308.  00:44A3                      pinta_tile_suelto:
     309.  00:44A3  DB 99               	IN		 	 A, (REGEST)	;leer registro de estado (recomendado)
     310.  00:44A5  79                  	LD		 	 A, C			;primero byte bajo	
     311.  00:44A6  D3 99               	OUT			(REGEST),A
     312.  00:44A8  78                  	LD		 	 A, B			;después byte alto  ********************** preguntar a Fernando cómo que byte bajo es B
     313.  00:44A9  F6 40               	OR			1000000b		;+64
     314.  00:44AB  D3 99               	OUT			(REGEST),A
     315.  00:44AD                      	
     316.  00:44AD  7A                  	LD			 A, D			;nº de patrón de tile a pintar
     317.  00:44AE  D3 98               	OUT			(REGESCVDP),A	;escribe A en VRAM en la posición indicada por los dos OUT anteriores
     318.  00:44B0                      fin_pinta_tile_suelto:
     319.  00:44B0  C9                  	RET
     320.  00:44B1                      
     321.  00:44B1                      
     322.  00:44B1                      ;;=====================================================
     323.  00:44B1                      ;;MIRA_PINTA ENERGIA
     324.  00:44B1                      ;;=====================================================	
     325.  00:44B1                      ; función: 	actualiza el nivel de energia en la parte de puntuación
     326.  00:44B1                      ; nota:		el cuadrado más bajo de ejergía siempre estará pintado... se obviará
     327.  00:44B1                      ; entrada: 	prota.energia, array_aux_energia
     328.  00:44B1                      ; salida: 	-
     329.  00:44B1                      ; toca:		ninguno porque usa EXX
     330.  00:44B1                      
     331.  00:44B1                      ; nota importante... lo mismo interesa hacer esto con un array para comparar y un bucle
     332.  00:44B1                      mira_pinta_energia:
     333.  00:44B1  D9                  	EXX							;por si acaso guardo el contenido de HL (si veo que no es necesario guardarlo lo quito) uso esto en vez de push por el nº ciclos
     334.  00:44B2                      	
     335.  00:44B2  3A 05 C0            	LD		 A,(prota_energia) 	;para las comparaciones A variable (actual) y B fijo (limites)
     336.  00:44B5                      
     337.  00:44B5  0E 00               	LD		 C,TILENEGRO		;para agilizar asignaciones en vez de un valor cte uso otro registro
     338.  00:44B7                      pinta_ener:
     339.  00:44B7                      pinta_ener_tile_8:
     340.  00:44B7  21 1E C0            	LD		HL,ultimo_pos_array_aux_energia	;coloco puntero en array e iré decrementando
     341.  00:44BA  06 D9               	LD		 B,TILEENERG8
     342.  00:44BC  B8                  	CP		 B
     343.  00:44BD  38 04               	JR		C,pinta_ener_tile_8_negro
     344.  00:44BF  36 0E               	LD		(HL),TILEMAPVERD
     345.  00:44C1  18 01               	JR		pinta_ener_tile_7
     346.  00:44C3                      pinta_ener_tile_8_negro:
     347.  00:44C3  71                  	LD		(HL),C
     348.  00:44C4                      
     349.  00:44C4                      pinta_ener_tile_7:
     350.  00:44C4  2B                  	DEC		HL
     351.  00:44C5  06 BA               	LD		 B,TILEENERG7
     352.  00:44C7  B8                  	CP		 B
     353.  00:44C8  38 04               	JR		C,pinta_ener_tile_7_negro
     354.  00:44CA  36 0E               	LD		(HL),TILEMAPVERD
     355.  00:44CC  18 01               	JR		pinta_ener_tile_6
     356.  00:44CE                      pinta_ener_tile_7_negro:
     357.  00:44CE  71                  	LD		(HL),C
     358.  00:44CF                      
     359.  00:44CF                      pinta_ener_tile_6:
     360.  00:44CF  2B                  	DEC		HL
     361.  00:44D0  06 9B               	LD		 B,TILEENERG6
     362.  00:44D2  B8                  	CP		 B
     363.  00:44D3  38 04               	JR		C,pinta_ener_tile_6_negro
     364.  00:44D5  36 0E               	LD		(HL),14
     365.  00:44D7  18 01               	JR		pinta_ener_tile_5
     366.  00:44D9                      pinta_ener_tile_6_negro:
     367.  00:44D9  71                  	LD		(HL),C
     368.  00:44DA                      
     369.  00:44DA                      pinta_ener_tile_5:
     370.  00:44DA  2B                  	DEC		HL
     371.  00:44DB  06 7C               	LD		 B,TILEENERG5
     372.  00:44DD  B8                  	CP		 B
     373.  00:44DE  38 04               	JR		C,pinta_ener_tile_5_negro
     374.  00:44E0  36 0E               	LD		(HL),TILEMAPVERD
     375.  00:44E2  18 01               	JR		pinta_ener_tile_4
     376.  00:44E4                      pinta_ener_tile_5_negro:
     377.  00:44E4  71                  	LD		(HL),C
     378.  00:44E5                      
     379.  00:44E5                      pinta_ener_tile_4:
     380.  00:44E5  2B                  	DEC		HL
     381.  00:44E6  06 5D               	LD		 B,TILEENERG4
     382.  00:44E8  B8                  	CP		 B
     383.  00:44E9  38 04               	JR		C,pinta_ener_tile_4_negro
     384.  00:44EB  36 0F               	LD		(HL),TILEMAPAMAR
     385.  00:44ED  18 01               	JR		pinta_ener_tile_3
     386.  00:44EF                      pinta_ener_tile_4_negro:
     387.  00:44EF  71                  	LD		(HL),C
     388.  00:44F0                      	
     389.  00:44F0                      pinta_ener_tile_3:
     390.  00:44F0  2B                  	DEC		HL
     391.  00:44F1  06 3E               	LD		 B,TILEENERG3
     392.  00:44F3  B8                  	CP		 B
     393.  00:44F4  38 04               	JR		C,pinta_ener_tile_3_negro
     394.  00:44F6  36 0F               	LD		(HL),TILEMAPAMAR
     395.  00:44F8  18 01               	JR		pinta_ener_tile_2
     396.  00:44FA                      pinta_ener_tile_3_negro:
     397.  00:44FA  71                  	LD		(HL),C
     398.  00:44FB                      
     399.  00:44FB                      pinta_ener_tile_2:
     400.  00:44FB  2B                  	DEC		HL
     401.  00:44FC  06 1F               	LD		 B,TILEENERG2
     402.  00:44FE  B8                  	CP		 B
     403.  00:44FF  38 04               	JR		C,pinta_ener_tile_2_negro
     404.  00:4501  36 10               	LD		(HL),TILEMAPROJO
     405.  00:4503  18 01               	JR		fin_mira_pinta_energia		;siempre estará pintado el cuadro mínimo
     406.  00:4505                      pinta_ener_tile_2_negro:
     407.  00:4505  71                  	LD		(HL),C
     408.  00:4506                      
     409.  00:4506                      fin_mira_pinta_energia:
     410.  00:4506  D9                  	EXX
     411.  00:4507  C9                  	RET
     412.  00:4508                      
     413.  00:4508                      
     414.  00:4508                      ;;=====================================================
     415.  00:4508                      ;;PINTA_ENERGIA
     416.  00:4508                      ;;=====================================================	
     417.  00:4508                      ; función: 	actualiza el mapa de tiles para que en el próximo refresco se pinte la barra de energia actual
     418.  00:4508                      ; entrada: 	array_aux_energia
     419.  00:4508                      ; toca:		todo
     420.  00:4508                      pinta_energia:
     421.  00:4508  CD B1 44            	CALL	mira_pinta_energia
     422.  00:450B                      	
     423.  00:450B  21 17 C0            	LD		HL, array_aux_energia
     424.  00:450E  11 88 1A            	LD		DE, TILMAP + POSENERG 	;inicio posición en el mapa de tiles de las vidas
     425.  00:4511  01 08 00            	LD		BC, NMAXVIDREL			;hay 8 posiciones para vidas/reliquias o espacios en negro si no tiene 8 vidas/reliquias
     426.  00:4514  C3 5C 00            	JP		LDIRVM
     427.  00:4517                      fin_pinta_energia:
     428.  00:4517                      
     429.  00:4517                      
     430.  00:4517                      ;;=====================================================
     431.  00:4517                      ;;BORRA_MAPA
     432.  00:4517                      ;;=====================================================	
     433.  00:4517                      ; función: 	pone todas las habitaciones del mapa a negro (los tiles del mapa los rellena con un array a 0 - caracter en negro)
     434.  00:4517                      ; entrada: 	array_aux_mapa_limpiar
     435.  00:4517                      ; salida: 	-
     436.  00:4517                      ; toca:		AF
     437.  00:4517                      borra_mapa:
     438.  00:4517  D9                  	EXX
     439.  00:4518                      	
     440.  00:4518  21 1F C0            	LD		HL,array_aux_mapa_limpiar
     441.  00:451B  11 F8 1A            	LD		DE,TILMAP + POSMAPLIN1 	;inicio posición en el mapa de tiles de la primera fila del mapa
     442.  00:451E  01 07 00            	LD		BC,NHABNIVEL			;cada nivel son 7 filas con 7 habitaciones "posibles"
     443.  00:4521  CD 5C 00            	CALL	LDIRVM
     444.  00:4524                      	
     445.  00:4524  21 1F C0            	LD		HL,array_aux_mapa_limpiar
     446.  00:4527  11 D8 1A            	LD		DE,TILMAP + POSMAPLIN2
     447.  00:452A  01 07 00            	LD		BC,NHABNIVEL
     448.  00:452D  CD 5C 00            	CALL	LDIRVM
     449.  00:4530                      
     450.  00:4530  21 1F C0            	LD		HL,array_aux_mapa_limpiar
     451.  00:4533  11 B8 1A            	LD		DE,TILMAP + POSMAPLIN3
     452.  00:4536  01 07 00            	LD		BC,NHABNIVEL
     453.  00:4539  CD 5C 00            	CALL	LDIRVM
     454.  00:453C                      
     455.  00:453C  21 1F C0            	LD		HL,array_aux_mapa_limpiar	
     456.  00:453F  11 98 1A            	LD		DE,TILMAP + POSMAPLIN4
     457.  00:4542  01 07 00            	LD		BC,NHABNIVEL
     458.  00:4545  CD 5C 00            	CALL	LDIRVM
     459.  00:4548                      
     460.  00:4548  21 1F C0            	LD		HL,array_aux_mapa_limpiar	
     461.  00:454B  11 78 1A            	LD		DE,TILMAP + POSMAPLIN5
     462.  00:454E  01 07 00            	LD		BC,NHABNIVEL
     463.  00:4551  CD 5C 00            	CALL	LDIRVM
     464.  00:4554                      
     465.  00:4554  21 1F C0            	LD		HL,array_aux_mapa_limpiar	
     466.  00:4557  11 58 1A            	LD		DE,TILMAP + POSMAPLIN6
     467.  00:455A  01 07 00            	LD		BC,NHABNIVEL
     468.  00:455D  CD 5C 00            	CALL	LDIRVM
     469.  00:4560                      
     470.  00:4560  21 1F C0            	LD		HL,array_aux_mapa_limpiar	
     471.  00:4563  11 38 1A            	LD		DE,TILMAP + POSMAPLIN7
     472.  00:4566  01 07 00            	LD		BC,NHABNIVEL
     473.  00:4569  CD 5C 00            	CALL	LDIRVM
     474.  00:456C                      	
     475.  00:456C  D9                  	EXX
     476.  00:456D                      fin_borra_mapa:
     477.  00:456D  C9                  	RET
     478.  00:456E                      
     479.  00:456E                      
     480.  00:456E                      ;;=====================================================
     481.  00:456E                      ;;POSICIONA_EN_MAPA
     482.  00:456E                      ;;=====================================================	
     483.  00:456E                      ; función: 	en el mapa de marcadores de la derecha/abajo marca un cuadro en gris o con un muñeco
     484.  00:456E                      ;			según el valor de prota.posición pinta entrá un muñeco y por donde vaya pasando el prota
     485.  00:456E                      ;			quedará en gris
     486.  00:456E                      ; entrada: 	elemento_pintar_mapa  A , prota_pos_mapy, prota_pos_mapx
     487.  00:456E                      ; salida: 	-
     488.  00:456E                      ; toca:		todos
     489.  00:456E                      posiciona_en_mapa:
     490.  00:456E                      	;#0238 es la posición en mapa de tiles de la esquina superior izquierda del mapa (569 en decimal)
     491.  00:456E  21 38 1A            	LD		HL, TILMAP + POSMAPA;pos inicial
     492.  00:4571                      	
     493.  00:4571                      	;ahora se le calcula la fila a pintar ya que va de abajo a arriba y no como en el mapa + columna
     494.  00:4571                      .sumar_fila:
     495.  00:4571  3A 04 C0            	LD		 A, (prota_pos_mapy)
     496.  00:4574  FE 01               	CP		 1
     497.  00:4576  28 2A               	JR		 Z, .fila_1
     498.  00:4578  3A 04 C0            	LD		 A, (prota_pos_mapy)
     499.  00:457B  FE 02               	CP		 2
     500.  00:457D  28 2A               	JR		 Z, .fila_2
     501.  00:457F  3A 04 C0            	LD		 A, (prota_pos_mapy)
     502.  00:4582  FE 03               	CP		 3
     503.  00:4584  28 2A               	JR		 Z, .fila_3
     504.  00:4586  3A 04 C0            	LD		 A, (prota_pos_mapy)
     505.  00:4589  FE 04               	CP		 4
     506.  00:458B  28 2A               	JR		 Z, .fila_4
     507.  00:458D  3A 04 C0            	LD		 A, (prota_pos_mapy)
     508.  00:4590  FE 05               	CP		 5
     509.  00:4592  28 2A               	JR		 Z, .fila_5
     510.  00:4594  3A 04 C0            	LD		 A, (prota_pos_mapy)
     511.  00:4597  FE 06               	CP		 6
     512.  00:4599  28 2A               	JR		 Z, .sumar_columna
     513.  00:459B                      	;no consulto la 0 porque si no es ninguna de las anteriores es 0 y por tanto sería un jr fila_0
     514.  00:459B                      	
     515.  00:459B                      .fila_0:
     516.  00:459B  11 C0 00            	LD		DE, 192
     517.  00:459E  19                  	ADD		HL, DE			;nota: se que repito el ADD pero la otra opción es inicializar DE y ya tarda mucho la funicón (es por velicidad)
     518.  00:459F  C3 C5 45            	JP		.sumar_columna
     519.  00:45A2                      .fila_1:
     520.  00:45A2  11 A0 00            	LD		DE, 160
     521.  00:45A5  19                  	ADD		HL, DE
     522.  00:45A6  C3 C5 45            	JP		.sumar_columna
     523.  00:45A9                      .fila_2:
     524.  00:45A9  11 80 00            	LD		DE, 128
     525.  00:45AC  19                  	ADD		HL, DE
     526.  00:45AD  C3 C5 45            	JP		.sumar_columna
     527.  00:45B0                      .fila_3:
     528.  00:45B0  11 60 00            	LD		DE, 96
     529.  00:45B3  19                  	ADD		HL, DE
     530.  00:45B4  C3 C5 45            	JP		.sumar_columna
     531.  00:45B7                      .fila_4:
     532.  00:45B7  11 40 00            	LD		DE, 64
     533.  00:45BA  19                  	ADD		HL, DE
     534.  00:45BB  C3 C5 45            	JP		.sumar_columna
     535.  00:45BE                      .fila_5:
     536.  00:45BE  11 20 00            	LD		DE, 32
     537.  00:45C1  19                  	ADD		HL, DE
     538.  00:45C2  C3 C5 45            	JP		.sumar_columna
     539.  00:45C5                      .fila_6:
     540.  00:45C5                      	;pongo fila_6 por poner ya que si es la fila 6 equiv. a primera fila del mapa y por tanto no suma fila
     541.  00:45C5                      	
     542.  00:45C5                      .sumar_columna:
     543.  00:45C5  3A 03 C0            	LD 		 A, (prota_pos_mapx) ;POS X
     544.  00:45C8  16 00               	LD		 D, 0
     545.  00:45CA  5F                  	LD		 E, A
     546.  00:45CB  19                  	ADD		HL, DE
     547.  00:45CC                      	
     548.  00:45CC                      	;resultado en BC para usar en la función pinta_tile_suelto
     549.  00:45CC  44                  	LD		 B, H
     550.  00:45CD  4D                  	LD		 C, L
     551.  00:45CE                      	
     552.  00:45CE                      	;terminado de fijar la coordenada recuperamos a para ver el tipo
     553.  00:45CE  3A 26 C0            	LD		 A, (elemento_pintar_mapa)
     554.  00:45D1  FE 09               	CP		 TILEGRISM
     555.  00:45D3  CA DB 45            	JP		 Z, pinta_pos_mapa_vacio
     556.  00:45D6  16 13               	LD		 D, TILEPROTAM
     557.  00:45D8  C3 DD 45            	JP		fin_pinta_pos_mapa
     558.  00:45DB                      pinta_pos_mapa_vacio:
     559.  00:45DB  16 09               	LD		 D, TILEGRISM	
     560.  00:45DD                      
     561.  00:45DD                      fin_pinta_pos_mapa:
     562.  00:45DD  C3 A3 44            	JP		pinta_tile_suelto
     563.  00:45E0                      fin_posiciona_en_mapa:
     564.  00:45E0                      
     565.  00:45E0                      
     566.  00:45E0                      ;;=====================================================
     567.  00:45E0                      ;;EFECTO_IMAGEN_TIRA_RELIQUIA
     568.  00:45E0                      ;;=====================================================	
     569.  00:45E0                      ; función: 	hace que el fondo de la pantalla parpadee N veces
     570.  00:45E0                      ; entrada: 	actualiza_reliquias_sn
     571.  00:45E0                      ; salida: 	-
     572.  00:45E0                      ; toca: 	todo
     573.  00:45E0                      efecto_imagen_tira_reliquia:
     574.  00:45E0  3E 14               	LD		 A, 20;RETARDOREL
     575.  00:45E2  47                  	LD		 B, A
     576.  00:45E3                      
     577.  00:45E3                      .parpadea_fondo:
     578.  00:45E3  C5                  	PUSH	BC
     579.  00:45E4  21 26 43            	LD		HL, color_bomba1
     580.  00:45E7  CD 2C 43            	CALL	color_pantalla
     581.  00:45EA                      	
     582.  00:45EA                      	;~ PUSH	BC
     583.  00:45EA                      	;~ LD		 A, 255
     584.  00:45EA                      	;~ LD		 B, A
     585.  00:45EA                      ;~ .bucle_de_espera:
     586.  00:45EA                      	;~ NOP
     587.  00:45EA                      	;~ DJNZ	 .bucle_de_espera
     588.  00:45EA                      	;~ POP		BC
     589.  00:45EA  76                  	HALT
     590.  00:45EB                      
     591.  00:45EB  21 29 43            	LD		HL, color_bomba2
     592.  00:45EE  CD 2C 43            	CALL	color_pantalla
     593.  00:45F1  C1                  	POP		BC
     594.  00:45F2  10 EF               	DJNZ	.parpadea_fondo
     595.  00:45F4                      	
     596.  00:45F4  21 23 43            	LD		HL, color_base
     597.  00:45F7  C3 2C 43            	JP		color_pantalla
     598.  00:45FA                      fin_efecto_imagen_tira_reliquia:
     599.  00:45FA                      
     600.  00:45FA                      
     601.  00:45FA                      ;;=====================================================
     602.  00:45FA                      ;;PINTA_ARRAY
     603.  00:45FA                      ;;=====================================================	
     604.  00:45FA                      ;;funcion:  (pinta el mismo tile) se le pasa un array con posiciones de tiles y coordenadas x e y y los pinta en screen 2
     605.  00:45FA                      ;;entrada:	wordaux1 (pos inicio sc2 donde pintar) y wordaux2 (puntero al array a pintar), BC (posición en tilemap) , D filas y E columnas
     606.  00:45FA                      ;;salida:	-
     607.  00:45FA                      ;;importante: necesita de una variable wordaux1 tipo WD (wordaux1: 	DW	0)
     608.  00:45FA                      ;; ejemplo llamada:
     609.  00:45FA                      	;~ LD		HL,array_tiles					;guardo puntero al array a pintar (como psar por referencia)
     610.  00:45FA                      	;~ LD		(wordaux2),HL					;en la variable wordaux2
     611.  00:45FA                      	;~ LD		HL,SC2MAP + 256 + 32			;calcula posición en tilemap
     612.  00:45FA                      	;~ LD		(wordaux1),HL					;guarda valor pos tilemap en wordaux1
     613.  00:45FA                      	;~ LD		B,H								;coloca posición tilemap BC
     614.  00:45FA                      	;~ LD		C,L
     615.  00:45FA                      	;~ LD		D,2								;nº de filas ahora byteaux1
     616.  00:45FA                      	;~ LD		E,3								;nº de columnas ahora byteaux2
     617.  00:45FA                      	;~ CALL	pinta_array
     618.  00:45FA                      
     619.  00:45FA                      pinta_array:
     620.  00:45FA  08                  	EX		AF, AF'
     621.  00:45FB                      	
     622.  00:45FB  3A D7 C1            	LD		 A, (byteaux1)
     623.  00:45FE  57                  	LD		 D, A
     624.  00:45FF  3A D8 C1            	LD		 A, (byteaux2)
     625.  00:4602  5F                  	LD		 E, A
     626.  00:4603                      	
     627.  00:4603  2A D3 C1            	LD		HL, (wordaux1)
     628.  00:4606  44                  	LD		 B, H							;coloca posición tilemap BC
     629.  00:4607  4D                  	LD		 C, L
     630.  00:4608                      	
     631.  00:4608                      	;contamos con que la posición "global" en el tilemap está ya en BC
     632.  00:4608                      	;y el puntero al array a pintar en wordaux2 y la posición en tilemap sc2 en wordaux1
     633.  00:4608                      	;inicializa
     634.  00:4608  DB 99               	IN		 A,(REGEST)		;leer registro de estado (recomendado)
     635.  00:460A                      	
     636.  00:460A                      	;coloca puntero para pintar tile según BC
     637.  00:460A  79                  	LD		 A,C			;primero byte bajo	
     638.  00:460B  D3 99               	OUT		(REGEST),A
     639.  00:460D  78                  	LD		 A,B			;después byte alto  ********************** preguntar a Fernando cómo que byte bajo es B
     640.  00:460E  F6 40               	OR		1000000b		;+64
     641.  00:4610  D3 99               	OUT		(REGEST),A
     642.  00:4612                      
     643.  00:4612  2A D5 C1            	LD		HL,(wordaux2)	;HL es lo que se pintará y le he pasado el puntero del array tilemap a pintar
     644.  00:4615                      .pa_pinta_fila:
     645.  00:4615  43                  	LD		 B,E
     646.  00:4616                      .pa_pinta_columnas: 		;finta la fila (pintando las columnas)
     647.  00:4616  7E                  	LD		 A,(HL)
     648.  00:4617  D3 98               	OUT		(REGESCVDP),A	;escribe A en VRAM en la posición indicada por los dos OUT anteriores
     649.  00:4619  23                  	INC		HL
     650.  00:461A  10 FA               	DJNZ	.pa_pinta_columnas
     651.  00:461C                      	
     652.  00:461C                      	;no es una solución elegante lo de repetir código pero queda claro
     653.  00:461C                      	;por si hay otra fila
     654.  00:461C  E5                  	PUSH	HL
     655.  00:461D  2A D3 C1            	LD		HL,(wordaux1)
     656.  00:4620  01 20 00            	LD		BC,32
     657.  00:4623  09                  	ADD		HL,BC
     658.  00:4624  22 D3 C1            	LD		(wordaux1),HL
     659.  00:4627  44                  	LD		B,H
     660.  00:4628  4D                  	LD		C,L
     661.  00:4629  E1                  	POP		HL
     662.  00:462A                      	
     663.  00:462A  79                  	LD		 A,C			;primero byte bajo	
     664.  00:462B  D3 99               	OUT		(REGEST),A
     665.  00:462D  78                  	LD		 A,B			;después byte alto 
     666.  00:462E  F6 40               	OR		1000000b		;+64
     667.  00:4630  D3 99               	OUT		(REGEST),A
     668.  00:4632                      	
     669.  00:4632                      	;si hay otra fila repite
     670.  00:4632  15                  	DEC		 D
     671.  00:4633  7A                  	LD		 A,D		;¿hay otra fila?
     672.  00:4634  B7                  	OR		 A
     673.  00:4635  C4 15 46            	CALL	NZ,.pa_pinta_fila
     674.  00:4638                      	
     675.  00:4638  08                  	EX		AF, AF'
     676.  00:4639                      fin_pinta_array:
     677.  00:4639  C9                  	RET
     678.  00:463A                      ;;variables asocidas a la función pinta_array
     679.  00:463A                      ;wordaux1:		DW	0	;almacena la posición en el tilemap 0 al 675
     680.  00:463A                      ;wordaux2:		DW	0	;almacena puntero a array de tiles (posiciones en realidad) a pintar (posiciones repetidas en los 2 primeros bancos)
     681.  00:463A                      ;byteaux1:		DB	0	;nº filas Registro D
     682.  00:463A                      ;byteaux2:		DB	0	;nº columnas Registro E
     683.  00:463A                      
     684.  00:463A                      
     685.  00:463A                      ;;=====================================================
     686.  00:463A                      ;;INICIALIZA_ANTORCHAS
     687.  00:463A                      ;;=====================================================	
     688.  00:463A                      ; función: 	inicializa las variables de estructuras de las antorchas
     689.  00:463A                      ; entrada: 	antorchas, array_antorcha
     690.  00:463A                      ; salida: 	
     691.  00:463A                      ; toca:		HL, IX
     692.  00:463A                      inicializa_antorchas:
     693.  00:463A  DD 21 27 C0         		LD			IX, antorchas
     694.  00:463E  DD 36 00 00         		LD			(IX), INACTIVA
     695.  00:4642  21 2E C0            		LD			HL, array_antorcha
     696.  00:4645  DD 74 01            		LD			(IX + 1), H
     697.  00:4648  DD 75 02            		LD			(IX + 2), L
     698.  00:464B  DD 36 03 88         		LD			(IX + 3), POSANTOR1
     699.  00:464F  DD 36 04 97         		LD			(IX + 4), POSANTOR2
     700.  00:4653  DD 36 05 00         		LD			(IX + 5), 0
     701.  00:4657  DD 36 06 FF         		LD			(IX + 6), RESETLLAMA
     702.  00:465B                      fin_inicializa_antorchas:
     703.  00:465B  C9                  		RET
     704.  00:465C                      		
     705.  00:465C                      
     706.  00:465C                      ;;=====================================================
     707.  00:465C                      ;;INICIALIZA_esqueletos
     708.  00:465C                      ;;=====================================================	
     709.  00:465C                      ; función: 	inicializa las variables de estructuras de los esqueletos
     710.  00:465C                      ; entrada: 	esqueletos, array_esqueletos
     711.  00:465C                      ; salida: 	
     712.  00:465C                      ; toca:		HL, IX
     713.  00:465C                      inicializa_esqueletos:
     714.  00:465C  DD 21 31 C0         	LD		IX, esqueletos
     715.  00:4660  DD 36 00 00         	LD		(IX), INACTIVA
     716.  00:4664  21 38 C0            	LD		HL, array_esqueleto
     717.  00:4667  DD 74 01            	LD		(IX + 1), H
     718.  00:466A  DD 75 02            	LD		(IX + 2), L
     719.  00:466D  DD 36 03 88         	LD		(IX + 3), POSESQUEL1
     720.  00:4671  DD 36 04 95         	LD		(IX + 4), POSESQUEL2
     721.  00:4675  DD 36 05 00         	LD		(IX + 5), 0
     722.  00:4679  DD 36 06 19         	LD		(IX + 6), RESETESQUEL
     723.  00:467D                      fin_inicializa_esqueletos:
     724.  00:467D  C9                  	RET
     725.  00:467E                      	
     726.  00:467E                      
     727.  00:467E                      ;;=====================================================
     728.  00:467E                      ;;PINTA_ANTORCHAS
     729.  00:467E                      ;;=====================================================	
     730.  00:467E                      ; función: 	pinta las antorchas con valores base
     731.  00:467E                      ; entrada: 	antorchas, array_antorcha
     732.  00:467E                      ; salida: 	
     733.  00:467E                      ; toca:		HL
     734.  00:467E                      pinta_extra_fondo:
     735.  00:467E  DD 21 27 C0         	LD		IX, antorchas
     736.  00:4682                      .examina_sihay_antorchas
     737.  00:4682                      	;hay que pintarlas?
     738.  00:4682  3A 23 C2            	LD		 A, (habitacion_extras)
     739.  00:4685  CB 47               	BIT		 0, A
     740.  00:4687  C2 91 46            	JP		NZ, .hayantorchas			;si el bit 0 de extras es 0 no se pintan antorchas
     741.  00:468A  DD 36 00 00         	LD		(IX), INACTIVA
     742.  00:468E  C3 BA 46            	JP		.examina_sihay_esqueletos
     743.  00:4691                      	
     744.  00:4691                      .hayantorchas:
     745.  00:4691  DD 36 00 01         	LD		(IX), ACTIVA
     746.  00:4695                      	;pinta antorcha izquierdda
     747.  00:4695  DD 66 01            	LD		 H, (IX + 1)
     748.  00:4698  DD 6E 02            	LD		 L, (IX + 2)
     749.  00:469B  22 D5 C1            	LD		(wordaux2), HL				;guarda pos array en wordaux2
     750.  00:469E                      	
     751.  00:469E  21 88 18            	LD		HL, TILMAP + POSANTOR1		;calcula posición en tilemap
     752.  00:46A1  22 D3 C1            	LD		(wordaux1), HL				;guarda valor pos tilemap en wordaux1
     753.  00:46A4                      
     754.  00:46A4  3E 03               	LD		 A, 3						;nº de filas	
     755.  00:46A6  32 D7 C1            	LD		(byteaux1), A
     756.  00:46A9  3E 01               	LD		 A, 1						;nº de columnas
     757.  00:46AB  32 D8 C1            	LD		(byteaux2), A				
     758.  00:46AE                      	
     759.  00:46AE  CD FA 45            	CALL	pinta_array
     760.  00:46B1                      	
     761.  00:46B1                      	;pinta antorcha derecha
     762.  00:46B1  21 97 18            	LD		HL, TILMAP + POSANTOR2		;calcula posición en tilemap
     763.  00:46B4  22 D3 C1            	LD		(wordaux1), HL				;guarda valor pos tilemap en wordaux1
     764.  00:46B7                      	
     765.  00:46B7  C3 FA 45            	JP		pinta_array 				;no ecesita CALL ya que la subrutina termina aquí
     766.  00:46BA                      	
     767.  00:46BA                      .examina_sihay_esqueletos
     768.  00:46BA  DD 21 31 C0         	LD		IX, esqueletos
     769.  00:46BE                      	;hay que pintarlos?
     770.  00:46BE  3A 22 C2            	LD		 A, (habitacion_actual)
     771.  00:46C1  CB 6F               	BIT		 5, A
     772.  00:46C3  C2 CB 46            	JP		NZ, .hayesqueletos			;si el bit 0 de extras es 0 no se pintan antorchas
     773.  00:46C6  DD 36 00 00         	LD		(IX), INACTIVA
     774.  00:46CA  C9                  	RET									;no hay que pintarlo. no hay que continuar
     775.  00:46CB                      
     776.  00:46CB                      .hayesqueletos
     777.  00:46CB  DD 36 00 01         	LD		(IX), ACTIVA
     778.  00:46CF                      	;pinta antorcha izquierdda
     779.  00:46CF  DD 66 01            	LD		 H, (IX + 1)
     780.  00:46D2  DD 6E 02            	LD		 L, (IX + 2)
     781.  00:46D5  22 D5 C1            	LD		(wordaux2), HL				;guarda pos array en wordaux2
     782.  00:46D8                      	
     783.  00:46D8  21 88 18            	LD		HL, TILMAP + POSESQUEL1		;calcula posición en tilemap
     784.  00:46DB  22 D3 C1            	LD		(wordaux1), HL				;guarda valor pos tilemap en wordaux1
     785.  00:46DE                      
     786.  00:46DE  3E 04               	LD		 A, 4						;nº de filas	
     787.  00:46E0  32 D7 C1            	LD		(byteaux1), A
     788.  00:46E3  3E 03               	LD		 A, 3						;nº de columnas
     789.  00:46E5  32 D8 C1            	LD		(byteaux2), A				
     790.  00:46E8                      	
     791.  00:46E8  CD FA 45            	CALL	pinta_array
     792.  00:46EB                      	
     793.  00:46EB                      	;pinta antorcha derecha
     794.  00:46EB  21 95 18            	LD		HL, TILMAP + POSESQUEL2		;calcula posición en tilemap
     795.  00:46EE  22 D3 C1            	LD		(wordaux1), HL				;guarda valor pos tilemap en wordaux1
     796.  00:46F1                      	
     797.  00:46F1  C3 FA 45            	JP		pinta_array 				;no ecesita CALL ya que la subrutina termina aquí
     798.  00:46F4                      fin_pinta_extra_fondo:
     799.  00:46F4                      
     800.  00:46F4                      
     801.  00:46F4                      ;;=====================================================
     802.  00:46F4                      ;;ACTUALIZA_ELEMENTOS_FONDO
     803.  00:46F4                      ;;=====================================================	
     804.  00:46F4                      ; función: 	de los elementos que pueda haber en el fondo de la pared (pantalla) actualiza si procede
     805.  00:46F4                      ;			actualmente: antorchas y a futuro esqueletos
     806.  00:46F4                      ; entrada: 	
     807.  00:46F4                      ; salida: 	
     808.  00:46F4                      ; toca:		A
     809.  00:46F4                      actualiza_elementos_fondo:
     810.  00:46F4                      .examina_antorchas:
     811.  00:46F4  DD 21 27 C0         	LD		IX, antorchas
     812.  00:46F8  DD 7E 00            	LD		 A, (IX)
     813.  00:46FB  B7                  	OR		 A
     814.  00:46FC  CA 02 47            	JP 	 	 Z, .examina_esqueletos
     815.  00:46FF                      	
     816.  00:46FF  CD 0E 47            	CALL	flip_llamas_antorchas
     817.  00:4702                      .examina_esqueletos:
     818.  00:4702  DD 21 31 C0         	LD		IX, esqueletos
     819.  00:4706  DD 7E 00            	LD		 A, (IX)
     820.  00:4709  B7                  	OR		 A
     821.  00:470A  C8                  	RET	 	 Z
     822.  00:470B                      	
     823.  00:470B  C3 6B 47            	JP		flip_calavera_esqueletos
     824.  00:470E                      fin_actualiza_elementos_fondo:
     825.  00:470E                      
     826.  00:470E                      
     827.  00:470E                      ;;=====================================================
     828.  00:470E                      ;;FLIP_LLAMAS_ANTORCHAS
     829.  00:470E                      ;;=====================================================	
     830.  00:470E                      ; función: 	modifica las llamas de las antorchas con los tipos que hay
     831.  00:470E                      ; entrada: 	
     832.  00:470E                      ; salida: 	
     833.  00:470E                      ; toca:		
     834.  00:470E                      flip_llamas_antorchas:
     835.  00:470E  DD 21 27 C0         		LD		IX, antorchas
     836.  00:4712                      		;tiene que cambiar de llama?
     837.  00:4712  DD 7E 06            		LD		 A, (IX + 6)
     838.  00:4715  3D                  		DEC		 A
     839.  00:4716  DD 77 06            		LD		 (IX + 6), A
     840.  00:4719                      		;no
     841.  00:4719  C0                  		RET		NZ
     842.  00:471A                      		;si
     843.  00:471A  C5                  		PUSH	BC
     844.  00:471B  D5                  		PUSH	DE
     845.  00:471C                      	
     846.  00:471C  DD 36 06 FF         		LD		(IX + 6), RESETLLAMA	
     847.  00:4720                      	
     848.  00:4720                      		;qué llama toca?
     849.  00:4720  DD 7E 05            		LD		 A, (IX + 5)
     850.  00:4723  B7                  		OR		 A
     851.  00:4724  CA 48 47            		JP		 Z, .llama_par
     852.  00:4727                      .llama_impar
     853.  00:4727                      		;cambio a llama par
     854.  00:4727  AF                  		XOR		 A
     855.  00:4728  DD 77 05            		LD		(IX + 5), A
     856.  00:472B                      		;pinto llamas
     857.  00:472B  01 00 18            		LD		BC, TILMAP
     858.  00:472E  3E 88               		LD		 A, POSANTOR1
     859.  00:4730  CD E6 42            		CALL	suma_A_BC
     860.  00:4733  16 C4               		LD		 D, MAPLLAMA1
     861.  00:4735  CD A3 44            		CALL	pinta_tile_suelto
     862.  00:4738                      		
     863.  00:4738  01 00 18            		LD		BC, TILMAP
     864.  00:473B  3E 97               		LD		 A, POSANTOR2
     865.  00:473D  CD E6 42            		CALL	suma_A_BC
     866.  00:4740  16 C5               		LD		 D, MAPLLAMA2
     867.  00:4742  CD A3 44            		CALL	pinta_tile_suelto	
     868.  00:4745  C3 6A 47            		JP		fin_flip_llamas_antorchas
     869.  00:4748                      	
     870.  00:4748                      .llama_par
     871.  00:4748                      		;cambio a llama par
     872.  00:4748  3E 01               		LD		 A, 1
     873.  00:474A  DD 77 05            		LD		(IX + 5), A
     874.  00:474D                      		;pinto llamas
     875.  00:474D  01 00 18            		LD		BC, TILMAP
     876.  00:4750  3E 88               		LD		 A, POSANTOR1
     877.  00:4752  CD E6 42            		CALL	suma_A_BC
     878.  00:4755  16 C5               		LD		 D, MAPLLAMA2
     879.  00:4757  CD A3 44            		CALL	pinta_tile_suelto
     880.  00:475A                      	
     881.  00:475A  01 00 18            		LD		BC, TILMAP
     882.  00:475D  3E 97               		LD		 A, POSANTOR2
     883.  00:475F  CD E6 42            		CALL	suma_A_BC
     884.  00:4762  16 C4               		LD		 D, MAPLLAMA1
     885.  00:4764  CD A3 44            		CALL	pinta_tile_suelto
     886.  00:4767                      
     887.  00:4767                      		;restauro los balores de los registros tocados antes
     888.  00:4767  D1                  		POP		DE
     889.  00:4768  C1                  		POP		BC
     890.  00:4769  F1                  		POP		AF
     891.  00:476A                      fin_flip_llamas_antorchas:
     892.  00:476A  C9                  		RET
     893.  00:476B                      
     894.  00:476B                      
     895.  00:476B                      ;;=====================================================
     896.  00:476B                      ;;FLIP_CALAVERA_ESQUELETOS
     897.  00:476B                      ;;=====================================================	
     898.  00:476B                      ; función: 	modifica las calaveras de los esqueletos
     899.  00:476B                      ; entrada: 	
     900.  00:476B                      ; salida: 	
     901.  00:476B                      ; toca:		TODOS.... muy importante DE
     902.  00:476B                      flip_calavera_esqueletos:
     903.  00:476B  DD 21 31 C0         		LD		IX, esqueletos
     904.  00:476F                      	
     905.  00:476F                      		;tiene que cambiar de calavera?
     906.  00:476F  DD 7E 06            		LD		 A, (IX + ESTRUCTURA_ESQUELETO.cont_sig_escena)
     907.  00:4772  3D                  		DEC		 A
     908.  00:4773  DD 77 06            		LD		 (IX + ESTRUCTURA_ESQUELETO.cont_sig_escena), A
     909.  00:4776                      		;no
     910.  00:4776  C0                  		RET		NZ
     911.  00:4777                      		;si
     912.  00:4777  DD 36 06 19         		LD		(IX + ESTRUCTURA_ESQUELETO.cont_sig_escena), RESETESQUEL		;resetea contador de nueve escena
     913.  00:477B                      	
     914.  00:477B  CD 98 47            		CALL	actualiza_escena_calavera
     915.  00:477E                      
     916.  00:477E                      		;pinto calaveras
     917.  00:477E  01 00 18            		LD		BC, TILMAP
     918.  00:4781  3E A9               		LD		 A, POSCALAVE1
     919.  00:4783  CD E6 42            		CALL	suma_A_BC
     920.  00:4786  D5                  		PUSH	DE
     921.  00:4787  56                  		LD		 D, (HL)
     922.  00:4788  CD A3 44            		CALL	pinta_tile_suelto
     923.  00:478B                      	
     924.  00:478B  01 00 18            		LD		BC, TILMAP
     925.  00:478E  3E B6               		LD		 A, POSCALAVE2
     926.  00:4790  CD E6 42            		CALL	suma_A_BC
     927.  00:4793  E1                  		POP		HL
     928.  00:4794  56                  		LD		 D, (HL)
     929.  00:4795  C3 A3 44            		JP		pinta_tile_suelto	
     930.  00:4798                      fin_flip_calavera_esqueletos:
     931.  00:4798                      ;var_aux_calavera	DB	0;
     932.  00:4798                      
     933.  00:4798                      
     934.  00:4798                      ;;=====================================================
     935.  00:4798                      ;;ACTUALIZA_ESCENA_CALAVERA
     936.  00:4798                      ;;=====================================================	
     937.  00:4798                      ; función: 	modifica las siguiente calavera a mostrar
     938.  00:4798                      ; entrada: 	
     939.  00:4798                      ; salida: 	DE (iportante porque se usa fuera) y ESTRUCTURA_ESQUELETO.escena
     940.  00:4798                      ; toca:		TODOS.... muy importante DE
     941.  00:4798                      actualiza_escena_calavera:
     942.  00:4798                      	;consulta_escena
     943.  00:4798  DD 7E 05            	LD		 A, (IX + ESTRUCTURA_ESQUELETO.escena)
     944.  00:479B  32 48 C0            	LD		(var_aux_calavera), A
     945.  00:479E  B7                  	OR		 A
     946.  00:479F  C2 A4 47            	JP		 NZ, .decrementa_escenas
     947.  00:47A2  3E 04               	LD		 A, RESETESCENAESQUEL
     948.  00:47A4                      .decrementa_escenas
     949.  00:47A4  3D                  	DEC		 A
     950.  00:47A5                      .fin_consulta_escena
     951.  00:47A5  DD 77 05            	LD		 (IX + ESTRUCTURA_ESQUELETO.escena), A
     952.  00:47A8                      	
     953.  00:47A8  21 44 C0            	LD		HL, lista_escenas_calavera
     954.  00:47AB  3A 48 C0            	LD		 A, (var_aux_calavera)
     955.  00:47AE  CD F2 42            	CALL	suma_A_HL
     956.  00:47B1                      	
     957.  00:47B1  54                  	LD		 D, H
     958.  00:47B2  5D                  	LD		 E, L
     959.  00:47B3                      fin_actualiza_escena_calavera:
     960.  00:47B3  C9                  	RET
     961.  00:47B4                      
     962.  00:47B4                      
     963.  00:47B4                      ;;=====================================================
     964.  00:47B4                      ;;CAMBIO_NIVEL_ENTREFASES
     965.  00:47B4                      ;;=====================================================	
     966.  00:47B4                      ; función: 	pone un texto cada vex que se sube o baja de nivel en el castillo
     967.  00:47B4                      cambio_nivel_entrefases:
     968.  00:47B4                      
     969.  00:47B4                      		;Ocultamos todos los sprites
     970.  00:47B4  CD EC 47            		CALL		oculta_todos_sprites
     971.  00:47B7                      			
     972.  00:47B7                      		;ocultamos posición superior en mapa
     973.  00:47B7  01 3B 1A            		LD			BC, TILMAP + (17 * 32) + 27
     974.  00:47BA  16 00               		LD		 	D, 0
     975.  00:47BC  CD A3 44            		CALL		pinta_tile_suelto	
     976.  00:47BF                      				
     977.  00:47BF                      		;ocultamos posición inferior en mapa
     978.  00:47BF  01 FB 1A            		LD			BC, TILMAP + (23 * 32) + 27
     979.  00:47C2  16 00               		LD		 	D, 0
     980.  00:47C4  CD A3 44            		CALL		pinta_tile_suelto	
     981.  00:47C7                      
     982.  00:47C7                      		;ocultamos numero de nivel
     983.  00:47C7  01 B4 1A            		LD			BC, TILMAP + (21 * 32) + 20
     984.  00:47CA  16 00               		LD		 	D, 0
     985.  00:47CC  CD A3 44            		CALL		pinta_tile_suelto	
     986.  00:47CF                      
     987.  00:47CF                      		;cargamos mapa de pantalla banco 1 y 2
     988.  00:47CF  21 8D 85            		LD			HL, tiles_mapa_entrefases
     989.  00:47D2  11 00 18            		LD			DE, TILMAP
     990.  00:47D5  CD 34 81            		CALL		depack_VRAM
     991.  00:47D8                      			
     992.  00:47D8  CD 06 B5            		CALL		pinta_texto_entrefases
     993.  00:47DB                      			
     994.  00:47DB                      .mientras_nopulsado:
     995.  00:47DB                      		;compruebo espacio
     996.  00:47DB  AF                  		XOR			 A
     997.  00:47DC  CD D8 00            		CALL		#00D8
     998.  00:47DF  47                  		LD			 B, A
     999.  00:47E0                      		
    1000.  00:47E0  C5                  		PUSH		BC
    1001.  00:47E1                      		;compruebo botón 1 joystick
    1002.  00:47E1  3E 01               		LD			 A, 1
    1003.  00:47E3  CD D8 00            		CALL		#00D8
    1004.  00:47E6  C1                  		POP 		BC
    1005.  00:47E7                      		
    1006.  00:47E7  B0                  		OR			 B		;uno el resultado del espacio + el resultado del botón de disparo
    1007.  00:47E8                      		
    1008.  00:47E8  CA DB 47            		JP			 Z, .mientras_nopulsado	;si A=0 no se pulsó ni disparo ni botón
    1009.  00:47EB                      fin_cabio_nivel_entrefases:
    1010.  00:47EB  C9                  		RET
    1011.  00:47EC                      
    1012.  00:47EC                      
    1013.  00:47EC                      ;;=====================================================
    1014.  00:47EC                      ;;OCULTA_TODOS_SPRITES
    1015.  00:47EC                      ;;=====================================================	
    1016.  00:47EC                      ; función: 	oculta el sprite 0 con y=208 para que oculte el resto de sprites
    1017.  00:47EC                      ; entrada: 	
    1018.  00:47EC                      ; salida: 	-
    1019.  00:47EC                      ; toca:		TODOS
    1020.  00:47EC                      oculta_todos_sprites:	
    1021.  00:47EC                      ;~ 1B00		Sprite attributes
    1022.  00:47EC                      ;~ BORRASPRITESIG valor 208 que coulta todos los sprites de un plano haci a los superiores
    1023.  00:47EC  01 00 1B            			LD			BC, #1B00
    1024.  00:47EF  16 D0               			LD			 D, BORRASPRITESIG
    1025.  00:47F1  C3 A3 44            			JP			pinta_tile_suelto
    1026.  00:47F4                      fin_oculta_todos_sprites:
    1027.  00:47F4                      
    1028.  00:47F4                      
    1029.  00:47F4                      ;;=====================================================
    1030.  00:47F4                      ;;BORRA_PANTALLA_INICIO
    1031.  00:47F4                      ;;=====================================================	
    1032.  00:47F4                      ; función: 	borra la pantalla de inicio de una forma chula caracter a caracter
    1033.  00:47F4                      ; entrada: 	-
    1034.  00:47F4                      ; salida: 	-
    1035.  00:47F4                      ; toca:		AF, BC
    1036.  00:47F4                      borra_pantalla_inicio:
    1037.  00:47F4  01 00 01            			LD			 BC, 256	;tiles por pantalla en screen2 - 1 (768 total)
    1038.  00:47F7  11 00 00            			LD			 DE, 0		;posición tile "vacio"
    1039.  00:47FA                      .loop:
    1040.  00:47FA  C5                  			PUSH		BC
    1041.  00:47FB  01 00 19            				LD			BC, TILMAP + 256
    1042.  00:47FE  7B                  				LD			 A, E
    1043.  00:47FF  CD E6 42            				CALL	suma_A_BC
    1044.  00:4802                      			
    1045.  00:4802  CD A3 44            				CALL		pinta_tile_suelto
    1046.  00:4805  1C                  				INC			 E
    1047.  00:4806                      		
    1048.  00:4806  01 52 03            				LD			 BC, 850
    1049.  00:4809  CD 18 43            				CALL		retardo16bits
    1050.  00:480C  C1                  			POP			BC
    1051.  00:480D  0B                  			DEC			BC
    1052.  00:480E  78                  			LD			 A, B
    1053.  00:480F  B1                  			OR			 C
    1054.  00:4810  C2 FA 47            			JP			NZ, .loop
    1055.  00:4813                      			
    1056.  00:4813                      			;limpia todo y evita que se vea cuando se cargan los nuevos tiles por pantalla
    1057.  00:4813  AF                  			XOR		 	 A
    1058.  00:4814  21 00 18            			LD			HL, TILMAP
    1059.  00:4817  01 00 03            			LD			BC, 768
    1060.  00:481A  C3 56 00            			JP			FILVRM
    1061.  00:481D                      fin_borra_pantalla_inicio:
    1062.  00:481D                      
    1063.  00:481D                      
    1064.  00:481D                      ;;=====================================================
    1065.  00:481D                      ;;MUESTRA_PANTALLA_INICIAL
    1066.  00:481D                      ;;=====================================================	
    1067.  00:481D                      ; función: 	muestra la pantalla de inicio del juego y queda ahí hasta que se pulse disparo (joystick o espacio)
    1068.  00:481D                      ; entrada: 	
    1069.  00:481D                      ; salida: 	
    1070.  00:481D                      ; toca:		TODOS.... muy importante DE
    1071.  00:481D                      muestra_pantalla_inicial:
    1072.  00:481D                      		;cargamos mapa de pantalla completa
    1073.  00:481D  21 A9 84            		LD			HL, tiles_mapa_inicio
    1074.  00:4820  11 00 18            		LD			DE, TILMAP
    1075.  00:4823  CD 34 81            		CALL		depack_VRAM
    1076.  00:4826                      		
    1077.  00:4826                      		;cargamos tiles y colores del banco 0
    1078.  00:4826                      		;cargamos los patrones
    1079.  00:4826  21 24 82            		LD			HL, tiles_patrones_inicio
    1080.  00:4829  11 00 00            		LD			DE, CHRTBL
    1081.  00:482C  CD 34 81            		CALL		depack_VRAM
    1082.  00:482F                      		;cargamos los colores
    1083.  00:482F  21 35 84            		LD			HL, tiles_color_inicio
    1084.  00:4832  11 00 20            		LD			DE, CLRTBL
    1085.  00:4835  CD 34 81            		CALL		depack_VRAM
    1086.  00:4838                      		
    1087.  00:4838                      		;cargamos tiles y colores del banco 1
    1088.  00:4838                      		;cargamos los patrones
    1089.  00:4838  21 24 82            		LD			HL, tiles_patrones_inicio
    1090.  00:483B  11 00 08            		LD			DE, CHRTBL + #0800
    1091.  00:483E  CD 34 81            		CALL		depack_VRAM
    1092.  00:4841                      		;cargamos los colores
    1093.  00:4841  21 35 84            		LD			HL, tiles_color_inicio
    1094.  00:4844  11 00 28            		LD			DE, CLRTBL + #0800
    1095.  00:4847  CD 34 81            		CALL		depack_VRAM
    1096.  00:484A                      		
    1097.  00:484A                      		;cangando banco 3
    1098.  00:484A                      		;cargamos los patrones
    1099.  00:484A  21 A8 A0            		LD			HL,tiles_patrones_marcador
    1100.  00:484D  11 00 10            		LD			DE,CHRTBL + #1000
    1101.  00:4850  CD 34 81            		CALL		depack_VRAM	
    1102.  00:4853                      		;cargamos los colores
    1103.  00:4853  21 FB A1            		LD			HL,tiles_color_marcador
    1104.  00:4856  11 00 30            		LD			DE,CLRTBL + #1000
    1105.  00:4859  CD 34 81            		CALL		depack_VRAM
    1106.  00:485C                      	
    1107.  00:485C  CD 36 B5            		CALL		pinta_textos_inicio_disparo
    1108.  00:485F  CD 4E B5            		CALL		pinta_textos_inicio_autoria
    1109.  00:4862                      
    1110.  00:4862                      .mientras_nopulsado:
    1111.  00:4862                      		;compruebo espacio
    1112.  00:4862  AF                  		XOR			 A
    1113.  00:4863  CD D8 00            		CALL		#00D8
    1114.  00:4866  47                  		LD			 B, A
    1115.  00:4867                      		
    1116.  00:4867  C5                  		PUSH		BC
    1117.  00:4868                      		;compruebo botón 1 joystick
    1118.  00:4868  3E 01               		LD			 A, 1
    1119.  00:486A  CD D8 00            		CALL		#00D8
    1120.  00:486D  C1                  		POP 		BC
    1121.  00:486E                      		
    1122.  00:486E  B0                  		OR			 B		;uno el resultado del espacio + el resultado del botón de disparo
    1123.  00:486F                      		
    1124.  00:486F  CA 62 48            		JP			 Z, .mientras_nopulsado	;si A=0 no se pulsó ni disparo ni botón
    1125.  00:4872                      		
    1126.  00:4872                      		;ejecuto sonido
    1127.  00:4872  AF                  		XOR			 A
    1128.  00:4873  0E 01               		LD			 C, 1
    1129.  00:4875  CD B6 76            		CALL		ayFX_INIT
    1130.  00:4878                      		
    1131.  00:4878                      		;parpadeo del texto
    1132.  00:4878  06 0A               		LD			 B,10
    1133.  00:487A                      .parpadeo:		
    1134.  00:487A  C5                  		PUSH		BC
    1135.  00:487B                      
    1136.  00:487B  01 28 23            		LD 			BC, 9000
    1137.  00:487E  CD 18 43            		CALL		retardo16bits
    1138.  00:4881                      		
    1139.  00:4881  CD 42 B5            		CALL		pinta_textos_inicio_disparo_blanco
    1140.  00:4884                      		
    1141.  00:4884  01 28 23            		LD 			BC, 9000
    1142.  00:4887  CD 18 43            		CALL		retardo16bits
    1143.  00:488A                      		
    1144.  00:488A  CD 36 B5            		CALL		pinta_textos_inicio_disparo
    1145.  00:488D                      		
    1146.  00:488D  C1                  		POP			BC
    1147.  00:488E  10 EA               		DJNZ 		.parpadeo
    1148.  00:4890                      		
    1149.  00:4890                      		;borra pantalla bonito
    1150.  00:4890  C3 F4 47            		JP			borra_pantalla_inicio
    1151.  00:4893                      fin_muestra_pantalla_inicial:
    1152.  00:4893                      
     170   00:4893                      	
     171   00:4893                      	include "subr_puntomira.asm"
       1.  00:4893                      ;;=====================================================
       2.  00:4893                      ;;CONTANTES PUNTOMIRA
       3.  00:4893                      ;;=====================================================
       4.  00:4893                      datos_puntomira:			
       5.  00:4893  78                  				DB		POSXPM		;posición X de los sprites del punto de mira
       6.  00:4894  6C                  				DB		POSYPM		;posición Y de los sprites del punto de mira
       7.  00:4895  00                  				DB		0			;valores posibles 0 (blanco+rojo en punto de mira) y NEG 0 (al revés)
       8.  00:4896  00                  				DB		0			;velocidad (por si lo pongo variable)
       9.  00:4897  04                  				DB		4			;cadencia
      10.  00:4898  00                  				DB		SPRI_DANO1A	;valor en pos de memoria del sprite grande del punto de mira
      11.  00:4899  04                  				DB		SPRI_DANO1B	;valor en pos de memoria del sprite pequeño del punto de mira
      12.  00:489A                      				
      13.  00:489A                      				
      14.  00:489A                      ;;=====================================================
      15.  00:489A                      ;;SUBRUTINAS MANEJO DE OBJETOS AYUDA
      16.  00:489A                      ;;=====================================================	
      17.  00:489A                      			
      18.  00:489A                      
      19.  00:489A                      ;;=====================================================
      20.  00:489A                      ;;INICIALIZA_PUNTOMIRA
      21.  00:489A                      ;;=====================================================	
      22.  00:489A                      ; función: 	inicializa las variables de la estructura del punto de mira
      23.  00:489A                      ; entrada: 	datos_delasdistintasayudas, variable estructura_ayuda_ayudaquesea
      24.  00:489A                      ; salida: 	lista_ayudas
      25.  00:489A                      ; toca:		HL, DE, BC
      26.  00:489A                      inicializa_punto_mira:
      27.  00:489A  21 93 48            		LD			HL, datos_puntomira
      28.  00:489D  11 1B C2            		LD			DE, puntomira
      29.  00:48A0  C3 A3 48            		JP			carga_datos_puntomira
      30.  00:48A3                      fin_inicializa_punto_mira:	
      31.  00:48A3                      	
      32.  00:48A3                      	
      33.  00:48A3                      ;;=====================================================
      34.  00:48A3                      ;;CARGA_DATOS_PUNTOMIRA
      35.  00:48A3                      ;;=====================================================	
      36.  00:48A3                      ; función: 	carga los datos de la ayuda de una variable dentro de la variable estructura (más carga y espacio que rellenar a pelo desde IX en adelante pero más simple)
      37.  00:48A3                      ;			en realidad carga cualquier dato de 5 bytes
      38.  00:48A3                      ; entrada:
      39.  00:48A3                      ;  hl: origen de datos
      40.  00:48A3                      ;  de: destino de datos
      41.  00:48A3                      ; salida: 	-
      42.  00:48A3                      ; toca:		HL, DE, BC
      43.  00:48A3                      carga_datos_puntomira:
      44.  00:48A3  01 07 00            		LD			BC, ESTRUCTURA_PUNTOMIRA;ESTRUCTURA_PUNTOMIRA ;equivale a 8.. el tamaño de la estructura en bytes
      45.  00:48A6  ED B0               		LDIR
      46.  00:48A8                      fin_carga_datos_puntomira:
      47.  00:48A8  C9                  		RET
      48.  00:48A9                      	
      49.  00:48A9                      	
      50.  00:48A9                      ;;=====================================================
      51.  00:48A9                      ;;ACCION_BOTON1
      52.  00:48A9                      ;;=====================================================	
      53.  00:48A9                      ; función: 	acción cuando se pulsa botón priario (disparo normal)
      54.  00:48A9                      ; entrada:	A datos del byte de disparo que se obtiene de mira_disparo, prota_reliquias
      55.  00:48A9                      ; salida: 	-
      56.  00:48A9                      ; toca:		-
      57.  00:48A9                      accion_boton1:
      58.  00:48A9                      		;cambio colores del sprite
      59.  00:48A9  DD 21 1B C2         		LD			IX, puntomira
      60.  00:48AD  DD 7E 02            		LD			 A, (IX + ESTRUCTURA_PUNTOMIRA.escena)
      61.  00:48B0  2F                  		CPL		 
      62.  00:48B1  DD 77 02            		LD			(IX + ESTRUCTURA_PUNTOMIRA.escena), A
      63.  00:48B4                      		;reseteo cadencia para el próximo disparo
      64.  00:48B4  3E 04               		LD			 A, LIMCADENCIA				;;;;;;;;;;;;;;;;;;;;;;;;;;;;;;;;;;;;;;
      65.  00:48B6  DD 77 04            		LD			(IX + ESTRUCTURA_PUNTOMIRA.cadencia), A		;;;;;;;;;;;;;;;;;;;;;;;;;;;;;;;;;;;;;
      66.  00:48B9                      		
      67.  00:48B9                      		;ejecuto sonido						;; ajustar cadencia y que cuando el disparo sea efectivo se reseteen los colores
      68.  00:48B9  AF                  		XOR			 A
      69.  00:48BA  0E 01               		LD			 C, 1
      70.  00:48BC  CD B6 76            		CALL		ayFX_INIT
      71.  00:48BF                      			
      72.  00:48BF                      		;examino si el disparo le dió a algo activo
      73.  00:48BF  C3 CE 42            		JP			check_colisiones_objetos	;revisa las colisiones con puertas, ayudas y enemigos
      74.  00:48C2                      fin_accion_boton1:
      75.  00:48C2                      
      76.  00:48C2                      
      77.  00:48C2                      ;;=====================================================
      78.  00:48C2                      ;;ACCION_BOTON2
      79.  00:48C2                      ;;=====================================================	
      80.  00:48C2                      ; función: 	acción cuando se pulsa botón secundario (tira bomba - reliquia)
      81.  00:48C2                      ; entrada:	A datos del byte de disparo que se obtiene de mira_disparo, prota_reliquias
      82.  00:48C2                      ; salida: 	-
      83.  00:48C2                      ; toca:		-
      84.  00:48C2                      accion_boton2:	
      85.  00:48C2  3A 02 C0            		LD		 A, (prota_reliquias)	;miro si le quedan reliquias
      86.  00:48C5  B7                  		OR		 A
      87.  00:48C6  C8                  		RET		 Z						;si no le quedan salgo ya
      88.  00:48C7                      	
      89.  00:48C7                      		;actuaciones si se usa la reliquia botón 2 o M y quedn reliquias.. (antes ya se puso el valor en A)
      90.  00:48C7  3A 02 C0            		LD		A, (prota_reliquias)
      91.  00:48CA  3D                  		DEC		 A
      92.  00:48CB  32 02 C0            		LD		(prota_reliquias), A
      93.  00:48CE                      	
      94.  00:48CE  3E 01               		LD		 A, 1
      95.  00:48D0  4F                  		LD		 C, A
      96.  00:48D1  CD B6 76            		CALL	ayFX_INIT
      97.  00:48D4                      	
      98.  00:48D4  CD E0 45            		CALL 	efecto_imagen_tira_reliquia
      99.  00:48D7                      	
     100.  00:48D7  C3 88 44            		JP		pinta_reliquias
     101.  00:48DA                      fin_accion_boton2:
     102.  00:48DA                      
     103.  00:48DA                      
     172   00:48DA                      	
     173   00:48DA                      	include "subr_puertas.asm"
       1.  00:48DA                      ;;=====================================================
       2.  00:48DA                      ;;CONTANTES PUERTAS
       3.  00:48DA                      ;;=====================================================
       4.  00:48DA                      datos_puertas:
       5.  00:48DA                      datos_puerta_escalera:
       6.  00:48DA  00                  					DB		#00;0		; 0 no activa <>0 activo
       7.  00:48DB  80                  					DB		#80;128		;punto x de la puerta para cuando se dispare encima
       8.  00:48DC  30                  					DB		#30;48		;punto y de la puerta para cuando se dispare encima
       9.  00:48DD  20                  					DB		#20;32		;radio x de la puerta para cuando se dispare encima
      10.  00:48DE  18                  					DB		#18;24		;radio y de la puerta para cuando se dispare encima
      11.  00:48DF  D2 49               					DW		accion_puerta_arriba;función para acción de cada tipo de puerta
      12.  00:48E1  67 49               					DW		array_escalera		;puntero al array con los tiles de las puertas
      13.  00:48E3  6C 18               					DW		TILMAP + POSESCALERA
      14.  00:48E5  07                  					DB		7			;alto/filas
      15.  00:48E6  08                  					DB		8			;ancho/columnas
      16.  00:48E7                      
      17.  00:48E7                      datos_puerta_arriba:
      18.  00:48E7  00                  					DB		#00;0		;0 no activa <>0 activo
      19.  00:48E8  80                  					DB		#80;128		;punto x de la puerta para cuando se dispare encima
      20.  00:48E9  34                  					DB		#34;52		;punto y de la puerta para cuando se dispare encima
      21.  00:48EA  10                  					DB		#10;16		;radio x de la puerta para cuando se dispare encima
      22.  00:48EB  14                  					DB		#14;20		;radio y de la puerta para cuando se dispare encima
      23.  00:48EC  D2 49               					DW		accion_puerta_arriba	;función para acción de cada tipo de puerta
      24.  00:48EE  1B 49               					DW		array_puerta_arriba		;puntero al array con los tiles de las puertas
      25.  00:48F0  8E 18               					DW		TILMAP + POSPUERARRI
      26.  00:48F2  06                  					DB		6			;alto/filas
      27.  00:48F3  04                  					DB		4			;ancho/columnas
      28.  00:48F4                      
      29.  00:48F4                      datos_puerta_derecha:
      30.  00:48F4  00                  					DB		#00;0		;0 no activa <>0 activo
      31.  00:48F5  EC                  					DB		#EC;236		;punto x de la puerta para cuando se dispare encima
      32.  00:48F6  54                  					DB		#54;84		;punto y de la puerta para cuando se dispare encima
      33.  00:48F7  0C                  					DB		#0C;12		;radio x de la puerta para cuando se dispare encima
      34.  00:48F8  14                  					DB		#14;20		;radio y de la puerta para cuando se dispare encima
      35.  00:48F9  F8 49               					DW		accion_puerta_derecha	;función para acción de cada tipo de puerta
      36.  00:48FB  33 49               					DW		array_puerta_derecha	;puntero al array con los tiles de las puertas
      37.  00:48FD  FC 18               					DW		TILMAP + POSPUERDERE
      38.  00:48FF  08                  					DB		8			;alto/filas
      39.  00:4900  03                  					DB		3			;ancho/columnas
      40.  00:4901                      					
      41.  00:4901                      datos_puerta_abajo:
      42.  00:4901  00                  					DB		#00;0		;0 no activa <>0 activo
      43.  00:4902  80                  					DB		#80;128		;punto x de la puerta para cuando se dispare encima
      44.  00:4903  7C                  					DB		#7C;124		;punto y de la puerta para cuando se dispare encima
      45.  00:4904  11                  					DB		#11;		;radio x de la puerta para cuando se dispare encima
      46.  00:4905  06                  					DB		#06;		;radio y de la puerta para cuando se dispare encima
      47.  00:4906  05 4A               					DW		accion_puerta_abajo		;función para acción de cada tipo de puerta
      48.  00:4908  4B 49               					DW		array_puerta_abajo		;puntero al array con los tiles de las puertas
      49.  00:490A  EE 19               					DW		TILMAP + POSPUERABAJ
      50.  00:490C  01                  					DB		1			;alto/filas
      51.  00:490D  04                  					DB		4			;ancho/columnas
      52.  00:490E                      
      53.  00:490E                      datos_puerta_izquierda:
      54.  00:490E  00                  					DB		#00;0		;0 no activa <>0 activo
      55.  00:490F  18                  					DB		#18;24		;punto x de la puerta para cuando se dispare encima
      56.  00:4910  54                  					DB		#54;84		;punto y de la puerta para cuando se dispare encima
      57.  00:4911  0C                  					DB		#0C;12		;radio x de la puerta para cuando se dispare encima
      58.  00:4912  14                  					DB		#14;20		;radio y de la puerta para cuando se dispare encima
      59.  00:4913  2B 4A               					DW		accion_puerta_izquierda	;función para acción de cada tipo de puerta
      60.  00:4915  4F 49               					DW		array_puerta_izquierda	;puntero al array con los tiles de las puertas
      61.  00:4917  E1 18               					DW		TILMAP + POSPUERIZQU
      62.  00:4919  08                  					DB		8			;alto/filas
      63.  00:491A  03                  					DB		3			;ancho/columnas
      64.  00:491B                      					
      65.  00:491B                      					
      66.  00:491B                      ;;=====================================================
      67.  00:491B                      ;;SUBRUTINAS RELACIONADAS CON LAS PUERTAS
      68.  00:491B                      ;;=====================================================
      69.  00:491B                      
      70.  00:491B                      
      71.  00:491B                      ;;=====================================================
      72.  00:491B                      ;;CONTANTES PUERTAS
      73.  00:491B                      ;;=====================================================
      74.  00:491B                      ;; arrays con mapa de tiles de las puertas
      75.  00:491B                      array_puerta_arriba:
      76.  00:491B  03 01 01 03         		DB	3,1,1,3
      77.  00:491F  01 01 01 01         		DB	1,1,1,1
      78.  00:4923  01 01 01 01         		DB	1,1,1,1
      79.  00:4927  01 01 01 01         		DB	1,1,1,1
      80.  00:492B  01 01 01 01         		DB	1,1,1,1
      81.  00:492F  01 01 01 01         		DB	1,1,1,1
      82.  00:4933                      
      83.  00:4933                      array_puerta_derecha:
      84.  00:4933  01 03 03            		DB	1,3,3
      85.  00:4936  01 01 03            		DB	1,1,3
      86.  00:4939  01 01 01            		DB	1,1,1
      87.  00:493C  01 01 01            		DB	1,1,1
      88.  00:493F  01 01 01            		DB	1,1,1
      89.  00:4942  01 01 01            		DB	1,1,1
      90.  00:4945  04 01 01            		DB	4,1,1
      91.  00:4948  04 04 01            		DB	4,4,1
      92.  00:494B                      	
      93.  00:494B                      array_puerta_abajo:			
      94.  00:494B  01 01 01 01         		DB	1,1,1,1
      95.  00:494F                      
      96.  00:494F                      array_puerta_izquierda:
      97.  00:494F  03 03 01            		DB	3,3,1
      98.  00:4952  03 01 01            		DB	3,1,1
      99.  00:4955  01 01 01            		DB	1,1,1
     100.  00:4958  01 01 01            		DB	1,1,1
     101.  00:495B  01 01 01            		DB	1,1,1
     102.  00:495E  01 01 01            		DB	1,1,1
     103.  00:4961  01 01 04            		DB	1,1,4
     104.  00:4964  01 04 04            		DB	1,4,4
     105.  00:4967                      
     106.  00:4967                      array_escalera:
     107.  00:4967                      		DB	5,5,5,5,5,5,5,5
     107.  00:4967  05 05 05 05 05 05 05 05 
     108.  00:496F                      		DB	5,0,0,0,1,1,1,5
     108.  00:496F  05 00 00 00 01 01 01 05 
     109.  00:4977                      		DB	5,0,0,0,1,1,1,5
     109.  00:4977  05 00 00 00 01 01 01 05 
     110.  00:497F                      		DB	5,0,0,6,6,6,6,5
     110.  00:497F  05 00 00 06 06 06 06 05 
     111.  00:4987                      		DB	5,0,6,6,6,6,6,5
     111.  00:4987  05 00 06 06 06 06 06 05 
     112.  00:498F                      		DB	5,6,6,6,6,6,6,5
     112.  00:498F  05 06 06 06 06 06 06 05 
     113.  00:4997                      		DB	5,4,4,4,4,4,4,5
     113.  00:4997  05 04 04 04 04 04 04 05 
     114.  00:499F                      
     115.  00:499F                      
     116.  00:499F                      ;;=====================================================
     117.  00:499F                      ;;SUBRUTINAS
     118.  00:499F                      ;;=====================================================
     119.  00:499F                      
     120.  00:499F                      ;;=====================================================
     121.  00:499F                      ;;INICIALIZA_PUERTAS
     122.  00:499F                      ;;=====================================================	
     123.  00:499F                      ; función: 	inicializa las variables de estructuras de ayuda del array lista_puertas
     124.  00:499F                      ; entrada: 	*********************datos_delasdistintasayudas, variable estructura_ayuda_ayudaquesea
     125.  00:499F                      ; salida: 	lista_ayudas
     126.  00:499F                      ; toca:		-
     127.  00:499F                      inicializa_puertas:	
     128.  00:499F                      	;inicializa puerta escalera
     129.  00:499F  21 DA 48            	LD		HL, datos_puerta_escalera	;origen
     130.  00:49A2  11 0D C2            	LD		DE, puerta_escalera			;destino
     131.  00:49A5  CD CC 49            	CALL	carga_datos_puerta
     132.  00:49A8                      
     133.  00:49A8                      	;inicializa puerta arriba
     134.  00:49A8  21 E7 48            	LD		HL, datos_puerta_arriba		;origen
     135.  00:49AB  11 D9 C1            	LD		DE, puerta_arriba			;destino
     136.  00:49AE  CD CC 49            	CALL	carga_datos_puerta
     137.  00:49B1                      	
     138.  00:49B1                      	;inicializa puerta derecha
     139.  00:49B1  21 F4 48            	LD		HL, datos_puerta_derecha	;origen
     140.  00:49B4  11 E6 C1            	LD		DE, puerta_derecha			;destino
     141.  00:49B7  CD CC 49            	CALL	carga_datos_puerta
     142.  00:49BA                      	
     143.  00:49BA                      	;inicializa puerta abajo
     144.  00:49BA  21 01 49            	LD		HL, datos_puerta_abajo		;origen
     145.  00:49BD  11 F3 C1            	LD		DE, puerta_abajo			;destino
     146.  00:49C0  CD CC 49            	CALL	carga_datos_puerta
     147.  00:49C3                      	
     148.  00:49C3                      	;inicializa puerta izquierda
     149.  00:49C3  21 0E 49            	LD		HL, datos_puerta_izquierda	;origen
     150.  00:49C6  11 00 C2            	LD		DE, puerta_izquierda		;destino
     151.  00:49C9  C3 CC 49            	JP		carga_datos_puerta
     152.  00:49CC                      fin_inicializa_puertas:
     153.  00:49CC                      
     154.  00:49CC                      
     155.  00:49CC                      ;;=====================================================
     156.  00:49CC                      ;;CARGA_DATOS_PUERTA
     157.  00:49CC                      ;;=====================================================	
     158.  00:49CC                      ; función: 	carga los datos de la puerta de una variable con los datos de la puerta
     159.  00:49CC                      ; entrada
     160.  00:49CC                      ;  hl: origen de datos
     161.  00:49CC                      ;  de: destino de datos
     162.  00:49CC                      ; salida: 	-
     163.  00:49CC                      ; toca:		HL, DE, BC
     164.  00:49CC                      carga_datos_puerta:
     165.  00:49CC  01 0D 00            	LD		BC, ESTRUCTURA_PUERTA ;bytes a mover (el nombre de la estructura equivale al tamaño de la estructura en bytes)
     166.  00:49CF  ED B0               	LDIR
     167.  00:49D1                      fin_carga_datos_puerta:
     168.  00:49D1  C9                  	RET
     169.  00:49D2                      
     170.  00:49D2                      
     171.  00:49D2                      ;;=====================================================
     172.  00:49D2                      ;;ACCION_PUERTA_ARRIBA
     173.  00:49D2                      ;;=====================================================	
     174.  00:49D2                      ; función: 	
     175.  00:49D2                      ; entrada: 	
     176.  00:49D2                      ; salida: 	
     177.  00:49D2                      accion_puerta_arriba:
     178.  00:49D2  CD BD 42            		CALL			pinta_blanco_mapa
     179.  00:49D5                      	
     180.  00:49D5  3A 04 C0            		LD		 	 	 A, (prota_pos_mapy)
     181.  00:49D8  3C                  		INC		 	 	 A
     182.  00:49D9  FE 07               		CP		 	 	 7
     183.  00:49DB  C2 F2 49            		JP				NZ, .no_cambia_nivel
     184.  00:49DE                      .si_cambia_nivel:	
     185.  00:49DE                      		;se da un descanso entre niveles
     186.  00:49DE  CD B4 47            		CALL			cambio_nivel_entrefases 
     187.  00:49E1                      
     188.  00:49E1                      		;reseteo fila
     189.  00:49E1  AF                  		XOR		 		 A
     190.  00:49E2  32 04 C0            		LD				(prota_pos_mapy), A
     191.  00:49E5                      		;incremento nivel
     192.  00:49E5  3A 00 C0            		LD		 		 A, (prota_nivel)
     193.  00:49E8  3C                  		INC		 		 A
     194.  00:49E9  32 00 C0            		LD				(prota_nivel), A
     195.  00:49EC                      		;reflejo en pantalla cambio de nivel
     196.  00:49EC  CD C5 42            		CALL			cambio_nivel
     197.  00:49EF  C3 F5 49            		JP				.fin_cambia_nivel
     198.  00:49F2                      .no_cambia_nivel:
     199.  00:49F2  32 04 C0            		LD		 		(prota_pos_mapy), A
     200.  00:49F5                      .fin_cambia_nivel:
     201.  00:49F5  C3 5C 42            		JP				entra_habitacion
     202.  00:49F8                      fin_accion_puerta_arriba:
     203.  00:49F8                      
     204.  00:49F8                      
     205.  00:49F8                      ;;=====================================================
     206.  00:49F8                      ;;ACCION_PUERTA_DERECHA
     207.  00:49F8                      ;;=====================================================	
     208.  00:49F8                      ; función: 	
     209.  00:49F8                      ; entrada: 	
     210.  00:49F8                      ; salida: 	
     211.  00:49F8                      accion_puerta_derecha:
     212.  00:49F8  CD BD 42            		CALL			pinta_blanco_mapa
     213.  00:49FB                      	
     214.  00:49FB  3A 03 C0            		LD		 	 	 A, (prota_pos_mapx)
     215.  00:49FE  3C                  		INC		 	 	 A
     216.  00:49FF  32 03 C0            		LD		 		(prota_pos_mapx), A
     217.  00:4A02                      
     218.  00:4A02  C3 5C 42            		JP				entra_habitacion
     219.  00:4A05                      fin_accion_puerta_derecha:
     220.  00:4A05                      	
     221.  00:4A05                      
     222.  00:4A05                      ;;=====================================================
     223.  00:4A05                      ;;ACCION_PUERTA_ABAJO
     224.  00:4A05                      ;;=====================================================	
     225.  00:4A05                      ; función: 	
     226.  00:4A05                      ; entrada: 	
     227.  00:4A05                      ; salida: 	
     228.  00:4A05                      accion_puerta_abajo:
     229.  00:4A05                      
     230.  00:4A05                      
     231.  00:4A05                      ;AQUÍ HAY QUE TENER EN CUENTA LO DE SALIR SIN TERMINAR EL JUEGO
     232.  00:4A05                      
     233.  00:4A05                      
     234.  00:4A05  CD BD 42            		CALL			pinta_blanco_mapa
     235.  00:4A08                      	
     236.  00:4A08  3A 04 C0            		LD		 		 A, (prota_pos_mapy)
     237.  00:4A0B  3D                  		DEC			 	 A
     238.  00:4A0C  FE FF               		CP				-1
     239.  00:4A0E  20 15               		JR				NZ, .no_cambia_nivel
     240.  00:4A10                      .si_cambia_nivel:	
     241.  00:4A10                      		;se da un descanso entre niveles
     242.  00:4A10  CD B4 47            		CALL			cambio_nivel_entrefases 
     243.  00:4A13                      
     244.  00:4A13                      		;reseteo fila
     245.  00:4A13  3E 06               		LD			 	 A, 6
     246.  00:4A15  32 04 C0            		LD				(prota_pos_mapy), A
     247.  00:4A18                      		;decremento nivel
     248.  00:4A18  3A 00 C0            		LD		 		 A, (prota_nivel)
     249.  00:4A1B  3D                  		DEC			 	 A
     250.  00:4A1C  32 00 C0            		LD				(prota_nivel), A
     251.  00:4A1F                      		;reflejo en pantalla cambio de nivel
     252.  00:4A1F  CD C5 42            		CALL			cambio_nivel
     253.  00:4A22  C3 28 4A            		JP				.fin_cambia_nivel
     254.  00:4A25                      .no_cambia_nivel:
     255.  00:4A25  32 04 C0            		LD			 	(prota_pos_mapy), A
     256.  00:4A28                      .fin_cambia_nivel:
     257.  00:4A28  C3 5C 42            		JP				entra_habitacion
     258.  00:4A2B                      fin_accion_puerta_abajo:
     259.  00:4A2B                      	
     260.  00:4A2B                      	
     261.  00:4A2B                      ;;=====================================================
     262.  00:4A2B                      ;;ACCION_PUERTA_IZQUIERDA
     263.  00:4A2B                      ;;=====================================================	
     264.  00:4A2B                      ; función: 	
     265.  00:4A2B                      ; entrada: 	
     266.  00:4A2B                      ; salida: 	
     267.  00:4A2B                      accion_puerta_izquierda:
     268.  00:4A2B  CD BD 42            		CALL			pinta_blanco_mapa
     269.  00:4A2E                      
     270.  00:4A2E  3A 03 C0            		LD				 A, (prota_pos_mapx)
     271.  00:4A31  3D                  		DEC				 A
     272.  00:4A32  32 03 C0            		LD				(prota_pos_mapx), A
     273.  00:4A35                      
     274.  00:4A35  C3 5C 42            		JP				entra_habitacion
     275.  00:4A38                      fin_accion_puerta_izquierda:
     276.  00:4A38                      	
     277.  00:4A38                      
     278.  00:4A38                      ;;=====================================================
     279.  00:4A38                      ;;PINTA_PUERTAS
     280.  00:4A38                      ;;=====================================================	
     281.  00:4A38                      ; función: 	examina A y mira si tiene que pintar puertas de los lados, arriba o abrajo o las escaleras (o no)
     282.  00:4A38                      ; entrada: 	habitacion_actual 1 escalera 1 puerta arriba 1 pu der 1 pu aba 1 pu izq (si es 0 pinta pared)
     283.  00:4A38                      ; salida: 	-
     284.  00:4A38                      ; toca:		todo
     285.  00:4A38                      pinta_puertas:
     286.  00:4A38  CD E4 41            	CALL	localiza_info_habitacion	;busca qué puertas debe pintar y lo mete en habitación_actual
     287.  00:4A3B                      
     288.  00:4A3B                      	;*********************************************************************+ SÓLO SI HABITACIÓN NO COPLETADA
     289.  00:4A3B  CD 71 4B            	CALL	desactiva_todas_puertas
     290.  00:4A3E                      
     291.  00:4A3E                      	;examina puerta arrba
     292.  00:4A3E  3A 22 C2            	LD		 A, (habitacion_actual)
     293.  00:4A41  CB 5F               	BIT		 3, A					
     294.  00:4A43  CA 51 4A            	JP		 Z, .fin_puerta_arriba		;tiene puerta arriba?
     295.  00:4A46  CD 95 4A            		CALL	pinta_puerta_arr		;pinto puerta ;si es de la fila 7 los datos de la pueta de arriba serán los de una escalera
     296.  00:4A49  DD 21 D9 C1         		LD		IX, puerta_arriba		
     297.  00:4A4D  DD 36 00 01         		LD		(IX), 1					;activo puerta
     298.  00:4A51                      .fin_puerta_arriba:
     299.  00:4A51                      
     300.  00:4A51                      	;examina puerta derecha
     301.  00:4A51  3A 22 C2            	LD		 A, (habitacion_actual)
     302.  00:4A54  CB 57               	BIT		 2, A
     303.  00:4A56  CA 64 4A            	JP		 Z, .fin_puerta_derecha		;tiene puerta derecha?
     304.  00:4A59  CD AE 4A            		CALL	pinta_puerta_der		;pinto puerta
     305.  00:4A5C  DD 21 E6 C1         		LD		IX, puerta_derecha
     306.  00:4A60  DD 36 00 01         		LD		(IX), 1					;activo puerta
     307.  00:4A64                      .fin_puerta_derecha:
     308.  00:4A64                      
     309.  00:4A64                      	;examina puerta abajo
     310.  00:4A64  3A 22 C2            	LD		 A, (habitacion_actual)
     311.  00:4A67  CB 4F               	BIT		 1, A
     312.  00:4A69  CA 77 4A            	JP		 Z, .fin_puerta_abajo		;tiene puerta derecha?
     313.  00:4A6C  CD 8B 4A            		CALL	pinta_puerta_aba		;pinto puerta
     314.  00:4A6F  DD 21 F3 C1         		LD		IX, puerta_abajo	
     315.  00:4A73  DD 36 00 01         		LD		(IX), 1					;activo puerta
     316.  00:4A77                      .fin_puerta_abajo:
     317.  00:4A77                      
     318.  00:4A77                      	;examina puerta izquierda
     319.  00:4A77  3A 22 C2            	LD		 A, (habitacion_actual)
     320.  00:4A7A  CB 47               	BIT		 0, A
     321.  00:4A7C  CA 8A 4A            	JP		 Z, fin_pinta_puertas		;tiene puerta derecha?
     322.  00:4A7F  CD B8 4A            		CALL	pinta_puerta_izq		;pinto puerta
     323.  00:4A82  DD 21 00 C2         		LD		IX, puerta_izquierda	
     324.  00:4A86  DD 36 00 01         		LD		(IX), 1					;activo puerta
     325.  00:4A8A                      fin_pinta_puertas:
     326.  00:4A8A  C9                  	RET
     327.  00:4A8B                      
     328.  00:4A8B                      
     329.  00:4A8B                      ;;=====================================================
     330.  00:4A8B                      ;;PINTA_PUERTA_ABA
     331.  00:4A8B                      ;;=====================================================	
     332.  00:4A8B                      ; función: 	pinta la puerta de abajo
     333.  00:4A8B                      ; entrada: 	puerta_abajo
     334.  00:4A8B                      ; salida: 	-
     335.  00:4A8B                      ; toca:		A, HL,BC, DE
     336.  00:4A8B                      pinta_puerta_aba:
     337.  00:4A8B  DD 21 F3 C1         	LD			IX, puerta_abajo
     338.  00:4A8F  CD C2 4A            	CALL		actualiza_variables_pinta_array
     339.  00:4A92                      		
     340.  00:4A92  C3 FA 45            	JP			pinta_array
     341.  00:4A95                      fin_pinta_puerta_aba:
     342.  00:4A95                      
     343.  00:4A95                      
     344.  00:4A95                      ;;=====================================================
     345.  00:4A95                      ;;PINTA_PUERTA_ARR
     346.  00:4A95                      ;;=====================================================	
     347.  00:4A95                      ; función: 	pinta la puerta de arriba
     348.  00:4A95                      ; entrada: 	puerta_arriba
     349.  00:4A95                      ; salida: 	-
     350.  00:4A95                      ; toca:		IX
     351.  00:4A95                      pinta_puerta_arr:
     352.  00:4A95  3A 04 C0            		LD			 A, (prota_pos_mapy)
     353.  00:4A98  FE 06               		CP			 6	;en la fila 6 la única puerta arriba será una escalera
     354.  00:4A9A  C2 A4 4A            		JP			NZ, .pinta_puerta_normal
     355.  00:4A9D                      .pinta_puerta_escalera
     356.  00:4A9D  DD 21 0D C2         			LD			IX, puerta_escalera
     357.  00:4AA1  C3 A8 4A            			JP			.fin_si
     358.  00:4AA4                      .pinta_puerta_normal
     359.  00:4AA4  DD 21 D9 C1         			LD			IX, puerta_arriba	
     360.  00:4AA8                      .fin_si
     361.  00:4AA8  CD C2 4A            		CALL		actualiza_variables_pinta_array
     362.  00:4AAB  C3 FA 45            		JP			pinta_array
     363.  00:4AAE                      fin_pinta_puerta_arr:
     364.  00:4AAE                      
     365.  00:4AAE                      
     366.  00:4AAE                      ;;=====================================================
     367.  00:4AAE                      ;;PINTA_PUERTA_DER
     368.  00:4AAE                      ;;=====================================================	
     369.  00:4AAE                      ; función: 	pinta la puerta de la derecha
     370.  00:4AAE                      ; entrada: 	puerta_derecha
     371.  00:4AAE                      ; salida: 	-
     372.  00:4AAE                      ; toca:		HL,BC, DE
     373.  00:4AAE                      pinta_puerta_der:
     374.  00:4AAE  DD 21 E6 C1         		LD			IX, puerta_derecha
     375.  00:4AB2  CD C2 4A            		CALL		actualiza_variables_pinta_array
     376.  00:4AB5                      	
     377.  00:4AB5  C3 FA 45            		JP			pinta_array
     378.  00:4AB8                      fin_pinta_puerta_der:
     379.  00:4AB8                      
     380.  00:4AB8                      	
     381.  00:4AB8                      ;;=====================================================
     382.  00:4AB8                      ;;PINTA_PUERTA_IZQ
     383.  00:4AB8                      ;;=====================================================	
     384.  00:4AB8                      ; función: 	pinta la puerta de la izquierda
     385.  00:4AB8                      ; entrada: 	puerta_izquierda
     386.  00:4AB8                      ; salida: 	-
     387.  00:4AB8                      ; toca:		HL,BC, DE
     388.  00:4AB8                      pinta_puerta_izq:
     389.  00:4AB8  DD 21 00 C2         		LD			IX, puerta_izquierda
     390.  00:4ABC  CD C2 4A            		CALL		actualiza_variables_pinta_array
     391.  00:4ABF                      	
     392.  00:4ABF  C3 FA 45            		JP			pinta_array
     393.  00:4AC2                      fin_pinta_puerta_izq:
     394.  00:4AC2                      
     395.  00:4AC2                      
     396.  00:4AC2                      ;;=====================================================
     397.  00:4AC2                      ;;ACTUALIZA_VARIABLES_PINTA_ARRAY
     398.  00:4AC2                      ;;=====================================================	
     399.  00:4AC2                      ; función: 	como el código es el mismo en esta subrutia se actualizan los valores de wordaux2, wordaux1, byteaux1, byteaux2
     400.  00:4AC2                      ; entrada: 	IX apuntando a la estructura de una puerta
     401.  00:4AC2                      ; salida: 	-
     402.  00:4AC2                      ; toca:		A,HL,BC, DE
     403.  00:4AC2                      actualiza_variables_pinta_array:
     404.  00:4AC2  DD 6E 07            		LD		 L, (IX + ESTRUCTURA_PUERTA.tiles_puerta)	;guardo puntero al array a pintar (como pasar por referencia)
     405.  00:4AC5  DD 66 08            		LD		 H, (IX + ESTRUCTURA_PUERTA.tiles_puerta + 1)
     406.  00:4AC8  22 D5 C1            		LD		(wordaux2), HL						;en la variable wordaux2
     407.  00:4ACB                      	
     408.  00:4ACB  DD 6E 09            		LD		 L, (IX + ESTRUCTURA_PUERTA.pos_en_tilemap)	;guardo puntero al array a pintar (como pasar por referencia)
     409.  00:4ACE  DD 66 0A            		LD		 H, (IX + ESTRUCTURA_PUERTA.pos_en_tilemap + 1)
     410.  00:4AD1  22 D3 C1            		LD		(wordaux1), HL						;guarda valor pos tilemap en wordaux1
     411.  00:4AD4                      	
     412.  00:4AD4  DD 7E 0B            		LD		 A, (IX + ESTRUCTURA_PUERTA.alto)	;nº de filas
     413.  00:4AD7  32 D7 C1            		LD		(byteaux1), A
     414.  00:4ADA                      	
     415.  00:4ADA  DD 7E 0C            		LD		 A, (IX + ESTRUCTURA_PUERTA.ancho)	;nº de columnas
     416.  00:4ADD  32 D8 C1            		LD		(byteaux2), A
     417.  00:4AE0                      fin_actualiza_variables_pinta_array:
     418.  00:4AE0  C9                  		RET
     419.  00:4AE1                      
     420.  00:4AE1                      
     421.  00:4AE1                      ;;=====================================================
     422.  00:4AE1                      ;;CHECK_COLISIONES_PUERTAS
     423.  00:4AE1                      ;;=====================================================	
     424.  00:4AE1                      ; función: 	examina si se ha disparado sobre ua puerta activa, si es así, ejecuta la acción correspondiente
     425.  00:4AE1                      ; entrada: 	puerta_arriba, puerta_derecha, puerta_abajo, puerta_izquierda
     426.  00:4AE1                      ; salida: 	-
     427.  00:4AE1                      ; toca:		todo
     428.  00:4AE1                      check_colisiones_puertas:
     429.  00:4AE1                      .examina_puerta_arriba:
     430.  00:4AE1  DD 21 D9 C1         		LD		IX, puerta_arriba
     431.  00:4AE5  DD 7E 00            		LD		 A, (IX)
     432.  00:4AE8  B7                  		OR		 A							;está activa esta puerta?
     433.  00:4AE9  CA F7 4A            		JP		 Z, .examina_puerta_derecha
     434.  00:4AEC                      	
     435.  00:4AEC  CD 40 4B            		CALL	check_colision_puerta		;aquí ya es cosa de ver colisiones prota/puerta_izquierda
     436.  00:4AEF                      		;recibe valor A
     437.  00:4AEF  F6 00               		OR		 0							;hubo colisión?
     438.  00:4AF1  CA F7 4A            		JP		 Z, .examina_puerta_derecha	;no hubo colisión por lo que examina puerta siguiente
     439.  00:4AF4                      		;hubo colisión
     440.  00:4AF4                      		;EJECUTA ACCIÓN Y SALE DE LA RUTINA	
     441.  00:4AF4  C3 34 4B            		JP		.ejecuta_accion_y_sale
     442.  00:4AF7                      	
     443.  00:4AF7                      .examina_puerta_derecha:
     444.  00:4AF7  DD 21 E6 C1         		LD		IX, puerta_derecha
     445.  00:4AFB  DD 7E 00            		LD		 A, (IX)
     446.  00:4AFE  B7                  		OR		 A							;está activa esta puerta?
     447.  00:4AFF  CA 0D 4B            		JP		 Z, .examina_puerta_abajo
     448.  00:4B02  CD 40 4B            		CALL	check_colision_puerta		;aquí ya es cosa de ver colisiones prota/puerta_derecha
     449.  00:4B05                      		;recibe valor
     450.  00:4B05  F6 00               		OR		 0							;hubo colisión?
     451.  00:4B07  CA 0D 4B            		JP		 Z, .examina_puerta_abajo	;no hubo colisión por lo que examina puerta siguiente
     452.  00:4B0A                      		;hubo colisión
     453.  00:4B0A                      		;EJECUTA ACCIÓN Y SALE DE LA RUTINA
     454.  00:4B0A  C3 34 4B            		JP		.ejecuta_accion_y_sale
     455.  00:4B0D                      	
     456.  00:4B0D                      .examina_puerta_abajo:
     457.  00:4B0D  DD 21 F3 C1         		LD		IX, puerta_abajo
     458.  00:4B11  DD 7E 00            		LD		 A, (IX)
     459.  00:4B14  B7                  		OR		 A							;está activa esta puerta?
     460.  00:4B15  CA 23 4B            		JP		 Z, .examina_puerta_izquierda
     461.  00:4B18  CD 40 4B            		CALL	check_colision_puerta		;aquí ya es cosa de ver colisiones prota/puerta_izquierda
     462.  00:4B1B                      	
     463.  00:4B1B  F6 00               		OR		 0							;hubo colisión?
     464.  00:4B1D  CA 23 4B            		JP		 Z, .examina_puerta_izquierda;no hubo colisión por lo que examina puerta siguiente
     465.  00:4B20                      		;hubo colisión
     466.  00:4B20                      		;EJECUTA ACCIÓN Y SALE DE LA RUTINA
     467.  00:4B20  C3 34 4B            		JP		.ejecuta_accion_y_sale
     468.  00:4B23                      	
     469.  00:4B23                      .examina_puerta_izquierda:
     470.  00:4B23  DD 21 00 C2         		LD		IX, puerta_izquierda
     471.  00:4B27  DD 7E 00            		LD		 A, (IX)
     472.  00:4B2A  B7                  		OR		 A							;está activa esta puerta?
     473.  00:4B2B  CA 3F 4B            		JP		 Z, fin_check_colisiones_puertas
     474.  00:4B2E  CD 40 4B            		CALL	check_colision_puerta		;aquí ya es cosa de ver colisiones prota/puerta_izquierda
     475.  00:4B31                      	
     476.  00:4B31  F6 00               		OR		 0							;hubo colisión?
     477.  00:4B33  C8                  		RET		 Z							;es la última puerta a mirar, si no hubo colisión salimos
     478.  00:4B34                      		;hubo colisión
     479.  00:4B34                      		;EJECUTA ACCIÓN Y SALE DE LA RUTINA
     480.  00:4B34                      		;JP		.ejecuta_accion_y_sale ;no necesaria
     481.  00:4B34                      
     482.  00:4B34                      .ejecuta_accion_y_sale
     483.  00:4B34  21 3F 4B            		LD		HL, fin_check_colisiones_puertas ;se guarda dónde volver
     484.  00:4B37  E5                  		PUSH	HL
     485.  00:4B38                      	
     486.  00:4B38  DD 6E 05            		LD		 L, (IX + ESTRUCTURA_PUERTA.accion)
     487.  00:4B3B  DD 66 06            		LD		 H, (IX + ESTRUCTURA_PUERTA.accion + 1)
     488.  00:4B3E  E9                  		JP		(HL)
     489.  00:4B3F                      fin_check_colisiones_puertas:
     490.  00:4B3F  C9                  		RET
     491.  00:4B40                      
     492.  00:4B40                      
     493.  00:4B40                      ;;=====================================================
     494.  00:4B40                      ;;CHECK_COLISION_PUERTA
     495.  00:4B40                      ;;=====================================================	
     496.  00:4B40                      ; función: 	revisa (con enemigos+ayudas o puertas según si la habitación ha sido recorrida o no) las variables para ver si se disparó sobre ellas
     497.  00:4B40                      ; entrada: 	IX con el puntero a la puerta que se examina
     498.  00:4B40                      ; salida: 	A (0 no hay colisión con puerta / 1 sí la hay)
     499.  00:4B40                      ; toca:		HL,BC, DE
     500.  00:4B40                      check_colision_puerta:
     501.  00:4B40                      .deteccioncolision_paso1:
     502.  00:4B40  FD 21 1B C2         		LD		IY, puntomira	;IY punto de mira / IX puerta
     503.  00:4B44  FD 7E 00            		LD		 A, (IY + ESTRUCTURA_PUNTOMIRA.posx)
     504.  00:4B47  C6 08               		ADD		 8				;8-es fijo, offset del punto de mira ya que se mueve según la esquina superior izquierda y el centro del punto de mira está en el centro del sprite
     505.  00:4B49                      	
     506.  00:4B49                      		;ya tengo en A la coordenada X del centro del punto de mira					
     507.  00:4B49  DD 96 01            		SUB		(IX + ESTRUCTURA_PUERTA.posx)	;le resto el punto x en la puerta
     508.  00:4B4C                      	
     509.  00:4B4C  D2 51 4B            		JP		NC, .deteccioncolision_paso2	;si no es negativo comparo con el radio
     510.  00:4B4F                      
     511.  00:4B4F  ED 44               		NEG										;si es negativo lo niego (valor absoluto)
     512.  00:4B51                      	
     513.  00:4B51                      .deteccioncolision_paso2:
     514.  00:4B51  DD BE 03            		CP		(IX + ESTRUCTURA_PUERTA.radiox)	;comparo con el radio X de la puerta
     515.  00:4B54                      	
     516.  00:4B54  DA 59 4B            		JP		 C, .deteccioncolision_paso3	;SI NC la distancia es >= por lo que sale y no es necesario verificar nada más
     517.  00:4B57                      	
     518.  00:4B57  AF                  		XOR		 A								;el resultado es falso y se guarda en A y ya no hay que seguir coprobando
     519.  00:4B58  C9                  		RET
     520.  00:4B59                      	
     521.  00:4B59                      .deteccioncolision_paso3:					;la distancia X es válida, comprobamos la distancia Y
     522.  00:4B59  FD 7E 01            		LD		 A, (IY + ESTRUCTURA_PUNTOMIRA.posy)
     523.  00:4B5C  C6 08               		ADD		 8								;le sumo el offset del punto de mira (8 es fijo)
     524.  00:4B5E                      
     525.  00:4B5E                      		;ya tengo en A la coordenada Y del centro del punto de mira					
     526.  00:4B5E  DD 96 02            		SUB		(IX + ESTRUCTURA_PUERTA.posy)	;le resto el punto y en la puerta
     527.  00:4B61                      	
     528.  00:4B61  D2 66 4B            		JP		NC, .deteccioncolision_paso4	;si no es negativo comparo con el radio
     529.  00:4B64                      
     530.  00:4B64  ED 44               		NEG										;si es negativo lo niego (valor absoluto)
     531.  00:4B66                      
     532.  00:4B66                      .deteccioncolision_paso4:
     533.  00:4B66  DD BE 04            		CP		(IX + ESTRUCTURA_PUERTA.radioy)	;comparo con el radio Y de la puerta
     534.  00:4B69                      
     535.  00:4B69  DA 6E 4B            		JP		 C, .deteccioncolision_paso5	;SI NC la distancia es >= por lo que sale y no es necesario verificar nada más
     536.  00:4B6C                      	
     537.  00:4B6C  AF                  		XOR		 A								;el resultado es falso y se guarda en A un 0 y al ser la 2º comprobación salimos
     538.  00:4B6D  C9                  		RET
     539.  00:4B6E                      
     540.  00:4B6E                      .deteccioncolision_paso5:
     541.  00:4B6E  3E 01               		LD		 A, SI
     542.  00:4B70                      fin_check_colision_puerta:
     543.  00:4B70  C9                  		RET
     544.  00:4B71                      
     545.  00:4B71                      	
     546.  00:4B71                      ;;=====================================================
     547.  00:4B71                      ;;DESACTIVA_TODAS_PUERTAS
     548.  00:4B71                      ;;=====================================================	
     549.  00:4B71                      ; función: 	desactiva todas las puertas (es más rápido todas que mirar cuál estaba activa en la habitación aanterior) y ya se activarán las que se muestren
     550.  00:4B71                      ; entrada: 	puerta_arriba, puerta_derecha, puerta_abajo, puerta_izquierda
     551.  00:4B71                      ; salida: 	las estructuras de la puertas (entrada) con el valor activo a 0 (PUERTAINACT)
     552.  00:4B71                      ; toca:		IX
     553.  00:4B71                      desactiva_todas_puertas:
     554.  00:4B71  DD 21 D9 C1         		LD			IX, puerta_arriba		;desactivo_puerta arriba
     555.  00:4B75  DD 36 00 00         		LD			(IX), INACTIVA
     556.  00:4B79  DD 21 E6 C1         		LD			IX, puerta_derecha		;desactivo_puerta derecha
     557.  00:4B7D  DD 36 00 00         		LD			(IX), INACTIVA
     558.  00:4B81  DD 21 F3 C1         		LD			IX, puerta_abajo		;desactivo_puerta abajo
     559.  00:4B85  DD 36 00 00         		LD			(IX), INACTIVA
     560.  00:4B89  DD 21 00 C2         		LD			IX, puerta_izquierda	;desactivo_puerta izquierda
     561.  00:4B8D  DD 36 00 00         		LD			(IX), INACTIVA
     562.  00:4B91                      fin_desactiva_todas_puertas:
     563.  00:4B91  C9                  		RET
     564.  00:4B92                      
     174   00:4B92                      	
     175   00:4B92                      	include "subr_sprites.asm"
       1.  00:4B92                      ;;=====================================================
       2.  00:4B92                      ;;SUBRUTINAS ENCARGADAS DE MANEJAR LOS SPRITES
       3.  00:4B92                      ;;=====================================================	
       4.  00:4B92                      
       5.  00:4B92                      
       6.  00:4B92                      ;;=====================================================
       7.  00:4B92                      ;;CARGA PATRONES SPRITES
       8.  00:4B92                      ;;=====================================================	
       9.  00:4B92                      carga_patrones_cienpies:
      10.  00:4B92  21 3E A3            		LD			HL, sprite_cienpies
      11.  00:4B95  11 C0 38            		LD			DE, #38C0
      12.  00:4B98  01 40 00            		LD			BC, fin_sprite_cienpies - sprite_cienpies			;32 * 2 sprites de 4 x 4				
      13.  00:4B9B  CD 5C 00            		CALL		LDIRVM
      14.  00:4B9E                      fin_carga_patrones_cienpies:
      15.  00:4B9E  C9                  		RET
      16.  00:4B9F                      
      17.  00:4B9F                      carga_patrones_serpiente:
      18.  00:4B9F  21 7E A3            		LD			HL, sprite_serpiente
      19.  00:4BA2  11 00 39            		LD			DE, #3900
      20.  00:4BA5  01 80 00            		LD			BC, fin_sprite_serpiente - sprite_serpiente			;32 * 4 sprites de 4 x 4				
      21.  00:4BA8  CD 5C 00            		CALL		LDIRVM
      22.  00:4BAB                      fin_carga_patrones_serpiete:
      23.  00:4BAB  C9                  		RET
      24.  00:4BAC                      
      25.  00:4BAC                      carga_patrones_arana:
      26.  00:4BAC  21 FE A3            		LD			HL, sprite_arana
      27.  00:4BAF  11 80 39            		LD			DE, #3980
      28.  00:4BB2  01 40 00            		LD			BC, fin_sprite_arana - sprite_arana					;32 * 2 sprites de 4 x 4				
      29.  00:4BB5  CD 5C 00            		CALL		LDIRVM
      30.  00:4BB8                      fin_carga_patrones_arana:
      31.  00:4BB8  C9                  		RET
      32.  00:4BB9                      
      33.  00:4BB9                      carga_patrones_murcielago:
      34.  00:4BB9  21 3E A4            		LD			HL, sprite_murcielago
      35.  00:4BBC  11 C0 39            		LD			DE, #39C0
      36.  00:4BBF  01 40 00            		LD			BC, fin_sprite_murcielago - sprite_murcielago
      37.  00:4BC2  CD 5C 00            		CALL		LDIRVM
      38.  00:4BC5                      fin_carga_patrones_murcielago:
      39.  00:4BC5  C9                  		RET
      40.  00:4BC6                      
      41.  00:4BC6                      carga_patrones_lobo:
      42.  00:4BC6  21 7E A4            		LD			HL, sprite_lobo
      43.  00:4BC9  11 00 3A            		LD			DE, #3A00
      44.  00:4BCC  01 00 01            		LD			BC, fin_sprite_lobo - sprite_lobo
      45.  00:4BCF  CD 5C 00            		CALL		LDIRVM
      46.  00:4BD2                      fin_carga_patrones_lobo:
      47.  00:4BD2  C9                  		RET
      48.  00:4BD3                      
      49.  00:4BD3                      carga_patrones_esqueleto:
      50.  00:4BD3  21 7E A5            		LD			HL, sprite_esqueleto
      51.  00:4BD6  11 00 3B            		LD			DE, #3B00
      52.  00:4BD9  01 00 01            		LD			BC, fin_sprite_esqueleto - sprite_esqueleto
      53.  00:4BDC  CD 5C 00            		CALL		LDIRVM
      54.  00:4BDF                      fin_carga_patrones_esqueleto:
      55.  00:4BDF  C9                  		RET
      56.  00:4BE0                      
      57.  00:4BE0                      carga_patrones_zombi:
      58.  00:4BE0  21 7E A6            		LD			HL, sprite_zombi
      59.  00:4BE3  11 00 3C            		LD			DE, #3C00
      60.  00:4BE6  01 00 01            		LD			BC, fin_sprite_zombi - sprite_zombi
      61.  00:4BE9  CD 5C 00            		CALL		LDIRVM
      62.  00:4BEC                      fin_carga_patrones_zombi:
      63.  00:4BEC  C9                  		RET
      64.  00:4BED                      
      65.  00:4BED                      carga_patrones_fantasma:
      66.  00:4BED  21 7E A7            		LD			HL, sprite_fantasma
      67.  00:4BF0  11 00 3D            		LD			DE, #3D00
      68.  00:4BF3  01 80 00            		LD			BC, fin_sprite_fantasma - sprite_fantasma
      69.  00:4BF6  CD 5C 00            		CALL		LDIRVM
      70.  00:4BF9                      fin_carga_patrones_fantasma:
      71.  00:4BF9  C9                  		RET
      72.  00:4BFA                      
      73.  00:4BFA                      carga_patrones_caballero:
      74.  00:4BFA  21 FE A7            		LD			HL, sprite_caballero
      75.  00:4BFD  11 00 3A            		LD			DE, #3A00
      76.  00:4C00  01 00 01            		LD			BC, fin_sprite_caballero - sprite_caballero
      77.  00:4C03  CD 5C 00            		CALL		LDIRVM
      78.  00:4C06                      fin_carga_patrones_caballero:
      79.  00:4C06  C9                  		RET
      80.  00:4C07                      
      81.  00:4C07                      carga_patrones_fuego:
      82.  00:4C07  21 FE A8            		LD			HL, sprite_fuego
      83.  00:4C0A  11 80 3D            		LD			DE, #3D80
      84.  00:4C0D  01 80 00            		LD			BC, fin_sprite_fuego - sprite_fuego
      85.  00:4C10  CD 5C 00            		CALL		LDIRVM
      86.  00:4C13                      fin_carga_patrones_fuego:
      87.  00:4C13  C9                  		RET
      88.  00:4C14                      
      89.  00:4C14                      carga_patrones_magia:
      90.  00:4C14  21 7E A9            		LD			HL, sprite_magia
      91.  00:4C17  11 00 39            		LD			DE, #3900
      92.  00:4C1A  01 80 00            		LD			BC, fin_sprite_magia - sprite_magia
      93.  00:4C1D  CD 5C 00            		CALL		LDIRVM
      94.  00:4C20                      fin_carga_patrones_magia:
      95.  00:4C20  C9                  		RET
      96.  00:4C21                      
      97.  00:4C21                      carga_patrones_jefelobo:
      98.  00:4C21  21 FE A9            		LD			HL, sprite_jefelobo
      99.  00:4C24  11 00 3E            		LD			DE, #3E00
     100.  00:4C27  01 00 02            		LD			BC, fin_sprite_jefelobo - sprite_jefelobo
     101.  00:4C2A  CD 5C 00            		CALL		LDIRVM
     102.  00:4C2D                      fin_carga_patrones_jefelobo:
     103.  00:4C2D  C9                  		RET
     104.  00:4C2E                      
     105.  00:4C2E                      carga_patrones_jefemurcielago:
     106.  00:4C2E  21 FE AB            		LD			HL, sprite_jefemurcielago
     107.  00:4C31  11 00 3F            		LD			DE, #3F00
     108.  00:4C34  01 00 01            		LD			BC, fin_sprite_jefemurcielago - sprite_jefemurcielago
     109.  00:4C37  CD 5C 00            		CALL		LDIRVM
     110.  00:4C3A                      fin_carga_patrones_jefemurcielago:
     111.  00:4C3A  C9                  		RET
     112.  00:4C3B                      
     113.  00:4C3B                      carga_patrones_jefefantasma:
     114.  00:4C3B  21 FE AC            		LD			HL, sprite_jefefantasma
     115.  00:4C3E  11 00 3F            		LD			DE, #3F00
     116.  00:4C41  01 00 01            		LD			BC, fin_sprite_jefefantasma - sprite_jefefantasma
     117.  00:4C44  CD 5C 00            		CALL		LDIRVM
     118.  00:4C47                      fin_carga_patrones_jefefantasma:
     119.  00:4C47  C9                  		RET
     120.  00:4C48                      
     121.  00:4C48                      carga_patrones_jefezombi:
     122.  00:4C48  21 FE AD            		LD			HL, sprite_jefezombi
     123.  00:4C4B  11 00 3E            		LD			DE, #3E00
     124.  00:4C4E  01 00 02            		LD			BC, fin_sprite_jefezombi - sprite_jefezombi
     125.  00:4C51  CD 5C 00            		CALL		LDIRVM
     126.  00:4C54                      fin_carga_patrones_jefezombi:
     127.  00:4C54  C9                  		RET
     128.  00:4C55                      
     129.  00:4C55                      carga_patrones_jefecaballero:
     130.  00:4C55  21 FE AF            		LD			HL, sprite_jefecaballero
     131.  00:4C58  11 00 3E            		LD			DE, #3E00
     132.  00:4C5B  01 00 02            		LD			BC, fin_sprite_jefecaballero - sprite_jefecaballero
     133.  00:4C5E  CD 5C 00            		CALL		LDIRVM
     134.  00:4C61                      fin_carga_patrones_jefecaballero:
     135.  00:4C61  C9                  		RET
     136.  00:4C62                      
     137.  00:4C62                      carga_patrones_jefebeholder:
     138.  00:4C62  21 FE B1            		LD			HL, sprite_jefebeholder
     139.  00:4C65  11 00 3F            		LD			DE, #3F00
     140.  00:4C68  01 00 01            		LD			BC, fin_sprite_jefebeholder - sprite_jefebeholder
     141.  00:4C6B  CD 5C 00            		CALL		LDIRVM
     142.  00:4C6E                      fin_carga_patrones_jefebeholder:
     143.  00:4C6E  C9                  		RET
     144.  00:4C6F                      
     145.  00:4C6F                      carga_patrones_condecompleto:
     146.  00:4C6F  21 FE B2            		LD			HL, sprite_manoizquierda
     147.  00:4C72  11 00 3F            		LD			DE, #3F00
     148.  00:4C75  01 00 01            		LD			BC, fin_sprite_conde - sprite_manoizquierda
     149.  00:4C78  CD 5C 00            		CALL		LDIRVM
     150.  00:4C7B                      fin_carga_patrones_condecompleto
     151.  00:4C7B  C9                  		RET
     152.  00:4C7C                      		
     153.  00:4C7C                      
     154.  00:4C7C                      ;;=====================================================
     155.  00:4C7C                      ;;CARGA_PATRONES_SPRITES_NIVEL
     156.  00:4C7C                      ;;=====================================================	
     157.  00:4C7C                      ; función: 	examina el nivel y carga los patrones específicos necesarios
     158.  00:4C7C                      ; entrada: 	-
     159.  00:4C7C                      ; salida: 	-
     160.  00:4C7C                      ; toca: 	-
     161.  00:4C7C                      carga_patrones_sprites_nivel:
     162.  00:4C7C  CD E8 4C            		CALL 		carga_patrones_nivel_comunes
     163.  00:4C7F                      
     164.  00:4C7F  3A 00 C0            		LD		 	 A, (prota_nivel)
     165.  00:4C82  B7                  		OR		 	 A
     166.  00:4C83                      		;carga patrones no comunes según nivel donde está el prota
     167.  00:4C83  C2 8A 4C            		JP		 	NZ, .examina_nivel1
     168.  00:4C86  CD F4 4C            		CALL		carga_patrones_sprites_nivel0	
     169.  00:4C89  C9                  		RET
     170.  00:4C8A                      .examina_nivel1:
     171.  00:4C8A  3D                  		DEC			 A
     172.  00:4C8B  C2 92 4C            		JP			NZ, .examina_nivel2
     173.  00:4C8E  CD 06 4D            		CALL		carga_patrones_sprites_nivel1
     174.  00:4C91  C9                  		RET
     175.  00:4C92                      .examina_nivel2:
     176.  00:4C92  3D                  		DEC			 A
     177.  00:4C93  C2 9A 4C            		JP			NZ, .examina_nivel3
     178.  00:4C96  CD 1B 4D            		CALL		carga_patrones_sprites_nivel2
     179.  00:4C99  C9                  		RET
     180.  00:4C9A                      .examina_nivel3:
     181.  00:4C9A  3D                  		DEC			 A
     182.  00:4C9B  C2 A2 4C            		JP			NZ, .examina_nivel4
     183.  00:4C9E  CD 30 4D            		CALL		carga_patrones_sprites_nivel3
     184.  00:4CA1  C9                  		RET
     185.  00:4CA2                      .examina_nivel4:
     186.  00:4CA2  3D                  		DEC			 A
     187.  00:4CA3  C2 AA 4C            		JP			NZ, .examina_nivel5
     188.  00:4CA6  CD 45 4D            		CALL		carga_patrones_sprites_nivel4
     189.  00:4CA9  C9                  		RET
     190.  00:4CAA                      .examina_nivel5:
     191.  00:4CAA  3D                  		DEC			 A
     192.  00:4CAB  C2 B2 4C            		JP			NZ, .carga_nivel6
     193.  00:4CAE  CD 5A 4D            		CALL		carga_patrones_sprites_nivel5
     194.  00:4CB1  C9                  		RET
     195.  00:4CB2                      .carga_nivel6:
     196.  00:4CB2                      		;nota: el resto de esta función en teoría no sirve para nada y se cargan los sprites al entrar en cada habitación
     197.  00:4CB2                      		;en las funciones inicializa_enemigos_fase6_nivelX
     198.  00:4CB2                      .subnivel0:
     199.  00:4CB2  3A 04 C0            		LD			 A, (prota_pos_mapy)
     200.  00:4CB5  B7                  		OR			 A
     201.  00:4CB6  C2 BD 4C            		JP			NZ, .subnivel1
     202.  00:4CB9  CD 6F 4D            		CALL		carga_patrones_sprites_nivel6_nivel0
     203.  00:4CBC  C9                  		RET
     204.  00:4CBD                      .subnivel1:
     205.  00:4CBD  3D                  		DEC			 A
     206.  00:4CBE  C2 C5 4C            		JP			NZ, .subnivel2
     207.  00:4CC1  CD 72 4D            		CALL		carga_patrones_sprites_nivel6_nivel1
     208.  00:4CC4  C9                  		RET
     209.  00:4CC5                      .subnivel2:
     210.  00:4CC5  3D                  		DEC			 A
     211.  00:4CC6  C2 CD 4C            		JP			NZ, .subnivel3
     212.  00:4CC9  CD 75 4D            		CALL		carga_patrones_sprites_nivel6_nivel2
     213.  00:4CCC  C9                  		RET		
     214.  00:4CCD                      .subnivel3:
     215.  00:4CCD  3D                  		DEC			 A
     216.  00:4CCE  C2 D5 4C            		JP			NZ, .subnivel4
     217.  00:4CD1  CD 78 4D            		CALL		carga_patrones_sprites_nivel6_nivel3
     218.  00:4CD4  C9                  		RET
     219.  00:4CD5                      .subnivel4:
     220.  00:4CD5  3D                  		DEC			 A
     221.  00:4CD6  C2 DD 4C            		JP			NZ, .subnivel5
     222.  00:4CD9  CD 7B 4D            		CALL		carga_patrones_sprites_nivel6_nivel4
     223.  00:4CDC  C9                  		RET		
     224.  00:4CDD                      .subnivel5:
     225.  00:4CDD  3D                  		DEC			 A
     226.  00:4CDE  C2 E5 4C            		JP			NZ, .subnivel6
     227.  00:4CE1  CD 7E 4D            		CALL		carga_patrones_sprites_nivel6_nivel5
     228.  00:4CE4  C9                  		RET	
     229.  00:4CE5                      .subnivel6:
     230.  00:4CE5  C3 81 4D            		JP			carga_patrones_sprites_nivel6_nivel6
     231.  00:4CE8                      fin_carga_patrones_sprites_nivel:
     232.  00:4CE8                      
     233.  00:4CE8                      
     234.  00:4CE8                      ;;=====================================================
     235.  00:4CE8                      ;;CARGA_PATRONES_SPRITES_NIVEL_COMUNES
     236.  00:4CE8                      ;;=====================================================	
     237.  00:4CE8                      ; función: 	carga los patrones comunes en todos los niveles
     238.  00:4CE8                      ; entrada: 	-
     239.  00:4CE8                      ; salida: 	-
     240.  00:4CE8                      ; toca: 	-
     241.  00:4CE8                      carga_patrones_nivel_comunes:	
     242.  00:4CE8  21 9E A2            	LD		HL, sprites_comunes
     243.  00:4CEB  11 00 38            	LD		DE, SPRTBL
     244.  00:4CEE  01 A0 00            	LD		BC, fin_sprites_comunes-sprites_comunes
     245.  00:4CF1  C3 5C 00            	JP		LDIRVM
     246.  00:4CF4                      fin_carga_patrones_nivel_comunes:
     247.  00:4CF4                      
     248.  00:4CF4                      
     249.  00:4CF4                      ;;=====================================================
     250.  00:4CF4                      ;;CARGA_PATRONES_SPRITES_NIVEL X
     251.  00:4CF4                      ;;=====================================================	
     252.  00:4CF4                      ; función: 	copia los patrones de los sprites que se van a usar en el nivel X en vram
     253.  00:4CF4                      ; entrada: 	-
     254.  00:4CF4                      ; salida: 	-
     255.  00:4CF4                      ; toca: 	-
     256.  00:4CF4                      carga_patrones_sprites_nivel0:
     257.  00:4CF4  CD 92 4B            		CALL		carga_patrones_cienpies
     258.  00:4CF7  CD AC 4B            		CALL		carga_patrones_arana
     259.  00:4CFA  CD 9F 4B            		CALL		carga_patrones_serpiente
     260.  00:4CFD  CD B9 4B            		CALL		carga_patrones_murcielago
     261.  00:4D00  CD C6 4B            		CALL		carga_patrones_lobo
     262.  00:4D03  C3 21 4C            		JP			carga_patrones_jefelobo
     263.  00:4D06                      fin_carga_patrones_sprites_nivel0:
     264.  00:4D06                      	
     265.  00:4D06                      carga_patrones_sprites_nivel1:		
     266.  00:4D06  CD 9F 4B            		CALL		carga_patrones_serpiente
     267.  00:4D09  CD AC 4B            		CALL		carga_patrones_arana
     268.  00:4D0C  CD B9 4B            		CALL		carga_patrones_murcielago
     269.  00:4D0F  CD C6 4B            		CALL		carga_patrones_lobo
     270.  00:4D12  CD D3 4B            		CALL		carga_patrones_esqueleto
     271.  00:4D15  CD E0 4B            		CALL		carga_patrones_zombi
     272.  00:4D18  C3 2E 4C            		JP			carga_patrones_jefemurcielago
     273.  00:4D1B                      fin_carga_patrones_sprites_nivel1:
     274.  00:4D1B                      	
     275.  00:4D1B                      carga_patrones_sprites_nivel2:	
     276.  00:4D1B  CD 9F 4B            		CALL		carga_patrones_serpiente
     277.  00:4D1E  CD B9 4B            		CALL		carga_patrones_murcielago
     278.  00:4D21  CD C6 4B            		CALL		carga_patrones_lobo
     279.  00:4D24  CD D3 4B            		CALL		carga_patrones_esqueleto
     280.  00:4D27  CD E0 4B            		CALL		carga_patrones_zombi
     281.  00:4D2A  CD ED 4B            		CALL		carga_patrones_fantasma
     282.  00:4D2D  C3 3B 4C            		JP			carga_patrones_jefefantasma
     283.  00:4D30                      fin_carga_patrones_sprites_nivel2:
     284.  00:4D30                      	
     285.  00:4D30                      carga_patrones_sprites_nivel3:
     286.  00:4D30  CD 9F 4B            		CALL		carga_patrones_serpiente
     287.  00:4D33  CD AC 4B            		CALL		carga_patrones_arana
     288.  00:4D36  CD FA 4B            		CALL		carga_patrones_caballero
     289.  00:4D39  CD D3 4B            		CALL		carga_patrones_esqueleto
     290.  00:4D3C  CD E0 4B            		CALL		carga_patrones_zombi
     291.  00:4D3F  CD ED 4B            		CALL		carga_patrones_fantasma
     292.  00:4D42  C3 48 4C            		JP			carga_patrones_jefezombi
     293.  00:4D45                      fin_carga_patrones_sprites_nivel3:
     294.  00:4D45                      
     295.  00:4D45                      carga_patrones_sprites_nivel4:
     296.  00:4D45  CD B9 4B            		CALL		carga_patrones_murcielago
     297.  00:4D48  CD FA 4B            		CALL		carga_patrones_caballero
     298.  00:4D4B  CD D3 4B            		CALL		carga_patrones_esqueleto
     299.  00:4D4E  CD E0 4B            		CALL		carga_patrones_zombi
     300.  00:4D51  CD ED 4B            		CALL		carga_patrones_fantasma
     301.  00:4D54  CD 07 4C            		CALL		carga_patrones_fuego
     302.  00:4D57  C3 55 4C            		JP			carga_patrones_jefecaballero
     303.  00:4D5A                      fin_carga_patrones_sprites_nivel4:
     304.  00:4D5A                      
     305.  00:4D5A                      carga_patrones_sprites_nivel5:
     306.  00:4D5A  CD 14 4C            		CALL		carga_patrones_magia
     307.  00:4D5D  CD FA 4B            		CALL		carga_patrones_caballero
     308.  00:4D60  CD D3 4B            		CALL		carga_patrones_esqueleto
     309.  00:4D63  CD E0 4B            		CALL		carga_patrones_zombi
     310.  00:4D66  CD ED 4B            		CALL		carga_patrones_fantasma
     311.  00:4D69  CD 07 4C            		CALL		carga_patrones_fuego
     312.  00:4D6C  C3 62 4C            		JP			carga_patrones_jefebeholder
     313.  00:4D6F                      fin_carga_patrones_sprites_nivel5:
     314.  00:4D6F                      	
     315.  00:4D6F                      carga_patrones_sprites_nivel6_nivel0:
     316.  00:4D6F  C3 21 4C            		JP			carga_patrones_jefelobo
     317.  00:4D72                      fin_carga_patrones_sprites_nivel6_nivel0:
     318.  00:4D72                      
     319.  00:4D72                      carga_patrones_sprites_nivel6_nivel1:
     320.  00:4D72  C3 2E 4C            		JP			carga_patrones_jefemurcielago
     321.  00:4D75                      fin_carga_patrones_sprites_nivel6_nivel1:
     322.  00:4D75                      
     323.  00:4D75                      carga_patrones_sprites_nivel6_nivel2:
     324.  00:4D75  C3 3B 4C            		JP			carga_patrones_jefefantasma
     325.  00:4D78                      fin_carga_patrones_sprites_nivel6_nivel2:
     326.  00:4D78                      
     327.  00:4D78                      carga_patrones_sprites_nivel6_nivel3:
     328.  00:4D78  C3 48 4C            		JP			carga_patrones_jefezombi
     329.  00:4D7B                      fin_carga_patrones_sprites_nivel6_nivel3:
     330.  00:4D7B                      
     331.  00:4D7B                      carga_patrones_sprites_nivel6_nivel4:
     332.  00:4D7B  C3 55 4C            		JP			carga_patrones_jefecaballero
     333.  00:4D7E                      fin_carga_patrones_sprites_nivel6_nivel4:
     334.  00:4D7E                      
     335.  00:4D7E                      carga_patrones_sprites_nivel6_nivel5:
     336.  00:4D7E  C3 62 4C            		JP			carga_patrones_jefebeholder
     337.  00:4D81                      fin_carga_patrones_sprites_nivel6_nivel5:
     338.  00:4D81                      
     339.  00:4D81                      carga_patrones_sprites_nivel6_nivel6:
     340.  00:4D81  C3 6F 4C            		JP			carga_patrones_condecompleto
     341.  00:4D84                      fin_carga_patrones_sprites_nivel6_nivel6:
     342.  00:4D84                      
     343.  00:4D84                      
     344.  00:4D84                      ;;=====================================================
     345.  00:4D84                      ;;RENDER_SPRITES // ACTUALIZA_ARRAY_SPRITES_VRAM
     346.  00:4D84                      ;;=====================================================	
     347.  00:4D84                      ; función: 	copia el array con los valores de los sprites (pos, color, plano) en VRAM
     348.  00:4D84                      ; entrada: 	-
     349.  00:4D84                      ; salida: 	-
     350.  00:4D84                      ; toca: 	todos los registros. Como me interesa la velocidad, si necesito copiar de algo lo hago fuera
     351.  00:4D84                      render_sprites:
     352.  00:4D84                      	;volcando el array con toda la info de los sprites a la zona de atributos de sprites
     353.  00:4D84  21 E1 C0            	LD			HL, array_sprites
     354.  00:4D87  11 00 1B            	LD			DE, SPRART
     355.  00:4D8A  01 10 00            	LD			BC, 4 * 4			;32 sprites x 4 bytes controlando el sprite (Y, X, plano, color)
     356.  00:4D8D  CD 5C 00            	CALL		LDIRVM
     357.  00:4D90                      
     358.  00:4D90  21 E9 C0            	LD			HL, array_sprites_enem
     359.  00:4D93  11 08 1B            	LD			DE, SPRART + 8
     360.  00:4D96  01 70 00            	LD			BC, 4 * 28			;32 sprites x 4 bytes controlando el sprite (Y, X, plano, color)
     361.  00:4D99  C3 5C 00            	JP			LDIRVM
     362.  00:4D9C                      fin_actualiza_array_sprites_vram:
     363.  00:4D9C                      
     364.  00:4D9C                      
     365.  00:4D9C                      ;;=====================================================
     366.  00:4D9C                      ;;VUELCA_RESULTADO_PUNTOMIRA_ARRAY
     367.  00:4D9C                      ;;=====================================================	
     368.  00:4D9C                      ; función: 	coloca los valores del punto de mira en la variable array_sprites para ser volcados en VRAM
     369.  00:4D9C                      ; entrada: 	array_sprites_pm, puntomira
     370.  00:4D9C                      ; salida: 	-
     371.  00:4D9C                      ; toca: 	-
     372.  00:4D9C                      vuelca_resultado_puntomira_array:
     373.  00:4D9C  DD 21 E1 C0         	LD			IX, array_sprites_pm
     374.  00:4DA0  FD 21 1B C2         	LD			IY, puntomira
     375.  00:4DA4                      	;posición y de los dos sprites que conforman el punto de mira
     376.  00:4DA4  FD 7E 01            	LD			 A, (IY + ESTRUCTURA_PUNTOMIRA.posy)
     377.  00:4DA7  DD 77 00            	LD			(IX  ), A
     378.  00:4DAA  DD 77 04            	LD			(IX+4), A
     379.  00:4DAD                      	;posición x de los dos sprites que conforman el punto de mira
     380.  00:4DAD  FD 7E 00            	LD			 A, (IY + ESTRUCTURA_PUNTOMIRA.posx)
     381.  00:4DB0  DD 77 01            	LD			(IX+1), A
     382.  00:4DB3  DD 77 05            	LD			(IX+5), A
     383.  00:4DB6                      	;plano
     384.  00:4DB6  FD 7E 05            	LD			 A, (IY + ESTRUCTURA_PUNTOMIRA.spritea)
     385.  00:4DB9  DD 77 02            	LD			(IX+2), A
     386.  00:4DBC  FD 7E 06            	LD			 A, (IY + ESTRUCTURA_PUNTOMIRA.spriteb)
     387.  00:4DBF  DD 77 06            	LD			(IX+6), A
     388.  00:4DC2                      	;color
     389.  00:4DC2  FD 7E 02            	LD			 A, (IY + ESTRUCTURA_PUNTOMIRA.escena)
     390.  00:4DC5  B7                  	OR			 A
     391.  00:4DC6  C2 D2 4D            	JP			NZ,.codigo_color_2
     392.  00:4DC9                      .codigo_color_1:
     393.  00:4DC9  DD 36 03 0F         	LD			(IX+3), COLBLANCO
     394.  00:4DCD  DD 36 07 08         	LD			(IX+7), COLROJO
     395.  00:4DD1  C9                  	RET
     396.  00:4DD2                      .codigo_color_2:
     397.  00:4DD2  DD 36 03 08         	LD			(IX+3), COLROJO
     398.  00:4DD6  DD 36 07 0F         	LD			(IX+7), COLBLANCO
     399.  00:4DDA  C9                  	RET
     400.  00:4DDB                      fin_vuelca_resultado_puntomira_array:
     401.  00:4DDB                      
     402.  00:4DDB                      
     403.  00:4DDB                      ;;=====================================================
     404.  00:4DDB                      ;;CHECK_PLAYER
     405.  00:4DDB                      ;;=====================================================	
     406.  00:4DDB                      ; función: 	MIRA EL CONTROL Y APLICA LA LOGICA DE MOVIMIENTO DEL PROTAGONISTA
     407.  00:4DDB                      ; entrada: 	-
     408.  00:4DDB                      ; salida: 	-
     409.  00:4DDB                      ; toca: 	A
     410.  00:4DDB                      check_player:
     411.  00:4DDB  CD A9 51            		CALL		update_controllers_status
     412.  00:4DDE  B7                  		OR			 A
     413.  00:4DDF  C8                  		RET			 Z					;si no se ha pulsado nada no se necesita mirar nada
     414.  00:4DE0                      
     415.  00:4DE0  DD 21 1B C2         		LD			IX, puntomira		;variable de entrada para las subrutinas mueve_dirección
     416.  00:4DE4  CB 1F               		RR			 A
     417.  00:4DE6  DC 4F 51            		CALL		 C, mueve_arriba
     418.  00:4DE9  CB 1F               		RR			 A
     419.  00:4DEB  DC 6B 51            		CALL		 C, mueve_abajo
     420.  00:4DEE  CB 1F               		RR			 A
     421.  00:4DF0  DC 7A 51            		CALL		 C, mueve_izquierda
     422.  00:4DF3  CB 1F               		RR			 A
     423.  00:4DF5  DC 5C 51            		CALL		 C, mueve_derecha
     424.  00:4DF8                      	
     425.  00:4DF8                      		;zona para mirar disparo Recibe A que tendrá 0000 0 0 X-letra M X-espacio 
     426.  00:4DF8  CD 87 51            		CALL		mira_disparo
     427.  00:4DFB                      
     428.  00:4DFB  C3 9C 4D            		JP			vuelca_resultado_puntomira_array
     429.  00:4DFE                      fin_check_player:
     430.  00:4DFE                      
     431.  00:4DFE                      
     176   00:4DFE                      	
     177   00:4DFE                      	include "subr_ayudas.asm"
       1.  00:4DFE                      ;;=====================================================
       2.  00:4DFE                      ;;SUBRUTINAS MANEJO DE OBJETOS AYUDA
       3.  00:4DFE                      ;;=====================================================	
       4.  00:4DFE                      
       5.  00:4DFE                      
       6.  00:4DFE                      ;;=====================================================
       7.  00:4DFE                      ;;CONTANTES AYUDAS
       8.  00:4DFE                      ;;=====================================================
       9.  00:4DFE                      ;array de ayudas
      10.  00:4DFE                      ;posición dentro del bank1 (o 0 que son iguales) de los tiles de la ayuda (cómo en los sprites de 2x2)
      11.  00:4DFE                      array_ayudas:
      12.  00:4DFE  C8 CA               array_oracionon:			DB	200,202
      13.  00:4E00  C9 CB               array_oracionon1:			DB	201,203
      14.  00:4E02  CC CE               array_oracionoff:			DB	204,206
      15.  00:4E04  CD CF               array_oracionoff1:			DB	205,207
      16.  00:4E06  D0 D2               array_cruzon:				DB	208,210
      17.  00:4E08  D1 D3               array_cruzon1:				DB	209,211
      18.  00:4E0A  D4 D6               array_cruzoff:				DB	212,214
      19.  00:4E0C  D5 D7               array_cruzoff1:				DB	213,215
      20.  00:4E0E  D8 DA               array_aguaon:				DB	216,218
      21.  00:4E10  D9 DB               array_aguaon1:				DB	217,219
      22.  00:4E12  DC DE               array_aguaoff:				DB	220,222
      23.  00:4E14  DD DF               array_aguaoff1:				DB	221,223
      24.  00:4E16  E0 E2               array_armaduraon:			DB	224,226
      25.  00:4E18  E1 E3               array_armaduraon1:			DB	225,227
      26.  00:4E1A  E4 E6               array_armaduraoff:			DB	228,230
      27.  00:4E1C  E5 E7               array_armaduraoff1:			DB	229,231
      28.  00:4E1E  E8 EA               array_plantaon:				DB	232,234
      29.  00:4E20  E9 EB               array_plantaon1:			DB	233,235
      30.  00:4E22  EC EE               array_plantaoff:			DB	236,238
      31.  00:4E24  ED EF               array_plantaoff1:			DB	237,239
      32.  00:4E26  F0 F2               array_vidaextraon:			DB	240,242
      33.  00:4E28  F1 F3               array_vidaextraon1:			DB	241,243
      34.  00:4E2A  F4 F6               array_vidaextraoff:			DB	244,246
      35.  00:4E2C  F5 F7               array_vidaextraoff1:		DB	245,247
      36.  00:4E2E  F8 FA               array_ballestaon:			DB	248,250
      37.  00:4E30  F9 FB               array_ballestaon1:			DB	249,251
      38.  00:4E32  FC FE               array_ballestaoff:			DB	252,254
      39.  00:4E34  FD FF               array_ballestaoff1:			DB	253,255
      40.  00:4E36                      
      41.  00:4E36                      
      42.  00:4E36                      datos_ayudas:
      43.  00:4E36                      datos_oracion:			
      44.  00:4E36  01                  				DB		ACTIVA				;0 no activa <>0 activo (y muestra tiles ayudaoff)
      45.  00:4E37  38                  				DB		POSORACIONX			;punto x de la ayuda para cuando se dispare encima
      46.  00:4E38  58                  				DB		POSORACIONY			;punto y de la ayuda para cuando se dispare encima
      47.  00:4E39  08                  				DB		RADIOAYUDAX			;radio x de la ayuda para cuando se dispare encima
      48.  00:4E3A  08                  				DB		RADIOAYUDAY			;radio y de la ayuda para cuando se dispare encima
      49.  00:4E3B  1F 50               				DW		accion_oracion		;función para acción de cada tipo de ayuda
      50.  00:4E3D  FE 4D               				DW		array_oracionon		;puntero al array con los tiles de las ayudas sin usar para wordaux2
      51.  00:4E3F  02 4E               				DW		array_oracionoff	;puntero al array con los tiles de las ayudas sin usar para wordaux2
      52.  00:4E41  46 19               				DW		TILMAP + POSORACION ;calcula posición en tilemap para wordaux1
      53.  00:4E43  02                  				DB		ALTOAYUDA			;alto en tiles del dibujo de la puerta (filas)
      54.  00:4E44  02                  				DB		ANCHOAYUDA			;ancho en tiles del dibujo de la puerta (columnas)
      55.  00:4E45                      
      56.  00:4E45                      datos_cruz:
      57.  00:4E45  01                  				DB		ACTIVA				;0 no activa <>0 activo (y muestra tiles ayudaoff)
      58.  00:4E46  20                  				DB		POSCRUZX			;punto x de la ayuda para cuando se dispare encima
      59.  00:4E47  70                  				DB		POSCRUZY			;punto y de la ayuda para cuando se dispare encima
      60.  00:4E48  08                  				DB		RADIOAYUDAX			;radio x de la ayuda para cuando se dispare encima
      61.  00:4E49  08                  				DB		RADIOAYUDAY			;radio y de la ayuda para cuando se dispare encima
      62.  00:4E4A  42 50               				DW		accion_cruz			;función para acción de cada tipo de ayuda
      63.  00:4E4C  06 4E               				DW		array_cruzon		;puntero al array con los tiles de las ayudas sin usar para wordaux2
      64.  00:4E4E  0A 4E               				DW		array_cruzoff		;puntero al array con los tiles de las ayudas sin usar para wordaux2
      65.  00:4E50  A3 19               				DW		TILMAP + POSCRUZ	;calcula posición en tilemap para wordaux1
      66.  00:4E52  02                  				DB		ALTOAYUDA			;alto en tiles del dibujo de la puerta (filas)
      67.  00:4E53  02                  				DB		ANCHOAYUDA			;ancho en tiles del dibujo de la puerta (columnas)
      68.  00:4E54                      					
      69.  00:4E54                      datos_aguabendita:
      70.  00:4E54  01                  				DB		ACTIVA				;0 no activa <>0 activo (y muestra tiles ayudaoff)
      71.  00:4E55  58                  				DB		POSAGUAX			;punto x de la ayuda para cuando se dispare encima
      72.  00:4E56  60                  				DB		POSAGUAY			;punto y de la ayuda para cuando se dispare encima
      73.  00:4E57  08                  				DB		RADIOAYUDAX			;radio x de la ayuda para cuando se dispare encima
      74.  00:4E58  08                  				DB		RADIOAYUDAY			;radio y de la ayuda para cuando se dispare encima
      75.  00:4E59  6C 50               				DW		accion_aguabendita	;función para acción de cada tipo de ayuda
      76.  00:4E5B  0E 4E               				DW		array_aguaon		;puntero al array con los tiles de las ayudas sin usar para wordaux2
      77.  00:4E5D  12 4E               				DW		array_aguaoff		;puntero al array con los tiles de las ayudas sin usar para wordaux2
      78.  00:4E5F  6A 19               				DW		TILMAP + POSAGUA	;calcula posición en tilemap para wordaux1
      79.  00:4E61  02                  				DB		ALTOAYUDA			;alto en tiles del dibujo de la puerta (filas)
      80.  00:4E62  02                  				DB		ANCHOAYUDA			;ancho en tiles del dibujo de la puerta (columnas)
      81.  00:4E63                      
      82.  00:4E63                      datos_armadura:
      83.  00:4E63  01                  				DB		ACTIVA				;0 no activa <>0 activo (y muestra tiles ayudaoff)
      84.  00:4E64  60                  				DB		POSARMADURAX		;punto x de la ayuda para cuando se dispare encima
      85.  00:4E65  70                  				DB		POSARMADURAY		;punto y de la ayuda para cuando se dispare encima
      86.  00:4E66  08                  				DB		RADIOAYUDAX			;radio x de la ayuda para cuando se dispare encima
      87.  00:4E67  08                  				DB		RADIOAYUDAY			;radio y de la ayuda para cuando se dispare encima
      88.  00:4E68  96 50               				DW		accion_armadura		;función para acción de cada tipo de ayuda
      89.  00:4E6A  16 4E               				DW		array_armaduraon	;puntero al array con los tiles de las ayudas sin usar para wordaux2
      90.  00:4E6C  1A 4E               				DW		array_armaduraoff	;puntero al array con los tiles de las ayudas sin usar para wordaux2
      91.  00:4E6E  AB 19               				DW		TILMAP + POSARMADURA;calcula posición en tilemap para wordaux1
      92.  00:4E70  02                  				DB		ALTOAYUDA			;alto en tiles del dibujo de la puerta (filas)
      93.  00:4E71  02                  				DB		ANCHOAYUDA			;ancho en tiles del dibujo de la puerta (columnas)
      94.  00:4E72                      
      95.  00:4E72                      datos_planta:
      96.  00:4E72  01                  				DB		ACTIVA				;0 no activa <>0 activo (y muestra tiles ayudaoff)
      97.  00:4E73  90                  				DB		POSPLANTAX			;punto x de la ayuda para cuando se dispare encima
      98.  00:4E74  60                  				DB		POSPLANTAY			;punto y de la ayuda para cuando se dispare encima
      99.  00:4E75  08                  				DB		RADIOAYUDAX			;radio x de la ayuda para cuando se dispare encima
     100.  00:4E76  08                  				DB		RADIOAYUDAY			;radio y de la ayuda para cuando se dispare encima
     101.  00:4E77  C0 50               				DW		accion_planta		;función para acción de cada tipo de ayuda
     102.  00:4E79  1E 4E               				DW		array_plantaon		;puntero al array con los tiles de las ayudas sin usar para wordaux2
     103.  00:4E7B  22 4E               				DW		array_plantaoff		;puntero al array con los tiles de las ayudas sin usar para wordaux2
     104.  00:4E7D  72 19               				DW		TILMAP + POSPLANTA	;calcula posición en tilemap para wordaux1
     105.  00:4E7F  02                  				DB		ALTOAYUDA			;alto en tiles del dibujo de la puerta (filas)
     106.  00:4E80  02                  				DB		ANCHOAYUDA			;ancho en tiles del dibujo de la puerta (columnas)
     107.  00:4E81                      
     108.  00:4E81                      datos_vidaextra:
     109.  00:4E81  01                  				DB		ACTIVA				;0 no activa <>0 activo (y muestra tiles ayudaoff)
     110.  00:4E82  B8                  				DB		POSVIDAEXTX			;punto x de la ayuda para cuando se dispare encima
     111.  00:4E83  70                  				DB		POSVIDAEXTY			;punto y de la ayuda para cuando se dispare encima
     112.  00:4E84  08                  				DB		RADIOAYUDAX			;radio x de la ayuda para cuando se dispare encima
     113.  00:4E85  08                  				DB		RADIOAYUDAY			;radio y de la ayuda para cuando se dispare encima
     114.  00:4E86  DE 50               				DW		accion_vidaextra	;función para acción de cada tipo de ayuda
     115.  00:4E88  26 4E               				DW		array_vidaextraon	;puntero al array con los tiles de las ayudas sin usar para wordaux2
     116.  00:4E8A  2A 4E               				DW		array_vidaextraoff	;puntero al array con los tiles de las ayudas sin usar para wordaux2
     117.  00:4E8C  B6 19               				DW		TILMAP + POSVIDAEXT ;calcula posición en tilemap para wordaux1
     118.  00:4E8E  02                  				DB		ALTOAYUDA			;alto en tiles del dibujo de la puerta (filas)
     119.  00:4E8F  02                  				DB		ANCHOAYUDA			;ancho en tiles del dibujo de la puerta (columnas)
     120.  00:4E90                        
     121.  00:4E90                      datos_ballesta:
     122.  00:4E90  01                  				DB		ACTIVA				;0 no activa <>0 activo (y muestra tiles ayudaoff)
     123.  00:4E91  C8                  				DB		POSBALLESTAX		;punto x de la ayuda para cuando se dispare encima
     124.  00:4E92  58                  				DB		POSBALLESTAY		;punto y de la ayuda para cuando se dispare encima
     125.  00:4E93  08                  				DB		RADIOAYUDAX			;radio x de la ayuda para cuando se dispare encima
     126.  00:4E94  08                  				DB		RADIOAYUDAY			;radio y de la ayuda para cuando se dispare encima
     127.  00:4E95  FE 50               				DW		accion_ballesta		;función para acción de cada tipo de ayuda
     128.  00:4E97  2E 4E               				DW		array_ballestaon	;puntero al array con los tiles de las ayudas sin usar para wordaux2
     129.  00:4E99  32 4E               				DW		array_ballestaoff	;puntero al array con los tiles de las ayudas sin usar para wordaux2
     130.  00:4E9B  58 19               				DW		TILMAP + POSBALLESTA;calcula posición en tilemap para wordaux1
     131.  00:4E9D  02                  				DB		ALTOAYUDA			;alto en tiles del dibujo de la puerta (filas)
     132.  00:4E9E  02                  				DB		ANCHOAYUDA			;ancho en tiles del dibujo de la puerta (columnas)  
     133.  00:4E9F                      				
     134.  00:4E9F                      
     135.  00:4E9F                      ;;=====================================================
     136.  00:4E9F                      ;;INICIALIZA_AYUDAS
     137.  00:4E9F                      ;;=====================================================	
     138.  00:4E9F                      ; función: 	inicializa las variables de estructuras de ayuda del array lista_ayudas
     139.  00:4E9F                      ; entrada: 	datos_delasdistintasayudas, variable estructura_ayuda_ayudaquesea
     140.  00:4E9F                      ; salida: 	lista_ayudas
     141.  00:4E9F                      ; toca:		HL, DE, BC
     142.  00:4E9F                      inicializa_ayudas:
     143.  00:4E9F                      	;oracion
     144.  00:4E9F  21 36 4E            	LD		HL, datos_oracion
     145.  00:4EA2  11 64 C1            	LD		DE, ayuda_oracion
     146.  00:4EA5  CD DE 4E            	CALL	carga_datos_ayuda
     147.  00:4EA8                      
     148.  00:4EA8                      	;cruz
     149.  00:4EA8  21 45 4E            	LD		HL, datos_cruz
     150.  00:4EAB  11 73 C1            	LD		DE, ayuda_cruz
     151.  00:4EAE  CD DE 4E            	CALL	carga_datos_ayuda
     152.  00:4EB1                      
     153.  00:4EB1                      	;agua_bendita
     154.  00:4EB1  21 54 4E            	LD		HL, datos_aguabendita
     155.  00:4EB4  11 82 C1            	LD		DE, ayuda_aguabendita
     156.  00:4EB7  CD DE 4E            	CALL	carga_datos_ayuda
     157.  00:4EBA                      
     158.  00:4EBA                      	;armadura
     159.  00:4EBA  21 63 4E            	LD		HL, datos_armadura
     160.  00:4EBD  11 91 C1            	LD		DE, ayuda_armadura
     161.  00:4EC0  CD DE 4E            	CALL	carga_datos_ayuda
     162.  00:4EC3                      
     163.  00:4EC3                      	;planta
     164.  00:4EC3  21 72 4E            	LD		HL, datos_planta
     165.  00:4EC6  11 A0 C1            	LD		DE, ayuda_planta
     166.  00:4EC9  CD DE 4E            	CALL	carga_datos_ayuda
     167.  00:4ECC                      
     168.  00:4ECC                      	;vidaextra
     169.  00:4ECC  21 81 4E            	LD		HL, datos_vidaextra
     170.  00:4ECF  11 AF C1            	LD		DE, ayuda_vidaextra
     171.  00:4ED2  CD DE 4E            	CALL	carga_datos_ayuda
     172.  00:4ED5                      
     173.  00:4ED5                      	;ballesta
     174.  00:4ED5  21 90 4E            	LD		HL, datos_ballesta
     175.  00:4ED8  11 BE C1            	LD		DE, ayuda_ballesta
     176.  00:4EDB  C3 DE 4E            	JP		carga_datos_ayuda
     177.  00:4EDE                      fin_inicializa_ayudas:
     178.  00:4EDE                      	
     179.  00:4EDE                      
     180.  00:4EDE                      ;;=====================================================
     181.  00:4EDE                      ;;CARGA_DATOS_AYUDA
     182.  00:4EDE                      ;;=====================================================	
     183.  00:4EDE                      ; función: 	carga los datos de la ayuda de una variable dentro de la variable estructura (más carga y espacio que rellenar a pelo desde IX en adelante pero más simple)
     184.  00:4EDE                      ; entrada
     185.  00:4EDE                      ;  hl: origen de datos
     186.  00:4EDE                      ;  de: destino de datos
     187.  00:4EDE                      ; salida: 	-
     188.  00:4EDE                      ; toca:		HL, DE, BC
     189.  00:4EDE                      carga_datos_ayuda:
     190.  00:4EDE  01 0F 00            	LD		BC, 15;ESTRUCTURA_AYUDA ;equivale a 16.. el tamaño de la estructura en bytes
     191.  00:4EE1  ED B0               	LDIR
     192.  00:4EE3                      fin_carga_datos_ayuda:
     193.  00:4EE3  C9                  	RET
     194.  00:4EE4                      
     195.  00:4EE4                      
     196.  00:4EE4                      ;;=====================================================
     197.  00:4EE4                      ;;PINTA_OBJ_AYUDA
     198.  00:4EE4                      ;;=====================================================	
     199.  00:4EE4                      ; función: 	pinta un objeto de tipo ayuda que se le pase por referencia IX y el tipo en A
     200.  00:4EE4                      ; entrada: 	IX - puntero a objeto a mostrar, A - si está on u off
     201.  00:4EE4                      ; salida: 	-
     202.  00:4EE4                      ; toca:		AF, HL, BC, DE
     203.  00:4EE4                      pinta_obj_ayuda:
     204.  00:4EE4                      	;se recibe objeto desde fuera, por ejmplo LD IX, ayuda_oracion
     205.  00:4EE4                      
     206.  00:4EE4                      	;si A=1 dibujo on (si 0 off)
     207.  00:4EE4  B7                  	OR		 A
     208.  00:4EE5  C2 F4 4E            	JP		 NZ,.dibujooff
     209.  00:4EE8                      .dibujoon:	
     210.  00:4EE8  DD 6E 09            		LD		 L, (IX + ESTRUCTURA_AYUDA.tiles_ayudaoff)
     211.  00:4EEB  DD 66 0A            		LD		 H, (IX + ESTRUCTURA_AYUDA.tiles_ayudaoff + 1)
     212.  00:4EEE  22 D5 C1            		LD		(wordaux2), HL	;pongo el valor en wordaux2
     213.  00:4EF1  C3 FD 4E            		JP		.param_wordaux2
     214.  00:4EF4                      .dibujooff:
     215.  00:4EF4  DD 6E 07            		LD		 L, (IX + ESTRUCTURA_AYUDA.tiles_ayudaon)
     216.  00:4EF7  DD 66 08            		LD		 H, (IX + ESTRUCTURA_AYUDA.tiles_ayudaon + 1)
     217.  00:4EFA  22 D5 C1            		LD		(wordaux2), HL	;pongo el valor en wordaux2
     218.  00:4EFD                      ;fin si
     219.  00:4EFD                      .param_wordaux2:	
     220.  00:4EFD  DD 6E 0B            	LD		 L, (IX + ESTRUCTURA_AYUDA.pos_en_tilemap)
     221.  00:4F00  DD 66 0C            	LD		 H, (IX + ESTRUCTURA_AYUDA.pos_en_tilemap + 1)
     222.  00:4F03  22 D3 C1            	LD		(wordaux1), HL		;pongo el valor en wordaux1
     223.  00:4F06                      
     224.  00:4F06                      .filasycols:
     225.  00:4F06  3E 02               	LD		 A, 2
     226.  00:4F08                      	;se comenta para ahorrar tiempo (y porque habría que pasarlo previamente a A cuando siempre es 2)
     227.  00:4F08                      	;~ LD		(byteaux1), (IX + ESTRUCTURA_AYUDA.alto);nº de filas
     228.  00:4F08                      	;~ LD		(byteaux2), (IX + ESTRUCTURA_AYUDA.alto);nº de columnas
     229.  00:4F08  32 D7 C1            	LD		(byteaux1), A		;nº de filas
     230.  00:4F0B  32 D8 C1            	LD		(byteaux2), A		;nº de columnas
     231.  00:4F0E                      	
     232.  00:4F0E  C3 FA 45            	JP		pinta_array
     233.  00:4F11                      fin_pinta_obj_ayuda:
     234.  00:4F11                      
     235.  00:4F11                      
     236.  00:4F11                      ;;=====================================================
     237.  00:4F11                      ;;PINTA_AYUDAS_HABITACIÓN
     238.  00:4F11                      ;;=====================================================	
     239.  00:4F11                      ; función: 	examina el byte con las ayudas y pinta las que estén seleccionadas según variable habitacion_extras
     240.  00:4F11                      ; entrada: 	habitacion_extras
     241.  00:4F11                      ; salida: 	-
     242.  00:4F11                      pinta_ayudas_habitacion:
     243.  00:4F11  3A 61 C1            	LD		 A, (hay_ayudas_en_pantalla)
     244.  00:4F14  B7                  	OR		 A
     245.  00:4F15  C8                  	RET		 Z							;0 ya no hay ayudas activas (se actualiza cuando se usa la ayuda)
     246.  00:4F16                      	
     247.  00:4F16                      .examina_oracion:
     248.  00:4F16  3A 23 C2            	LD		 A, (habitacion_extras)
     249.  00:4F19  CB 7F               	BIT		 7, A						;bit 7 oracion
     250.  00:4F1B  CA 31 4F            	JP		 Z, .fin_examina_oracion	
     251.  00:4F1E                      	
     252.  00:4F1E  DD 21 64 C1         	LD		IX, ayuda_oracion
     253.  00:4F22                      	;puntero_ayuda_actual
     254.  00:4F22  DD 22 62 C1         	LD		(puntero_ayuda_actual), IX
     255.  00:4F26  3E 01               	LD		 A, ACTIVA
     256.  00:4F28  DD 77 00            	LD		(IX), A						;si lo pinta activo pone el bit a 1 por si el último lo puso a 0
     257.  00:4F2B  CD E4 4E            	CALL	pinta_obj_ayuda
     258.  00:4F2E  C3 D0 4F            	JP		fin_pinta_ayudas_habitacion
     259.  00:4F31                      .fin_examina_oracion:
     260.  00:4F31                      
     261.  00:4F31                      .examina_cruz:
     262.  00:4F31  3A 23 C2            	LD		 A, (habitacion_extras)
     263.  00:4F34  CB 77               	BIT		 6, A						;bit 6 cruz
     264.  00:4F36  CA 4C 4F            	JP		 Z, .fin_examina_cruz		
     265.  00:4F39                      	
     266.  00:4F39  DD 21 73 C1         	LD		IX, ayuda_cruz
     267.  00:4F3D                      	;puntero_ayuda_actual
     268.  00:4F3D  DD 22 62 C1         	LD		(puntero_ayuda_actual), IX
     269.  00:4F41  3E 01               	LD		 A, ACTIVA
     270.  00:4F43  DD 77 00            	LD		(IX), A						;si lo pinta activo pone el bit a 1 por si el último lo puso a 0
     271.  00:4F46  CD E4 4E            	CALL	pinta_obj_ayuda
     272.  00:4F49  C3 D0 4F            	JP		fin_pinta_ayudas_habitacion
     273.  00:4F4C                      .fin_examina_cruz:
     274.  00:4F4C                      
     275.  00:4F4C                      .examina_aguabendita:
     276.  00:4F4C  3A 23 C2            	LD		 A, (habitacion_extras)
     277.  00:4F4F  CB 6F               	BIT		 5, A						;bit 5 aguabendita
     278.  00:4F51  CA 67 4F            	JP		 Z, .fin_examina_aguabendita
     279.  00:4F54                      	
     280.  00:4F54  DD 21 82 C1         	LD		IX, ayuda_aguabendita
     281.  00:4F58                      	;puntero_ayuda_actual
     282.  00:4F58  DD 22 62 C1         	LD		(puntero_ayuda_actual), IX
     283.  00:4F5C  3E 01               	LD		 A, ACTIVA
     284.  00:4F5E  DD 77 00            	LD		(IX), A						;si lo pinta activo pone el bit a 1 por si el último lo puso a 0
     285.  00:4F61  CD E4 4E            	CALL	pinta_obj_ayuda
     286.  00:4F64  C3 D0 4F            	JP		fin_pinta_ayudas_habitacion
     287.  00:4F67                      .fin_examina_aguabendita:
     288.  00:4F67                      
     289.  00:4F67                      .examina_armadura:
     290.  00:4F67  3A 23 C2            	LD		 A, (habitacion_extras)
     291.  00:4F6A  CB 67               	BIT		 4, A						;bit 4 armadura
     292.  00:4F6C  CA 82 4F            	JP		 Z, .fin_examina_armadura
     293.  00:4F6F                      	
     294.  00:4F6F  DD 21 91 C1         	LD		IX, ayuda_armadura
     295.  00:4F73                      	;puntero_ayuda_actual
     296.  00:4F73  DD 22 62 C1         	LD		(puntero_ayuda_actual), IX
     297.  00:4F77  3E 01               	LD		 A, ACTIVA
     298.  00:4F79  DD 77 00            	LD		(IX), A						;si lo pinta activo pone el bit a 1 por si el último lo puso a 0
     299.  00:4F7C  CD E4 4E            	CALL	pinta_obj_ayuda
     300.  00:4F7F  C3 D0 4F            	JP		fin_pinta_ayudas_habitacion
     301.  00:4F82                      .fin_examina_armadura:
     302.  00:4F82                      
     303.  00:4F82                      .examina_planta:
     304.  00:4F82  3A 23 C2            	LD		 A, (habitacion_extras)
     305.  00:4F85  CB 5F               	BIT		 3, A						;bit 3 planta
     306.  00:4F87  CA 9D 4F            	JP		 Z, .fin_examina_planta
     307.  00:4F8A                      	
     308.  00:4F8A  DD 21 A0 C1         	LD		IX, ayuda_planta
     309.  00:4F8E                      	;puntero_ayuda_actual
     310.  00:4F8E  DD 22 62 C1         	LD		(puntero_ayuda_actual), IX
     311.  00:4F92  3E 01               	LD		 A, ACTIVA
     312.  00:4F94  DD 77 00            	LD		(IX), A						;si lo pinta activo pone el bit a 1 por si el último lo puso a 0
     313.  00:4F97  CD E4 4E            	CALL	pinta_obj_ayuda
     314.  00:4F9A  C3 D0 4F            	JP		fin_pinta_ayudas_habitacion
     315.  00:4F9D                      .fin_examina_planta:
     316.  00:4F9D                      
     317.  00:4F9D                      .examina_vidaextra:
     318.  00:4F9D  3A 23 C2            	LD		 A, (habitacion_extras)
     319.  00:4FA0  CB 57               	BIT		 2, A						;bit 2 planta
     320.  00:4FA2  CA B8 4F            	JP		 Z, .fin_examina_vidaextra
     321.  00:4FA5                      	
     322.  00:4FA5  DD 21 AF C1         	LD		IX, ayuda_vidaextra
     323.  00:4FA9                      	;puntero_ayuda_actual
     324.  00:4FA9  DD 22 62 C1         	LD		(puntero_ayuda_actual), IX
     325.  00:4FAD  3E 01               	LD		 A, ACTIVA
     326.  00:4FAF  DD 77 00            	LD		(IX), A						;si lo pinta activo pone el bit a 1 por si el último lo puso a 0
     327.  00:4FB2  CD E4 4E            	CALL	pinta_obj_ayuda
     328.  00:4FB5  C3 D0 4F            	JP		fin_pinta_ayudas_habitacion
     329.  00:4FB8                      .fin_examina_vidaextra:
     330.  00:4FB8                      
     331.  00:4FB8                      .examina_ballesta:
     332.  00:4FB8  3A 23 C2            	LD		 A, (habitacion_extras)
     333.  00:4FBB  CB 4F               	BIT		 1, A						;bit 2 planta
     334.  00:4FBD  CA D0 4F            	JP		 Z, fin_pinta_ayudas_habitacion
     335.  00:4FC0                      	
     336.  00:4FC0  DD 21 BE C1         	LD		IX, ayuda_ballesta
     337.  00:4FC4                      	;puntero_ayuda_actual
     338.  00:4FC4  DD 22 62 C1         	LD		(puntero_ayuda_actual), IX
     339.  00:4FC8  3E 01               	LD		 A, ACTIVA
     340.  00:4FCA  DD 77 00            	LD		(IX), A						;si lo pinta activo pone el bit a 1 por si el último lo puso a 0
     341.  00:4FCD  C3 E4 4E            	JP		pinta_obj_ayuda
     342.  00:4FD0                      .fin_examina_ballesta:
     343.  00:4FD0                      
     344.  00:4FD0                      fin_pinta_ayudas_habitacion:
     345.  00:4FD0  C9                  	RET
     346.  00:4FD1                      
     347.  00:4FD1                      
     348.  00:4FD1                      ;;=====================================================
     349.  00:4FD1                      ;;CHECK_COLISION_AYUDAS
     350.  00:4FD1                      ;;=====================================================	
     351.  00:4FD1                      ; función: 	revisa si ha habido disparo sobre la ayuda de pantalla
     352.  00:4FD1                      ; entrada: 	puntero_ayuda_actual
     353.  00:4FD1                      ; salida: 	-
     354.  00:4FD1                      ; toca:		todo
     355.  00:4FD1                      check_colision_ayudas:
     356.  00:4FD1  DD 2A 62 C1         	LD		IX, (puntero_ayuda_actual)
     357.  00:4FD5  DD 7E 00            	LD		 A, (IX)
     358.  00:4FD8  B7                  	OR		 A							;está activa la ayuda de pantalla?
     359.  00:4FD9  CA ED 4F            	JP		 Z, fin_check_colision_ayudas
     360.  00:4FDC                      	;SI
     361.  00:4FDC  CD EE 4F            		CALL	check_colision_ayuda	;aquí ya es cosa de ver colisiones prota/puerta_izquierda
     362.  00:4FDF                      		;recibe valor A
     363.  00:4FDF  F6 00               		OR		 0						;hubo colisión?
     364.  00:4FE1  C8                  		RET		 Z						;no hubo colisión por lo que sale
     365.  00:4FE2                      		;hubo colisión
     366.  00:4FE2                      		;EJECUTA ACCIÓN Y SALE DE LA RUTINA	
     367.  00:4FE2  21 ED 4F            		LD		HL, fin_check_colision_ayudas ;se guarda dónde volver
     368.  00:4FE5  E5                  		PUSH	HL
     369.  00:4FE6  DD 6E 05            		LD		 L, (IX + ESTRUCTURA_AYUDA.accion)
     370.  00:4FE9  DD 66 06            		LD		 H, (IX + ESTRUCTURA_AYUDA.accion + 1)
     371.  00:4FEC  E9                  		JP		(HL)
     372.  00:4FED                      	;FINSI
     373.  00:4FED                      fin_check_colision_ayudas:
     374.  00:4FED  C9                  	RET
     375.  00:4FEE                      	
     376.  00:4FEE                      
     377.  00:4FEE                      ;;=====================================================
     378.  00:4FEE                      ;;CHECK_COLISION_AYUDA
     379.  00:4FEE                      ;;=====================================================	
     380.  00:4FEE                      ; función: 	revisa la distancia con ayuda para ver si se disparó a la ayuda activa
     381.  00:4FEE                      ; entrada: 	IX con el puntero a la puerta que se examina
     382.  00:4FEE                      ; salida: 	A (0 no hay colisión con puerta / 1 sí la hay)
     383.  00:4FEE                      ; toca:		HL,BC, DE
     384.  00:4FEE                      check_colision_ayuda:
     385.  00:4FEE                      .deteccioncolision_paso1:
     386.  00:4FEE  FD 21 1B C2         	LD		IY, puntomira	;IY punto de mira / IX puerta
     387.  00:4FF2  FD 7E 00            	LD		 A, (IY + ESTRUCTURA_PUNTOMIRA.posx)
     388.  00:4FF5  C6 08               	ADD		 8			;8-es fijo, offset del punto de mira ya que se mueve según la esquina superior izquierda y el centro del punto de mira está en el centro del sprite
     389.  00:4FF7                      	
     390.  00:4FF7                      	;ya tengo en A la coordenada X del centro del punto de mira					
     391.  00:4FF7  DD 96 01            	SUB		(IX + ESTRUCTURA_AYUDA.posx)	;le resto el punto x en la puerta
     392.  00:4FFA                      	
     393.  00:4FFA  D2 FF 4F            	JP		NC, .deteccioncolision_paso2	;si no es negativo comparo con el radio
     394.  00:4FFD                      
     395.  00:4FFD  ED 44               	NEG										;si es negativo lo niego (valor absoluto)
     396.  00:4FFF                      	
     397.  00:4FFF                      .deteccioncolision_paso2:
     398.  00:4FFF  DD BE 03            	CP		(IX + ESTRUCTURA_AYUDA.radiox)	;comparo con el radio X de la puerta
     399.  00:5002                      	
     400.  00:5002  DA 07 50            	JP		 C, .deteccioncolision_paso3	;SI NC la distancia es >= por lo que sale y no es necesario verificar nada más
     401.  00:5005                      	
     402.  00:5005  AF                  	XOR		 A								;el resultado es falso y se guarda en A y ya no hay que seguir coprobando
     403.  00:5006  C9                  	RET
     404.  00:5007                      	
     405.  00:5007                      .deteccioncolision_paso3:					;la distancia X es válida, comprobamos la distancia Y
     406.  00:5007  FD 7E 01            	LD		 A, (IY + ESTRUCTURA_PUNTOMIRA.posy)
     407.  00:500A  C6 08               	ADD		 8								;le sumo el offset del punto de mira (8 es fijo)
     408.  00:500C                      
     409.  00:500C                      	;ya tengo en A la coordenada Y del centro del punto de mira					
     410.  00:500C  DD 96 02            	SUB		(IX + ESTRUCTURA_AYUDA.posy)	;le resto el punto y en la puerta
     411.  00:500F                      	
     412.  00:500F  D2 14 50            	JP		NC, .deteccioncolision_paso4	;si no es negativo comparo con el radio
     413.  00:5012                      
     414.  00:5012  ED 44               	NEG										;si es negativo lo niego (valor absoluto)
     415.  00:5014                      
     416.  00:5014                      .deteccioncolision_paso4:
     417.  00:5014  DD BE 04            	CP		(IX + ESTRUCTURA_AYUDA.radioy)	;comparo con el radio Y de la puerta
     418.  00:5017                      
     419.  00:5017  DA 1C 50            	JP		 C, .deteccioncolision_paso5	;SI NC la distancia es >= por lo que sale y no es necesario verificar nada más
     420.  00:501A                      	
     421.  00:501A  AF                  	XOR		 A								;el resultado es falso y se guarda en A un 0 y al ser la 2º comprobación salimos
     422.  00:501B  C9                  	RET
     423.  00:501C                      
     424.  00:501C                      .deteccioncolision_paso5:
     425.  00:501C  3E 01               	LD		 A, SI
     426.  00:501E                      fin_check_colision_ayuda:
     427.  00:501E  C9                  	RET
     428.  00:501F                      
     429.  00:501F                      
     430.  00:501F                      ;;=====================================================
     431.  00:501F                      ;;ACCION_ORACION
     432.  00:501F                      ;;=====================================================	
     433.  00:501F                      ; función: 	añade una reliquia máximo 8 (no puede tener más)
     434.  00:501F                      ; entrada: 	puntero_extras_habitacion_actual, puntero_ayuda_actual, prota_reliquias
     435.  00:501F                      ; salida: 	-
     436.  00:501F                      accion_oracion:
     437.  00:501F  2A 27 C2            	LD		HL, (puntero_extras_habitacion_actual)
     438.  00:5022  7E                  	LD		 A, (HL)
     439.  00:5023  CB BF               	RES		 7, A					;elimino la ayuda del mapa, personalizar para cada ayuda
     440.  00:5025  77                  	LD		(HL), A
     441.  00:5026  AF                  	XOR		 A
     442.  00:5027  32 23 C2            	LD		(habitacion_extras), A	;para no tener que verificar ayudas
     443.  00:502A                      	
     444.  00:502A                      	;desactiva ayuda
     445.  00:502A  DD 2A 62 C1         	LD		IX, (puntero_ayuda_actual)
     446.  00:502E  AF                  	XOR		 A
     447.  00:502F  DD 77 00            	LD		(IX), A
     448.  00:5032  CD E4 4E            	CALL	pinta_obj_ayuda			;se le pasa A = 0 para que pinte desactivado
     449.  00:5035                      	
     450.  00:5035  3A 02 C0            	LD		 A, (prota_reliquias)
     451.  00:5038  FE 08               	CP		 A, 8
     452.  00:503A  C8                  	RET		 Z
     453.  00:503B                      	
     454.  00:503B  3C                  	INC		 A						;suma una reliquia
     455.  00:503C  32 02 C0            	LD		 (prota_reliquias), A
     456.  00:503F                      	
     457.  00:503F  C3 88 44            	JP		pinta_reliquias			;pinta la energia en pantalla
     458.  00:5042                      fin_accion_oracion:
     459.  00:5042                      
     460.  00:5042                      
     461.  00:5042                      ;;=====================================================
     462.  00:5042                      ;;ACCION_CRUZ
     463.  00:5042                      ;;=====================================================	
     464.  00:5042                      ; función: 	añade 2 reliquias máximo 8 (no puede tener más)
     465.  00:5042                      ; entrada: 	puntero_extras_habitacion_actual, puntero_ayuda_actual, prota_reliquias
     466.  00:5042                      ; salida: 	-
     467.  00:5042                      accion_cruz:
     468.  00:5042  2A 27 C2            	LD		HL, (puntero_extras_habitacion_actual)
     469.  00:5045  7E                  	LD		 A, (HL)
     470.  00:5046  CB B7               	RES		 6, A					;elimino la ayuda del mapa, personalizar para cada ayuda
     471.  00:5048  77                  	LD		(HL), A
     472.  00:5049  AF                  	XOR		 A
     473.  00:504A  32 23 C2            	LD		(habitacion_extras), A	;para no tener que verificar ayudas
     474.  00:504D                      	
     475.  00:504D                      	;desactiva ayuda
     476.  00:504D  DD 2A 62 C1         	LD		IX, (puntero_ayuda_actual)
     477.  00:5051  AF                  	XOR		 A
     478.  00:5052  DD 77 00            	LD		(IX), A
     479.  00:5055  CD E4 4E            	CALL	pinta_obj_ayuda			;se le pasa A = 0 para que pinte desactivado
     480.  00:5058                      	
     481.  00:5058  3A 02 C0            	LD		 A, (prota_reliquias)
     482.  00:505B  FE 06               	CP		 6
     483.  00:505D  30 05               	JR		NC, .max_reliquias
     484.  00:505F                      .suma_reliquias
     485.  00:505F  C6 02               	ADD		 2						;suma 2 reliquias
     486.  00:5061  C3 66 50            	JP		.fin_suma_reliquias
     487.  00:5064                      .max_reliquias
     488.  00:5064  3E 08               	LD		 A, 8					;aplica el máx. de reliquias 8
     489.  00:5066                      .fin_suma_reliquias
     490.  00:5066  32 02 C0            	LD		(prota_reliquias), A
     491.  00:5069                      	
     492.  00:5069  C3 88 44            	JP		pinta_reliquias			;pinta la energia en pantalla
     493.  00:506C                      fin_accion_cruz:
     494.  00:506C                      	
     495.  00:506C                      
     496.  00:506C                      ;;=====================================================
     497.  00:506C                      ;;ACCION_AGUABEDITA
     498.  00:506C                      ;;=====================================================	
     499.  00:506C                      ; función: 	añade 3 reliquias máximo 8 (no puede tener más)
     500.  00:506C                      ; entrada: 	puntero_extras_habitacion_actual, puntero_ayuda_actual, prota_reliquias
     501.  00:506C                      ; salida: 	-
     502.  00:506C                      accion_aguabendita:
     503.  00:506C  2A 27 C2            	LD		HL, (puntero_extras_habitacion_actual)
     504.  00:506F  7E                  	LD		 A, (HL)
     505.  00:5070  CB AF               	RES		 5, A					;elimino la ayuda del mapa, personalizar para cada ayuda
     506.  00:5072  77                  	LD		(HL), A
     507.  00:5073  AF                  	XOR		 A
     508.  00:5074  32 23 C2            	LD		(habitacion_extras), A	;para no tener que verificar ayudas
     509.  00:5077                      	
     510.  00:5077                      	;desactiva ayuda
     511.  00:5077  DD 2A 62 C1         	LD		IX, (puntero_ayuda_actual)
     512.  00:507B  AF                  	XOR		 A
     513.  00:507C  DD 77 00            	LD		(IX), A
     514.  00:507F  CD E4 4E            	CALL	pinta_obj_ayuda			;se le pasa A = 0 para que pinte desactivado
     515.  00:5082                      	
     516.  00:5082  3A 02 C0            	LD		 A, (prota_reliquias)
     517.  00:5085  FE 05               	CP		 5
     518.  00:5087  30 05               	JR		NC, .max_reliquias
     519.  00:5089                      .suma_reliquias
     520.  00:5089  C6 03               	ADD		 3						;suma 3 reliquias
     521.  00:508B  C3 90 50            	JP		.fin_suma_reliquias
     522.  00:508E                      .max_reliquias
     523.  00:508E  3E 08               	LD		 A, 8					;aplica el máx. de reliquias 8
     524.  00:5090                      .fin_suma_reliquias
     525.  00:5090  32 02 C0            	LD		(prota_reliquias), A
     526.  00:5093                      	
     527.  00:5093  C3 88 44            	JP		pinta_reliquias			;pinta la energia en pantalla
     528.  00:5096                      fin_accion_aguabendita:
     529.  00:5096                      
     530.  00:5096                      
     531.  00:5096                      ;;=====================================================
     532.  00:5096                      ;;ACCION_ARMADURA
     533.  00:5096                      ;;=====================================================	
     534.  00:5096                      ; función: 	Añade 75 a la vida
     535.  00:5096                      ; entrada: 	puntero_extras_habitacion_actual, puntero_ayuda_actual, prota_reliquias
     536.  00:5096                      ; salida: 	-
     537.  00:5096                      accion_armadura:
     538.  00:5096  2A 27 C2            	LD		HL, (puntero_extras_habitacion_actual)
     539.  00:5099  7E                  	LD		 A, (HL)
     540.  00:509A  CB A7               	RES		 4, A					;elimino la ayuda del mapa, personalizar para cada ayuda
     541.  00:509C  77                  	LD		(HL), A
     542.  00:509D  AF                  	XOR		 A
     543.  00:509E  32 23 C2            	LD		(habitacion_extras), A	;para no tener que verificar ayudas
     544.  00:50A1                      	
     545.  00:50A1                      	;desactiva ayuda
     546.  00:50A1  DD 2A 62 C1         	LD		IX, (puntero_ayuda_actual)
     547.  00:50A5  AF                  	XOR		 A
     548.  00:50A6  DD 77 00            	LD		(IX), A
     549.  00:50A9  CD E4 4E            	CALL	pinta_obj_ayuda			;se le pasa A = 0 para que pinte desactivado
     550.  00:50AC                      	
     551.  00:50AC  3A 05 C0            	LD		 A, (prota_energia)
     552.  00:50AF  FE B3               	CP		179
     553.  00:50B1  30 05               	JR		NC, .max_energia
     554.  00:50B3                      .suma_energia
     555.  00:50B3  C6 4B               	ADD		75						;suma 75 al marcador de energía
     556.  00:50B5  C3 BA 50            	JP		.fin_suma_energia
     557.  00:50B8                      .max_energia
     558.  00:50B8  3E FF               	LD		 A, 255					;aplica el máx. de energía 255
     559.  00:50BA                      .fin_suma_energia
     560.  00:50BA  32 05 C0            	LD		(prota_energia), A
     561.  00:50BD                      	
     562.  00:50BD  C3 08 45            	JP		pinta_energia			;pinta la energia en pantalla
     563.  00:50C0                      fin_accion_armadura:
     564.  00:50C0                      
     565.  00:50C0                      
     566.  00:50C0                      ;;=====================================================
     567.  00:50C0                      ;;ACCION_PLANTA
     568.  00:50C0                      ;;=====================================================	
     569.  00:50C0                      ; función: 	rellena toda la energía 
     570.  00:50C0                      ; entrada: 	
     571.  00:50C0                      ; salida: 	-
     572.  00:50C0                      accion_planta:
     573.  00:50C0  2A 27 C2            	LD		HL, (puntero_extras_habitacion_actual)
     574.  00:50C3  7E                  	LD		 A, (HL)
     575.  00:50C4  CB 9F               	RES		 3, A					;elimino la ayuda del mapa, personalizar para cada ayuda
     576.  00:50C6  77                  	LD		(HL), A
     577.  00:50C7  AF                  	XOR		 A
     578.  00:50C8  32 23 C2            	LD		(habitacion_extras), A	;para no tener que verificar ayudas
     579.  00:50CB                      	
     580.  00:50CB                      	;desactiva ayuda
     581.  00:50CB  DD 2A 62 C1         	LD		IX, (puntero_ayuda_actual)
     582.  00:50CF  AF                  	XOR		 A
     583.  00:50D0  DD 77 00            	LD		(IX), A
     584.  00:50D3  CD E4 4E            	CALL	pinta_obj_ayuda			;se le pasa A = 0 para que pinte desactivado
     585.  00:50D6                      	
     586.  00:50D6  3E FF               	LD		 A, 255					;aplica el máx. de energía 255
     587.  00:50D8  32 05 C0            	LD		(prota_energia), A
     588.  00:50DB                      	
     589.  00:50DB  C3 08 45            	JP		pinta_energia			;pinta la energia en pantalla
     590.  00:50DE                      fin_accion_planta:
     591.  00:50DE                      
     592.  00:50DE                      
     593.  00:50DE                      ;;=====================================================
     594.  00:50DE                      ;;ACCION_VIDAEXTRA
     595.  00:50DE                      ;;=====================================================	
     596.  00:50DE                      ; función: 	añade una vida al marcador de vidas
     597.  00:50DE                      ; entrada: 	
     598.  00:50DE                      ; salida: 	-
     599.  00:50DE                      accion_vidaextra:
     600.  00:50DE  2A 27 C2            	LD		HL, (puntero_extras_habitacion_actual)
     601.  00:50E1  7E                  	LD		 A, (HL)
     602.  00:50E2  CB 97               	RES		 2, A					;elimino la ayuda del mapa, personalizar para cada ayuda
     603.  00:50E4  77                  	LD		(HL), A
     604.  00:50E5  AF                  	XOR		 A
     605.  00:50E6  32 23 C2            	LD		(habitacion_extras), A	;para no tener que verificar ayudas
     606.  00:50E9                      	
     607.  00:50E9                      	;desactiva ayuda
     608.  00:50E9  DD 2A 62 C1         	LD		IX, (puntero_ayuda_actual)
     609.  00:50ED  AF                  	XOR		 A
     610.  00:50EE  DD 77 00            	LD		(IX), A
     611.  00:50F1  CD E4 4E            	CALL	pinta_obj_ayuda			;se le pasa A = 0 para que pinte desactivado
     612.  00:50F4                      	
     613.  00:50F4  3A 01 C0            	LD		 A, (prota_vidas)		;suma una vida al marcador de vidas
     614.  00:50F7  3C                  	INC		 A
     615.  00:50F8  32 01 C0            	LD		 (prota_vidas), A
     616.  00:50FB                      	
     617.  00:50FB  C3 79 44            	JP		pinta_vidas				;pinta la vidas en pantalla
     618.  00:50FE                      fin_accion_vidaextra:
     619.  00:50FE                      
     620.  00:50FE                      
     621.  00:50FE                      ;;=====================================================
     622.  00:50FE                      ;;ACCION_BALLESTA
     623.  00:50FE                      ;;=====================================================	
     624.  00:50FE                      ; función: 	suma 
     625.  00:50FE                      ; entrada: 	
     626.  00:50FE                      ; salida: 	-
     627.  00:50FE                      accion_ballesta:
     628.  00:50FE                      		;desactivo ayuda en array para que no vuelva a aparecer
     629.  00:50FE  2A 27 C2            		LD			HL, (puntero_extras_habitacion_actual)
     630.  00:5101  7E                  		LD		 	 A, (HL)
     631.  00:5102  CB 8F               		RES		 	 1, A					;elimino la ayuda del mapa, personalizar para cada ayuda
     632.  00:5104  77                  		LD			(HL), A
     633.  00:5105  AF                  		XOR		 	 A
     634.  00:5106  32 23 C2            		LD			(habitacion_extras), A	;para no tener que verificar ayudas
     635.  00:5109                      	
     636.  00:5109                      		;cambio sprites a ballesta mejorada
     637.  00:5109  DD 21 1B C2         		LD		IX, puntomira
     638.  00:510D  DD 36 05 08         		LD		(IX + ESTRUCTURA_PUNTOMIRA.spritea), SPRI_DANO2A
     639.  00:5111  DD 36 06 0C         		LD		(IX + ESTRUCTURA_PUNTOMIRA.spriteb), SPRI_DANO2B
     640.  00:5115                      		
     641.  00:5115                      		;cambio daño a daño mejorado
     642.  00:5115  3E 05               		LD		 A, DANO2
     643.  00:5117  32 1A C2            		LD		(dano_actual), A
     644.  00:511A                      		
     645.  00:511A                      		;desactiva ayuda
     646.  00:511A  DD 2A 62 C1         		LD		IX, (puntero_ayuda_actual)
     647.  00:511E  AF                  		XOR		 A
     648.  00:511F  DD 77 00            		LD		(IX), A
     649.  00:5122  C3 E4 4E            		JP		pinta_obj_ayuda			;se le pasa A = 0 para que pinte desactivado
     650.  00:5125                      fin_accion_ballesta:
     178   00:5125                      	
     179   00:5125                      	include "subr_tiempo.asm"
       1.  00:5125                      ;;=====================================================
       2.  00:5125                      ;;VARIABLES TIEMPO
       3.  00:5125                      ;;=====================================================
       4.  00:5125                      ;~ tiempo:
       5.  00:5125                      ;~ segundos:					DB	0
       6.  00:5125                      ;~ minutos:						DB	0
       7.  00:5125                      ;~ contador:					DB	0
       8.  00:5125                      
       9.  00:5125                      
      10.  00:5125                      ;;=====================================================
      11.  00:5125                      ;;DEFINICIÓN DE SUBRUTINAS
      12.  00:5125                      ;;=====================================================	
      13.  00:5125                      
      14.  00:5125                      
      15.  00:5125                      ;;=====================================================
      16.  00:5125                      ;;ACTUALIZA_CONTADORES_TIEMPO
      17.  00:5125                      ;;=====================================================	
      18.  00:5125                      ; función: controla un contador 1/50 y segundos y minutos
      19.  00:5125                      			;~ XOR				 A
      20.  00:5125                      			;~ LD				(minutos),  A
      21.  00:5125                      			;~ LD				(segundos), A
      22.  00:5125                      			;~ LD				(contador), A
      23.  00:5125                      ;~ loop_cambionivel:
      24.  00:5125                      			;~ CALL			actualiza_contadores_tiempo
      25.  00:5125                      			;~ LD				 A, (segundos)
      26.  00:5125                      			;~ CP				 5
      27.  00:5125                      			;~ JP				NZ, loop_cambionivel	
      28.  00:5125                      actualiza_contadores_tiempo:
      29.  00:5125  DD 21 3B C5         			LD				IX, tiempo
      30.  00:5129                      
      31.  00:5129  DD 7E 02            			LD				 A, (IX + 2)
      32.  00:512C  3C                  			INC				 A
      33.  00:512D  FE 32               			CP				50
      34.  00:512F  CA 36 51            			JP				 Z, avanza_segundos
      35.  00:5132  DD 77 02            			LD				(IX + 2), A
      36.  00:5135  C9                  			RET
      37.  00:5136                      avanza_segundos:
      38.  00:5136  AF                  			XOR				 A
      39.  00:5137  DD 77 02            			LD				(IX + 2), A
      40.  00:513A                      			
      41.  00:513A  DD 7E 01            			LD				 A, (IX + 1)
      42.  00:513D  3C                  			INC				 A
      43.  00:513E  FE 3C               			CP				60
      44.  00:5140  CA 47 51            			JP				 Z, avanza_minutos
      45.  00:5143  DD 77 01            			LD				(IX + 1), A
      46.  00:5146  C9                  			RET
      47.  00:5147                      avanza_minutos:
      48.  00:5147  AF                  			XOR				 A
      49.  00:5148  DD 77 01            			LD				(IX + 1), A
      50.  00:514B                      			
      51.  00:514B  DD 34 00            			INC				(IX)	; incremento minutos
      52.  00:514E  C9                  			RET
      53.  00:514F                      fin_actualiza_contadores_tiempo:
     180   00:514F                      	
     181   00:514F                      	include "subr_teclado_joy.asm"
       1.  00:514F                      ;;=====================================================
       2.  00:514F                      ;;SUBRUTINAS QUE CAPTURAN EL JOYSTICK Y TECLADO Y MUEVEN PUNTO DE MIRA
       3.  00:514F                      ;;=====================================================
       4.  00:514F                      
       5.  00:514F                      ;;=====================================================
       6.  00:514F                      ;;MUEVE_ARRIBA
       7.  00:514F                      ;;=====================================================	
       8.  00:514F                      ; función: 	decrementa y si se no sale de los límites el valor del punto de mira a la derecha
       9.  00:514F                      ; entrada: 	IX, puntomira
      10.  00:514F                      ; salida: 	-
      11.  00:514F                      ; toca: 	-
      12.  00:514F                      mueve_arriba:
      13.  00:514F  F5                  	PUSH		AF
      14.  00:5150                      	
      15.  00:5150  DD 7E 01            	LD		 	 A, (IX + ESTRUCTURA_PUNTOMIRA.posy)
      16.  00:5153  3D                  	DEC			 A
      17.  00:5154  CA 5A 51            	JP			 Z,.no_decrementa_y
      18.  00:5157  DD 77 01            	LD			(IX + ESTRUCTURA_PUNTOMIRA.posy), A
      19.  00:515A                      	
      20.  00:515A                      .no_decrementa_y:
      21.  00:515A  F1                  	POP			AF
      22.  00:515B                      fin_mueve_arriba:
      23.  00:515B  C9                  	RET
      24.  00:515C                      
      25.  00:515C                      
      26.  00:515C                      ;;=====================================================
      27.  00:515C                      ;;MUEVE_DERECHA
      28.  00:515C                      ;;=====================================================	
      29.  00:515C                      ; función: 	incrementa si se no sale de los límites el valor del punto de mira a la derecha
      30.  00:515C                      ; entrada: 	IX, puntomira
      31.  00:515C                      ; salida: 	-
      32.  00:515C                      ; toca: 	-
      33.  00:515C                      mueve_derecha:
      34.  00:515C  F5                  	PUSH		AF
      35.  00:515D                      	
      36.  00:515D  DD 7E 00            	LD		 	 A, (IX + ESTRUCTURA_PUNTOMIRA.posx)
      37.  00:5160  3C                  	INC			 A
      38.  00:5161  FE EF               	CP			 A, LIMPANTDER - 16
      39.  00:5163  CA 69 51            	JP			 Z, .no_incrementa_x
      40.  00:5166  DD 77 00            	LD			(IX + ESTRUCTURA_PUNTOMIRA.posx), A
      41.  00:5169                      	
      42.  00:5169                      .no_incrementa_x:
      43.  00:5169  F1                  	POP			AF
      44.  00:516A                      fin_mueve_derecha:
      45.  00:516A  C9                  	RET
      46.  00:516B                      
      47.  00:516B                      
      48.  00:516B                      ;;=====================================================
      49.  00:516B                      ;;MUEVE_ABAJO
      50.  00:516B                      ;;=====================================================	
      51.  00:516B                      ; función: 	incrementa y si se no sale de los límites el valor del punto de mira abajo
      52.  00:516B                      ; entrada: 	IX, puntomira
      53.  00:516B                      ; salida: 	-
      54.  00:516B                      ; toca: 	-
      55.  00:516B                      mueve_abajo:
      56.  00:516B  F5                  	PUSH		AF
      57.  00:516C                      	
      58.  00:516C  DD 7E 01            	LD		 	 A, (IX + ESTRUCTURA_PUNTOMIRA.posy)
      59.  00:516F  3C                  	INC			 A
      60.  00:5170  FE 70               	CP			 A, LIMPANTABA - 16
      61.  00:5172  CA 78 51            	JP			 Z,.no_incrementa_y
      62.  00:5175  DD 77 01            	LD			(IX + ESTRUCTURA_PUNTOMIRA.posy), A
      63.  00:5178                      	
      64.  00:5178                      .no_incrementa_y:
      65.  00:5178  F1                  	POP			AF
      66.  00:5179                      fin_mueve_abajo:
      67.  00:5179  C9                  	RET
      68.  00:517A                      	
      69.  00:517A                      	
      70.  00:517A                      ;;=====================================================
      71.  00:517A                      ;;MUEVE_IZQUIERDA
      72.  00:517A                      ;;=====================================================	
      73.  00:517A                      ; función: 	decrementa x si se no sale de los límites el valor del punto de mira a la izquierda
      74.  00:517A                      ; entrada: 	IX, puntomira
      75.  00:517A                      ; salida: 	-
      76.  00:517A                      ; toca: 	-
      77.  00:517A                      mueve_izquierda:
      78.  00:517A  F5                  	PUSH		AF
      79.  00:517B                      	
      80.  00:517B  DD 7E 00            	LD		 	 A, (IX + ESTRUCTURA_PUNTOMIRA.posx)
      81.  00:517E  3D                  	DEC			 A
      82.  00:517F                      ;	CP			 A, LIMPANTIZQ 			;no es necesario ya que es cero (Z)
      83.  00:517F  CA 85 51            	JP			 Z,.no_decrementa_x
      84.  00:5182  DD 77 00            	LD			(IX + ESTRUCTURA_PUNTOMIRA.posx), A
      85.  00:5185                      	
      86.  00:5185                      .no_decrementa_x:
      87.  00:5185  F1                  	POP			AF
      88.  00:5186                      fin_mueve_izquierda:
      89.  00:5186  C9                  	RET
      90.  00:5187                      
      91.  00:5187                      
      92.  00:5187                      ;;=====================================================
      93.  00:5187                      ;;MIRA_DISPARO
      94.  00:5187                      ;;=====================================================	
      95.  00:5187                      ; función: 	Mira si se ha pulsado alguno de los dos disparos
      96.  00:5187                      ; entrada: 	A que tendrá 0000 0 0 X-letra M X-espacio 
      97.  00:5187                      ; salida: 	-
      98.  00:5187                      ; toca: 	A, B
      99.  00:5187                      mira_disparo:
     100.  00:5187                      .mira_disparo1:
     101.  00:5187  CB 1F               	RR		 A						;preparo en el carry si se ha pulsado botón 1
     102.  00:5189  D2 A3 51            	JP		 NC, .mira_disparo2					
     103.  00:518C  F5                  	PUSH	AF						;copia A para usarlo después en mira_disparo2
     104.  00:518D                      	;se ha pulsado barra o boton 1?
     105.  00:518D  DD 21 1B C2         	LD		IX, puntomira
     106.  00:5191  DD 7E 04            	LD		 A, (IX + ESTRUCTURA_PUNTOMIRA.cadencia)
     107.  00:5194  B7                  	OR		 A
     108.  00:5195                      	;IF
     109.  00:5195  CA 9F 51            	JP		 Z, .efectua_disparo	;toca efectuar disparo realmente porque se ha pulsado lo suficiente el disparo
     110.  00:5198                      .no_efectua_disparo:;THEN
     111.  00:5198  3D                  		DEC		 A
     112.  00:5199  DD 77 04            		LD		(IX + ESTRUCTURA_PUNTOMIRA.cadencia), A	;resto cadencia hasta próximo disparo "real" (no automático por haber pulsado una tecla e ir demasiado rápido)
     113.  00:519C  C3 A2 51            		JP		.fin_mira_disparo1
     114.  00:519F                      .efectua_disparo:	;ELSE
     115.  00:519F  CD A9 48            		CALL	accion_boton1
     116.  00:51A2                      .fin_mira_disparo1
     117.  00:51A2                      
     118.  00:51A2  F1                  	POP			AF
     119.  00:51A3                      .mira_disparo2:
     120.  00:51A3  CB 1F               	RR		 A
     121.  00:51A5  D0                  	RET		 NC ; no se ha pulsado shift o boton 2?
     122.  00:51A6                      	;si se ha pulsado
     123.  00:51A6  C3 C2 48            	JP			accion_boton2
     124.  00:51A9                      fin_mira_disparo:
     125.  00:51A9                      
     126.  00:51A9                      
     127.  00:51A9                      ;;============================================================
     128.  00:51A9                      ;;Código de D. Fernando García (BitVision) (al que siempre le estaré agradecido)
     129.  00:51A9                      ;check_8th_keyboard_row
     130.  00:51A9                      ;read_joy_0
     131.  00:51A9                      ;check_8th_keyboard_row
     132.  00:51A9                      ;check_4th_keyboard_row
     133.  00:51A9                      ;;============================================================
     134.  00:51A9                      ;;  usa constantes:
     135.  00:51A9                      ;PSG_A  equ  0a0h  ;reg address
     136.  00:51A9                      ;PSG_W  equ  0a1h  ;reg data WR
     137.  00:51A9                      ;PSG_R  equ  0a2h  ;reg data
     138.  00:51A9                      
     139.  00:51A9                      ;;=====================================================
     140.  00:51A9                      ;;update_controllers_status
     141.  00:51A9                      ;;=====================================================	
     142.  00:51A9                      ;depends on the next rountine
     143.  00:51A9                      ;  returns
     144.  00:51A9                      ;  a - 0P2TRLDU
     145.  00:51A9                      
     146.  00:51A9                      update_controllers_status:
     147.  00:51A9  CD F4 51                 call  check_8th_keyboard_row
     148.  00:51AC                      [4]  rrc    a
     148.  00:51AC  CB 0F CB 0F CB 0F CB 0F 
     149.  00:51B4  47                       ld    b,a    		;save for later  xxxTRDUL
     150.  00:51B5                      
     151.  00:51B5  E6 01                    and    #01    		;save L
     152.  00:51B7  CB 27                    sla    a
     153.  00:51B9  CB 27                    sla    a    		;now 00000L00
     154.  00:51BB  4F                       ld    c,a    		;save for later
     155.  00:51BC                      
     156.  00:51BC  78                       ld    a,b    		;again we've got xxxTRDUL. I am interested on leaving 000000DU on a
     157.  00:51BD  CB 3F                    srl    a
     158.  00:51BF  E6 03                    and    00000011b
     159.  00:51C1                      						;we've got 000000DU on a
     160.  00:51C1  B1                       or    c    		;now we've got 00000LDU
     161.  00:51C2  4F                       ld    c,a    		;save for later
     162.  00:51C3                      
     163.  00:51C3  78                       ld    a,b
     164.  00:51C4  E6 18                    and    00011000b 	;we've got 000TR000
     165.  00:51C6  B1                       or    c
     166.  00:51C7                           ;finally    000TRLDU
     167.  00:51C7                      
     168.  00:51C7                           ;and    00000100   ;preserve just
     169.  00:51C7  47                       ld    b,a    		;save for later
     170.  00:51C8  CD 02 52                 call  check_4th_keyboard_row      ;check M & P
     171.  00:51CB  F5                       push  af
     172.  00:51CC  E6 04                    and    00000100b	;filter just M
     173.  00:51CE  87                       add    a
     174.  00:51CF  87                       add    a
     175.  00:51D0  87                       add    a           ;shift 3th to 6th bit
     176.  00:51D1  B0                       or    b           	;merge with previous
     177.  00:51D2  47                       ld    b,a
     178.  00:51D3                      
     179.  00:51D3  CD E0 51                 call  read_joy_0
     180.  00:51D6  E6 3F                    and    00111111b  	;we want just 002TRLDU  from joystick    (2 is second trigger)
     181.  00:51D8  B0                       or    b      		;added 000TRLDU from keyboard
     182.  00:51D9  47                       ld    b,a      	;save for later
     183.  00:51DA  F1                       pop    af      	; let's check on P
     184.  00:51DB                      
     185.  00:51DB  E6 20                    and    00100000b
     186.  00:51DD  87                       add    a      		;P status on 6th bit  ... so 0P2TRLDU
     187.  00:51DE  B0                       or    b
     188.  00:51DF                      
     189.  00:51DF  C9                       ret
     190.  00:51E0                      
     191.  00:51E0                      
     192.  00:51E0                      ;ret
     193.  00:51E0                      ;  a -            xx2TRLDU
     194.  00:51E0                      read_joy_0:
     195.  00:51E0  F3                         di
     196.  00:51E1  3E 0F                      ld    a,15
     197.  00:51E3  D3 A0                      out    [PSG_A],a
     198.  00:51E5  DB A2                      in    a,[PSG_R]
     199.  00:51E7  E6 BF                      and    10111111b        ;joy0
     200.  00:51E9                      
     201.  00:51E9  D3 A1                      out    [PSG_W],a        ;set joy0
     202.  00:51EB                      
     203.  00:51EB  3E 0E                      ld    a,14
     204.  00:51ED  D3 A0                      out    [PSG_A],a
     205.  00:51EF  DB A2                      in    a,[PSG_R]
     206.  00:51F1                      
     207.  00:51F1  FB                         ei
     208.  00:51F2  2F                         cpl
     209.  00:51F3                      
     210.  00:51F3  C9                         ret
     211.  00:51F4                      
     212.  00:51F4                      
     213.  00:51F4                      ;ret
     214.  00:51F4                      ;  a -      RDULxxxT
     215.  00:51F4                      check_8th_keyboard_row:
     216.  00:51F4  F3                       di
     217.  00:51F5  DB AA                    in    a,(#aa)
     218.  00:51F7  E6 F0                    and    #f0
     219.  00:51F9  F6 08                    or    8
     220.  00:51FB  D3 AA                    out    (#aa),a
     221.  00:51FD  DB A9                    in    a,(#a9)
     222.  00:51FF  FB                       ei
     223.  00:5200  2F                       cpl
     224.  00:5201                      
     225.  00:5201  C9                       ret
     226.  00:5202                      
     227.  00:5202                      
     228.  00:5202                      ;ret
     229.  00:5202                      ;  a -      xxxxxMxx
     230.  00:5202                      check_4th_keyboard_row:
     231.  00:5202  F3                       di
     232.  00:5203  DB AA                    in    a,(#aa)
     233.  00:5205  E6 F0                    and    #f0
     234.  00:5207  F6 04                    or    4
     235.  00:5209  D3 AA                    out    (#aa),a
     236.  00:520B  DB A9                    in    a,(#a9)
     237.  00:520D  FB                       ei
     238.  00:520E  2F                       cpl
     239.  00:520F                      
     240.  00:520F  C9                       ret
     241.  00:5210                      
     242.  00:5210                      ;--------------------------------------------
     243.  00:5210                      
     182   00:5210                      	
     183   00:5210                      	include "enemigos/subr_enemigos.asm"
       1.  00:5210                      ;;=====================================================
       2.  00:5210                      ;;SUBRUTINAS MANEJO DE ENEMIGOS
       3.  00:5210                      ;;=====================================================	
       4.  00:5210                      
       5.  00:5210                      
       6.  00:5210                      ;;=====================================================
       7.  00:5210                      ;;INCLUDES AGRUPACION DATOS+SUBRUTINAS ENEMIGOS
       8.  00:5210                      ;;=====================================================
       9.  00:5210                      include "subr_enemigo_cienpies.asm"
       1:  00:5210                      ;;=====================================================
       2:  00:5210                      ;;CONTANTES CIENPIES
       3:  00:5210                      ;;=====================================================
       4:  00:5210                      ;las posiciones iniciales dependerán de los últimos 3 bits del registro R
       5:  00:5210                      ;nota: se pone un 0 de más para simplificar el bucle de selección
       6:  00:5210                      posiciones_cienpies_x:
       7:  00:5210                      			DB		240,100,175,150,200,75,0,125,25
       7:  00:5210  F0 64 AF 96 C8 4B 00 7D 19 
       8:  00:5219                      posiciones_cienpies_y:
       9:  00:5219                      			DB		60,72,24,36,108,84,12,96,48
       9:  00:5219  3C 48 18 24 6C 54 0C 60 30 
      10:  00:5222                      
      11:  00:5222                      datos_cienpies:	
      12:  00:5222  02                  			DB		TIPOCIEMPIES	;(activo_tipo) si inactivo = 0 si <> 0 es el tipo de enemigo
      13:  00:5223  00                  			DB		0		;(escena) sprite a mostrar 1/2
      14:  00:5224  00                  			DB		0		;(cont_sig_escena) retardo_explosion ;contador para ver cuando cambiar de sprite (y retardo_explosión irá hasta cero antes de que desaparezca la explosión)
      15:  00:5225  0A                  			DB		10		;(energia) energía del enemigo antes de morir
      16:  00:5226  00                  			DB		0		;(posx) pos x para mover y punto central del sprite para revisar disparo
      17:  00:5227  00                  			DB		0		;(posy) pos y para mover y punto central del sprite para revisar disparo
      18:  00:5228  08                  			DB		8		;(radiox) radio x del enemigo para cuando se dispare encima
      19:  00:5229  08                  			DB		8		;(radioy) radio y del enemigo para cuando se dispare encima
      20:  00:522A  00                  			DB		0		;(incx) incremento x para mover
      21:  00:522B  00                  			DB		0		;(inxy) incremento y para mover
      22:  00:522C  00                  			DB		0		;(direccionx) 0 derecha <> 0 izquierda // 0 abajo <> 0 arriba
      23:  00:522D  00                  			DB		0		;(direcciony) 0 derecha <> 0 izquierda // 0 abajo <> 0 arriba
      24:  00:522E  00                  			DB		0		;(pasos) pasos para no comprobar los límites de pentalla, sólo si pasos ha llegado a 0
      25:  00:522F  00                  			DB		0		;(radio) radio para movimientos circulares
      26:  00:5230  5A 52               			DW		mover_cienpies	;(ptr_mover) puntero a subrutina que moverá el enemigo según el tipo de enemigo (se pasa al inicializar)
      27:  00:5232  00                  			DB		0	;izq arriba
      28:  00:5233  00                  			DB		0	;izq abajo
      29:  00:5234  00                  			DB		0	;der_arriba
      30:  00:5235  00                  			DB		0	;der_abajo
      31:  00:5236                      
      32:  00:5236                      
      33:  00:5236                      ;;=====================================================
      34:  00:5236                      ;;SUBRUTINAS MANEJO DE CIENPIES
      35:  00:5236                      ;;=====================================================	
      36:  00:5236                      
      37:  00:5236                      
      38:  00:5236                      ;;=====================================================
      39:  00:5236                      ;;ANADE_ENEMIGO_CIENPIES/ARANA/SERPIENTE/MURCIELAGO/LOBO
      40:  00:5236                      ;;=====================================================	
      41:  00:5236                      ; función: 	mete en memoria la plantilla de datos base del cienpies en el enemigo que se le pase por DE
      42:  00:5236                      ; entrada:	DE (enemigo en concreto al que poner los datos, por ejemplo, enemigo1)
      43:  00:5236                      ; salida: 	-
      44:  00:5236                      ; toca:		-
      45:  00:5236                      anade_enemigo_cienpies:
      46:  00:5236  21 22 52            		LD			HL, datos_cienpies
      47:  00:5239  01 14 00            		LD			BC, ESTRUCTURA_ENEMIGO
      48:  00:523C  ED B0               		LDIR
      49:  00:523E                      fin_anade_enemigo_cienpies:
      50:  00:523E  C9                  		RET
      51:  00:523F                      
      52:  00:523F                      
      53:  00:523F                      ;;=====================================================
      54:  00:523F                      ;;ACTUALIZA_VALORES_CIENPIES
      55:  00:523F                      ;;=====================================================	
      56:  00:523F                      ; función: 	inicializa valores aleatorios del cienpies
      57:  00:523F                      ; entrada:	IX que equivaldrá a qué nº de enemigo estamos inicializando (por ejemplo enemigo1), posiciones_iniciales_cienpies_x, posiciones_iniciales_cienpies_y
      58:  00:523F                      ; salida: 	posicion_anterior_cienpies
      59:  00:523F                      ; toca:		-
      60:  00:523F                      actualiza_valores_cienpies:
      61:  00:523F                      ;actualiza_valores_aleatorios_cienpies
      62:  00:523F                      .calcula_posicion:
      63:  00:523F                      		;calcula posición de 0 a 8 porque es el primer cienpies
      64:  00:523F  ED 5F               		LD			 A, R
      65:  00:5241  E6 07               		AND			00000111b
      66:  00:5243  47                  		LD			 B, A ; dejo un copia en B del valor de A 
      67:  00:5244                      		
      68:  00:5244                      .asigna_valores_posicion_x:
      69:  00:5244  21 10 52            		LD			HL, posiciones_cienpies_x
      70:  00:5247  CD F2 42            		CALL		suma_A_HL
      71:  00:524A  7E                  		LD			 A, (HL)
      72:  00:524B  DD 77 04            		LD			(IX + ESTRUCTURA_ENEMIGO.posx), A
      73:  00:524E                      
      74:  00:524E                      .asigna_valores_posicion_y:
      75:  00:524E  78                  		LD			 A, B
      76:  00:524F  21 19 52            		LD			HL, posiciones_cienpies_y
      77:  00:5252  CD F2 42            		CALL		suma_A_HL
      78:  00:5255  7E                  		LD			 A, (HL)
      79:  00:5256  DD 77 05            		LD			(IX + ESTRUCTURA_ENEMIGO.posy), A
      80:  00:5259                      fin_actualiza_valores_cienpies:
      81:  00:5259  C9                  		RET
      82:  00:525A                      
      83:  00:525A                      
      84:  00:525A                      ;;=====================================================
      85:  00:525A                      ;;MOVER_CIENPIES
      86:  00:525A                      ;;=====================================================	
      87:  00:525A                      ; función: hace todo lo que haga falta de acciones cada vez que le toca al prograa enfocarse en el cienpies: su ataque, su sptrite, etc...
      88:  00:525A                      ; entrada: IX (enemigo en concreto al que poner los datos, por ejemplo, enemigo1)
      89:  00:525A                      ; salida: 	-
      90:  00:525A                      ; toca:		-
      91:  00:525A                      mover_cienpies:
      92:  00:525A                      		;calcula posición Y
      93:  00:525A  DD 7E 05            		LD			 A, (IX + ESTRUCTURA_ENEMIGO.posy)
      94:  00:525D  FD 77 00            		LD			(IY), A
      95:  00:5260                      		
      96:  00:5260                      		;calcula posición X
      97:  00:5260  DD 7E 04            		LD			 A, (IX + ESTRUCTURA_ENEMIGO.posx)
      98:  00:5263  FD 77 01            		LD			(IY + 1), A
      99:  00:5266                      
     100:  00:5266  CD 74 52            		CALL		calcula_cienpies_escena
     101:  00:5269  DD 7E 10            		LD			 A, (IX + ESTRUCTURA_ENEMIGO.sprite_a)
     102:  00:526C  FD 77 02            		LD			(IY + 2), A	
     103:  00:526F                      		
     104:  00:526F                      		;colorea cienpies
     105:  00:526F  FD 36 03 0C         		LD			(IY + 3), CIENPIES_COLOR
     106:  00:5273                      fin_mover_cienpies:
     107:  00:5273  C9                  		RET
     108:  00:5274                      
     109:  00:5274                      ;;=====================================================
     110:  00:5274                      ;;CALCULA_CIENPIES_ESCENA
     111:  00:5274                      ;;=====================================================	
     112:  00:5274                      ; función: calcula la escena que toca mostrar para el cienpies y la pone en variable
     113:  00:5274                      ; entrada: IX (enemigo en concreto al que poner los datos, por ejemplo, enemigo1)
     114:  00:5274                      ; salida: 	-
     115:  00:5274                      ; toca:		-
     116:  00:5274                      calcula_cienpies_escena:
     117:  00:5274  3A 49 C0            		LD			 A, (heartbeat_cienpies)
     118:  00:5277  E6 10               		AND			CIENPIES_VELESCENA
     119:  00:5279  C8                  		RET			 Z   	; IF TENGO QUE CAMBIAR DE ESCENA THEN
     120:  00:527A                      			;reseteo el cambio de escena del cienpies
     121:  00:527A  AF                  			XOR			 A
     122:  00:527B  32 49 C0            			LD			(heartbeat_cienpies), A
     123:  00:527E                      		
     124:  00:527E                      			; cambio de escena
     125:  00:527E  DD 7E 01            			LD			 A, (IX + ESTRUCTURA_ENEMIGO.escena)
     126:  00:5281  EE 01               			XOR			00000001b
     127:  00:5283  DD 77 01            			LD			(IX + ESTRUCTURA_ENEMIGO.escena), A
     128:  00:5286                      			
     129:  00:5286  CA 8E 52            			JP			 Z, .enemigo1_poner_escena2			; IF ESCENA 1 THEN
     130:  00:5289  3E 18               				LD			 A, CIENPIES_SPRITE1A			
     131:  00:528B  C3 90 52            				JP			.fin_enemigo1_poner_escena2
     132:  00:528E                      .enemigo1_poner_escena2:									; ELSE
     133:  00:528E  3E 1C               				LD			 A, CIENPIES_SPRITE1B
     134:  00:5290                      .fin_enemigo1_poner_escena2:								; END IF
     135:  00:5290                      ;.fin_cambia_escena_enemigo1:							; END IF			
     136:  00:5290  DD 77 10            		LD			(IX + ESTRUCTURA_ENEMIGO.sprite_a), A
     137:  00:5293                      fin_calcula_cienpies_escena:
     138:  00:5293  C9                  		RET
     139:  00:5294                      		
      10.  00:5294                      include "subr_enemigo_arana.asm"
       1:  00:5294                      ;;=====================================================
       2:  00:5294                      ;;CONTANTES ARANA
       3:  00:5294                      ;;=====================================================
       4:  00:5294                      posiciones_arana_x: 		;16 posisiones iniciales posibles
       5:  00:5294                      			DB		0,16,32,48,64,80,96,112,128,144,160,176,192,208,224,240
       5:  00:5294  00 10 20 30 40 50 60 70 80 90 A0 B0 C0 D0 E0 F0 
       6:  00:52A4                      
       7:  00:52A4                      datos_arana:
       8:  00:52A4  04                  			DB		TIPOARANA	;(activo_tipo) si inactivo = 0 si <> 0 es el tipo de enemigo
       9:  00:52A5  00                  			DB		0		;(escena) sprite a mostrar 1/2
      10:  00:52A6  10                  			DB		00010000b	;(cont_sig_escena) retardo_explosion ;contador para ver cuando cambiar de sprite (y retardo_explosión irá hasta cero antes de que desaparezca la explosión)
      11:  00:52A7  0A                  			DB		10		;(energia) energía del enemigo antes de morir
      12:  00:52A8  00                  			DB		0		;(posx) pos x para mover y punto central del sprite para revisar disparo
      13:  00:52A9  00                  			DB		LIMITEPANTALLASUP	;(posy) pos y para mover y punto central del sprite para revisar disparo
      14:  00:52AA  08                  			DB		8		;(radiox) radio x del enemigo para cuando se dispare encima
      15:  00:52AB  08                  			DB		8		;(radioy) radio y del enemigo para cuando se dispare encima
      16:  00:52AC  00                  			DB		0		;(incx) incremento x para mover
      17:  00:52AD  00                  			DB		DIRABAJO	;(inxy) incremento y para mover
      18:  00:52AE  00                  			DB		0		;(direccionx) 0 derecha <> 0 izquierda // 0 abajo <> 0 arriba
      19:  00:52AF  00                  			DB		0		;(direcciony) 0 derecha <> 0 izquierda // 0 abajo <> 0 arriba
      20:  00:52B0  00                  			DB		0		;(pasos) pasos para no comprobar los límites de pentalla, sólo si pasos ha llegado a 0
      21:  00:52B1  00                  			DB		0		;(radio) radio para movimientos circulares
      22:  00:52B2  D1 52               			DW		mover_arana	;(ptr_mover) puntero a subrutina que moverá el enemigo según el tipo de enemigo (se pasa al inicializar)
      23:  00:52B4  00                  			DB		0		;izq arriba
      24:  00:52B5  00                  			DB		0		;izq abajo
      25:  00:52B6  00                  			DB		0		;der_arriba
      26:  00:52B7  00                  			DB		0		;der_abajo
      27:  00:52B8                      
      28:  00:52B8                      
      29:  00:52B8                      ;;=====================================================
      30:  00:52B8                      ;;SUBRUTINAS MANEJO DE ARANA
      31:  00:52B8                      ;;=====================================================	
      32:  00:52B8                      
      33:  00:52B8                      
      34:  00:52B8                      ;;=====================================================
      35:  00:52B8                      ;;ANADE_ENEMIGO_ARANA
      36:  00:52B8                      ;;=====================================================	
      37:  00:52B8                      ; función: 	mete en memoria la plantilla de datos base de la araña en el enemigo que se le pase por DE
      38:  00:52B8                      ; entrada:	DE (enemigo en concreto al que poner los datos, por ejemplo, enemigo1)
      39:  00:52B8                      ; salida: 	-
      40:  00:52B8                      ; toca:		-
      41:  00:52B8                      anade_enemigo_arana:
      42:  00:52B8  21 A4 52            		LD			HL, datos_arana
      43:  00:52BB  01 14 00            		LD			BC, ESTRUCTURA_ENEMIGO
      44:  00:52BE  ED B0               		LDIR
      45:  00:52C0                      fin_anade_enemigo_arana:
      46:  00:52C0  C9                  		RET
      47:  00:52C1                      
      48:  00:52C1                      
      49:  00:52C1                      ;;=====================================================
      50:  00:52C1                      ;;ACTUALIZA_VALORES_ARANA
      51:  00:52C1                      ;;=====================================================	
      52:  00:52C1                      ; función: 	inicializa valores aleatorios de la araña
      53:  00:52C1                      ; entrada:	IX que equivaldrá a qué nº de enemigo estamos inicializando (por ejemplo enemigo1)
      54:  00:52C1                      ; salida: 	posicion_anterior_arana
      55:  00:52C1                      ; toca:		-
      56:  00:52C1                      actualiza_valores_arana:
      57:  00:52C1                      ;actualiza_valores_aleatorios_arana
      58:  00:52C1                      .calcula_posicion:
      59:  00:52C1                      		;calcula posición de 0 a 16
      60:  00:52C1  ED 5F               		LD			 A, R
      61:  00:52C3  E6 0F               		AND			00001111b
      62:  00:52C5  47                  		LD			 B, A ; dejo un copia en B del valor de A 
      63:  00:52C6                      		
      64:  00:52C6                      .asigna_valores_posicion_x:
      65:  00:52C6  21 94 52            		LD			HL, posiciones_arana_x
      66:  00:52C9  CD F2 42            		CALL		suma_A_HL
      67:  00:52CC  7E                  		LD			 A, (HL)
      68:  00:52CD  DD 77 04            		LD			(IX + ESTRUCTURA_ENEMIGO.posx), A
      69:  00:52D0                      fin_actualiza_valores_arana:
      70:  00:52D0  C9                  		RET
      71:  00:52D1                      		
      72:  00:52D1                      		
      73:  00:52D1                      ;;=====================================================
      74:  00:52D1                      ;;MOVER_ARANA
      75:  00:52D1                      ;;=====================================================	
      76:  00:52D1                      ; función: hace todo lo que haga falta de acciones cada vez que le toca al programa enfocarse en la arana: su ataque, su sptrite, etc...
      77:  00:52D1                      ; entrada: IX (enemigo en concreto al que poner los datos, por ejemplo, enemigo1)
      78:  00:52D1                      ; salida: 	-
      79:  00:52D1                      ; toca:		-
      80:  00:52D1                      mover_arana:
      81:  00:52D1  CD 0E 53            		CALL		calcula_arana_incrementoy		
      82:  00:52D4  DD 7E 05            		LD			 A, (IX + ESTRUCTURA_ENEMIGO.posy)
      83:  00:52D7  FD 77 00            		LD			(IY), A
      84:  00:52DA                      		
      85:  00:52DA  DD 7E 04            		LD			 A, (IX + ESTRUCTURA_ENEMIGO.posx)
      86:  00:52DD  FD 77 01            		LD			(IY + 1), A
      87:  00:52E0                      		
      88:  00:52E0  CD EE 52            		CALL		calcula_arana_escena
      89:  00:52E3  DD 7E 10            		LD			 A, (IX + ESTRUCTURA_ENEMIGO.sprite_a)
      90:  00:52E6  FD 77 02            		LD			(IY + 2), A		
      91:  00:52E9                      		
      92:  00:52E9                      		;colorea araña
      93:  00:52E9  FD 36 03 01         		LD			(IY + 3), ARANA_COLOR
      94:  00:52ED                      fin_mover_arana:
      95:  00:52ED  C9                  		RET
      96:  00:52EE                      
      97:  00:52EE                      
      98:  00:52EE                      ;;=====================================================
      99:  00:52EE                      ;;CALCULA_ARANA_ESCENA
     100:  00:52EE                      ;;=====================================================	
     101:  00:52EE                      calcula_arana_escena:
     102:  00:52EE  3A 4B C0            		LD			 A, (heartbeat_arana)
     103:  00:52F1  E6 10               		AND			ARANA_VELESCENA
     104:  00:52F3  C8                  		RET			 Z   	; IF TENGO QUE CAMBIAR DE ESCENA THEN
     105:  00:52F4                      			;reseteo el cambio de escena de la araña
     106:  00:52F4  AF                  			XOR			 A
     107:  00:52F5  32 4B C0            			LD			(heartbeat_arana), A
     108:  00:52F8                      		
     109:  00:52F8                      			; cambio de escena
     110:  00:52F8  DD 7E 01            			LD			 A, (IX + ESTRUCTURA_ENEMIGO.escena)
     111:  00:52FB  EE 01               			XOR			00000001b
     112:  00:52FD  DD 77 01            			LD			(IX + ESTRUCTURA_ENEMIGO.escena), A
     113:  00:5300                      			
     114:  00:5300  CA 08 53            			JP			 Z, .enemigo1_poner_escena2			; IF ESCENA 1 THEN
     115:  00:5303  3E 30               				LD			 A, ARANA_SPRITE1A			
     116:  00:5305  C3 0A 53            				JP			.fin_enemigo1_poner_escena2
     117:  00:5308                      .enemigo1_poner_escena2:									; ELSE
     118:  00:5308  3E 34               				LD			 A, ARANA_SPRITE2A
     119:  00:530A                      .fin_enemigo1_poner_escena2:								; END IF
     120:  00:530A                      ;.fin_cambia_escena_enemigo1:							; END IF			
     121:  00:530A  DD 77 10            		LD			(IX + ESTRUCTURA_ENEMIGO.sprite_a), A
     122:  00:530D                      fin_calcula_arana_escena:
     123:  00:530D  C9                  		RET
     124:  00:530E                      
     125:  00:530E                      
     126:  00:530E                      ;;=====================================================
     127:  00:530E                      ;;CALCULA_ARANA_INCREMENTOY
     128:  00:530E                      ;;=====================================================	
     129:  00:530E                      calcula_arana_incrementoy:
     130:  00:530E                      		;SI DIRECCION = ABAJO
     131:  00:530E  DD 7E 0B            		LD			 A, (IX + ESTRUCTURA_ENEMIGO.direcciony)
     132:  00:5311  B7                  		OR			 A
     133:  00:5312  CA 23 53            		JP			 Z, .arana_baja
     134:  00:5315                      .arana_sube:
     135:  00:5315                      		;DECREMENTA Y => ARANA SUBE
     136:  00:5315  DD 7E 05            		LD			 A, (IX + ESTRUCTURA_ENEMIGO.posy)
     137:  00:5318  3D                  		DEC			 A
     138:  00:5319  DD 77 05            		LD			(IX + ESTRUCTURA_ENEMIGO.posy), A
     139:  00:531C                      		
     140:  00:531C                      		;SI Y = LIMITE SUPERIOR = 0 = LIMITEPANTALLASUP
     141:  00:531C  B7                  		OR			 A
     142:  00:531D  C0                  		RET			NZ
     143:  00:531E                      		;DIRECCION = ABAJO
     144:  00:531E  DD 36 0B 00         			LD			(IX + ESTRUCTURA_ENEMIGO.direcciony), DIRABAJO
     145:  00:5322                      		;FIN SI
     146:  00:5322  C9                  		RET
     147:  00:5323                      ;SINO
     148:  00:5323                      .arana_baja:
     149:  00:5323                      		;INCREMENTA Y => ARANA BAJA
     150:  00:5323  DD 7E 05            		LD			 A, (IX + ESTRUCTURA_ENEMIGO.posy)
     151:  00:5326  3C                  		INC			 A
     152:  00:5327  DD 77 05            		LD			(IX + ESTRUCTURA_ENEMIGO.posy), A
     153:  00:532A                      		
     154:  00:532A                      		;SI Y = LIMITE INFERIOR
     155:  00:532A  B7                  		OR			 A
     156:  00:532B  FE 70               		CP			LIMITEPANTALLAINF
     157:  00:532D  C0                  		RET			NZ
     158:  00:532E                      		;DIRECCION = ARRIBA
     159:  00:532E  DD 36 0B 01         			LD			(IX + ESTRUCTURA_ENEMIGO.direcciony), DIRARRIBA
     160:  00:5332                      	;FIN SI
     161:  00:5332                      ;FIN SI
     162:  00:5332                      fin_calcula_arana_incrementoy:
     163:  00:5332  C9                  		RET
     164:  00:5333                      		
      11.  00:5333                      include "subr_enemigo_murcielago.asm"
       1:  00:5333                      ;;=====================================================
       2:  00:5333                      ;;CONTANTES MURCIELAGO
       3:  00:5333                      ;;=====================================================
       4:  00:5333                      datos_murcielago:
       5:  00:5333  05                  			DB		TIPOMURCIELAGO		;(activo_tipo) si inactivo = 0 si <> 0 es el tipo de enemigo
       6:  00:5334  00                  			DB		0		;(escena) sprite a mostrar 1/2
       7:  00:5335  10                  			DB		00010000b			;(cont_sig_escena) retardo_explosion ;contador para ver cuando cambiar de sprite (y retardo_explosión irá hasta cero antes de que desaparezca la explosión)
       8:  00:5336  0A                  			DB		10		;(energia) energía del enemigo antes de morir
       9:  00:5337  10                  			DB		16		;(posx) pos x para mover y punto central del sprite para revisar disparo
      10:  00:5338  18                  			DB		MURCIELAGO_HORIZON	;(posy) pos y para mover y punto central del sprite para revisar disparo
      11:  00:5339  08                  			DB		8		;(radiox) radio x del enemigo para cuando se dispare encima
      12:  00:533A  08                  			DB		8		;(radioy) radio y del enemigo para cuando se dispare encima
      13:  00:533B  00                  			DB		0		;(incx) incremento x para mover
      14:  00:533C  00                  			DB		0		;(inxy) incremento y para mover
      15:  00:533D  00                  			DB		DIRDERECHA			;(direccionx) 0 derecha <> 0 izquierda // 0 abajo <> 0 arriba
      16:  00:533E  00                  			DB		0		;(direcciony) 0 derecha <> 0 izquierda // 0 abajo <> 0 arriba
      17:  00:533F  C0                  			DB		MURCIELAGO_PASOS	;(pasos) pasos para no comprobar los límites de pentalla, sólo si pasos ha llegado a 0
      18:  00:5340  00                  			DB		0		;(radio) radio para movimientos circulares
      19:  00:5341  50 53               			DW		mover_murcielago	;(ptr_mover) puntero a subrutina que moverá el enemigo según el tipo de enemigo (se pasa al inicializar)
      20:  00:5343  38                  			DB		MURCIELAGO_SPRITE1A	;izq arriba
      21:  00:5344  3C                  			DB		MURCIELAGO_SPRITE1B	;izq abajo
      22:  00:5345  38                  			DB		MURCIELAGO_SPRITE1A	;der_arriba
      23:  00:5346  3C                  			DB		MURCIELAGO_SPRITE1B	;der_abajo
      24:  00:5347                      
      25:  00:5347                      
      26:  00:5347                      ;;=====================================================
      27:  00:5347                      ;;SUBRUTINAS MANEJO DE MURCIÉLAGO
      28:  00:5347                      ;;=====================================================	
      29:  00:5347                      
      30:  00:5347                      
      31:  00:5347                      ;;=====================================================
      32:  00:5347                      ;;ANADE_ENEMIGO_MURCIELAGO
      33:  00:5347                      ;;=====================================================	
      34:  00:5347                      ; función: 	mete en memoria la plantilla de datos base del murciélago en el enemigo que se le pase por DE
      35:  00:5347                      ; entrada:	DE (enemigo en concreto al que poner los datos, por ejemplo, enemigo1)
      36:  00:5347                      ; salida: 	-
      37:  00:5347                      ; toca:		-
      38:  00:5347                      anade_enemigo_murcielago:
      39:  00:5347  21 33 53            		LD			HL, datos_murcielago
      40:  00:534A  01 14 00            		LD			BC, ESTRUCTURA_ENEMIGO
      41:  00:534D  ED B0               		LDIR
      42:  00:534F                      fin_anade_enemigo_murcielago:
      43:  00:534F  C9                  		RET
      44:  00:5350                      
      45:  00:5350                      
      46:  00:5350                      ;;=====================================================
      47:  00:5350                      ;;ACTUALIZA_VALORES_MURCUELAGO
      48:  00:5350                      ;;=====================================================	
      49:  00:5350                      ; función: 	inicializa valores aleatorios del murciélago
      50:  00:5350                      ; entrada:	IX que equivaldrá a qué nº de enemigo estamos inicializando (por ejemplo enemigo1)
      51:  00:5350                      ; salida: 	-
      52:  00:5350                      ; toca:		-
      53:  00:5350                      actualiza_valores_murcielago:
      54:  00:5350                      fin_actualiza_valores_murcielago:
      55:  00:5350                      		
      56:  00:5350                      		
      57:  00:5350                      ;;=====================================================
      58:  00:5350                      ;;MOVER_MURCIELAGO
      59:  00:5350                      ;;=====================================================	
      60:  00:5350                      ; función: hace todo lo que haga falta de acciones cada vez que le toca al programa enfocarse en el muerciélago: su ataque, su sptrite, etc...
      61:  00:5350                      ; entrada: IX (enemigo en concreto al que poner los datos, por ejemplo, enemigo1)
      62:  00:5350                      ; salida: 	-
      63:  00:5350                      ; toca:		-
      64:  00:5350                      mover_murcielago:
      65:  00:5350  CD A0 53            		CALL		calcula_murcielago_incrementox
      66:  00:5353  DD 7E 04            		LD			 A, (IX + ESTRUCTURA_ENEMIGO.posx)
      67:  00:5356  FD 77 01            		LD			(IY + 1), A
      68:  00:5359                      
      69:  00:5359  CD 90 53            		CALL		calcula_murcielago_incrementoy
      70:  00:535C  DD 7E 05            		LD			 A, (IX + ESTRUCTURA_ENEMIGO.posy)
      71:  00:535F  FD 77 00            		LD			(IY), A
      72:  00:5362                      		
      73:  00:5362  CD 70 53            		CALL		calcula_murcielago_escena
      74:  00:5365  DD 7E 10            		LD			 A, (IX + ESTRUCTURA_ENEMIGO.sprite_a)
      75:  00:5368  FD 77 02            		LD			(IY + 2), A
      76:  00:536B                      		
      77:  00:536B                      		;colorea murcielago
      78:  00:536B  FD 36 03 01         		LD			(IY + 3), MURCIELAGO_COLOR
      79:  00:536F                      fin_mover_murcielago:
      80:  00:536F  C9                  		RET
      81:  00:5370                      
      82:  00:5370                      
      83:  00:5370                      ;;=====================================================
      84:  00:5370                      ;;CALCULA_MURCIÉLAGO_ESCENA
      85:  00:5370                      ;;=====================================================	
      86:  00:5370                      calcula_murcielago_escena:
      87:  00:5370  3A 4C C0            		LD			 A, (heartbeat_murcielago)
      88:  00:5373  E6 10               		AND			MURCIELAGO_VELESCENA
      89:  00:5375  C8                  		RET			 Z   	; IF TENGO QUE CAMBIAR DE ESCENA THEN
      90:  00:5376                      			;reseteo el cambio de escena del murcielago
      91:  00:5376  AF                  			XOR			 A
      92:  00:5377  32 4C C0            			LD			(heartbeat_murcielago), A
      93:  00:537A                      		
      94:  00:537A                      			; cambio de escena
      95:  00:537A  DD 7E 01            			LD			 A, (IX + ESTRUCTURA_ENEMIGO.escena)
      96:  00:537D  EE 01               			XOR			00000001b
      97:  00:537F  DD 77 01            			LD			(IX + ESTRUCTURA_ENEMIGO.escena), A
      98:  00:5382                      			
      99:  00:5382  CA 8A 53            			JP			 Z, .enemigo1_poner_escena2			; IF ESCENA 1 THEN
     100:  00:5385  3E 38               				LD			 A, MURCIELAGO_SPRITE1A
     101:  00:5387  C3 8C 53            				JP			.fin_enemigo1_poner_escena2
     102:  00:538A                      .enemigo1_poner_escena2:									; ELSE
     103:  00:538A  3E 3C               				LD			 A, MURCIELAGO_SPRITE1B
     104:  00:538C                      .fin_enemigo1_poner_escena2:								; END IF
     105:  00:538C                      ;.fin_cambia_escena_enemigo1:							; END IF	
     106:  00:538C  DD 77 10            		LD			(IX + ESTRUCTURA_ENEMIGO.sprite_a), A
     107:  00:538F                      fin_calcula_murcielago_escena:
     108:  00:538F  C9                  		RET
     109:  00:5390                      
     110:  00:5390                      
     111:  00:5390                      ;;=====================================================
     112:  00:5390                      ;;CALCULA_MURCIELAGO_INCREMENTOY
     113:  00:5390                      ;;=====================================================	
     114:  00:5390                      calcula_murcielago_incrementoy:
     115:  00:5390  DD 7E 0C            		LD			 A, (IX + ESTRUCTURA_ENEMIGO.pasos)
     116:  00:5393  E6 20               		AND			00100000b
     117:  00:5395  C2 9C 53            		JP			NZ, .baja
     118:  00:5398                      .sube:
     119:  00:5398  DD 35 05            		DEC			(IX + ESTRUCTURA_ENEMIGO.posy)
     120:  00:539B  C9                  		RET
     121:  00:539C                      .baja:
     122:  00:539C  DD 34 05            		INC			(IX + ESTRUCTURA_ENEMIGO.posy)
     123:  00:539F  C9                  		RET
     124:  00:53A0                      fin_calcula_murcielago_incrementoy:
     125:  00:53A0                      
     126:  00:53A0                      		
     127:  00:53A0                      
     128:  00:53A0                      ;;=====================================================
     129:  00:53A0                      ;;CALCULA_MURCIELAGO_INCREMENTOx
     130:  00:53A0                      ;;=====================================================	
     131:  00:53A0                      calcula_murcielago_incrementox:
     132:  00:53A0  DD 7E 0A            		LD			 A, (IX + ESTRUCTURA_ENEMIGO.direccionx)
     133:  00:53A3  B7                  		OR			 A
     134:  00:53A4  CA AD 53            		JP			 Z, .mueve_derecha
     135:  00:53A7                      .mueve_izquierda:
     136:  00:53A7  DD 35 04            			DEC			(IX + ESTRUCTURA_ENEMIGO.posx)
     137:  00:53AA  C3 B0 53            			JP			.fin_mueve
     138:  00:53AD                      .mueve_derecha:
     139:  00:53AD  DD 34 04            			INC			(IX + ESTRUCTURA_ENEMIGO.posx)
     140:  00:53B0                      .fin_mueve:
     141:  00:53B0                      
     142:  00:53B0  DD 35 0C            		DEC			(IX + ESTRUCTURA_ENEMIGO.pasos)
     143:  00:53B3  DD 7E 0C            		LD			 A, (IX + ESTRUCTURA_ENEMIGO.pasos)
     144:  00:53B6  B7                  		OR			 A
     145:  00:53B7  C0                  		RET			NZ
     146:  00:53B8                      			;cambia sentido
     147:  00:53B8  DD 7E 0A            			LD			 A, (IX + ESTRUCTURA_ENEMIGO.direccionx)
     148:  00:53BB  EE 01               			XOR			 00000001b
     149:  00:53BD  DD 77 0A            			LD			(IX + ESTRUCTURA_ENEMIGO.direccionx), A
     150:  00:53C0  DD 36 0C C0         			LD			(IX + ESTRUCTURA_ENEMIGO.pasos), MURCIELAGO_PASOS
     151:  00:53C4  DD 36 05 18         			LD			(IX + ESTRUCTURA_ENEMIGO.posy), MURCIELAGO_HORIZON
     152:  00:53C8                      fin_calcula_murcielago_incrementox:
     153:  00:53C8  C9                  		RET
      12.  00:53C9                      include "subr_enemigo_serpiente.asm"
       1:  00:53C9                      ;;=====================================================
       2:  00:53C9                      ;;CONTANTES SERPIENTE
       3:  00:53C9                      ;;=====================================================
       4:  00:53C9                      posiciones_serpiente_y:	;16 posisiones iniciales posibles
       5:  00:53C9                      			DB			80,83,86,89,92,95,98,101,104,107,110,113,116,119,122,125
       5:  00:53C9  50 53 56 59 5C 5F 62 65 68 6B 6E 71 74 77 7A 7D 
       6:  00:53D9                      			
       7:  00:53D9                      datos_serpiente:
       8:  00:53D9  03                  			DB		TIPOSERPIENTE	;(activo_tipo) si inactivo = 0 si <> 0 es el tipo de enemigo
       9:  00:53DA  00                  			DB		0		;(escena) sprite a mostrar 1/2
      10:  00:53DB  10                  			DB		00010000b		;(cont_sig_escena) retardo_explosion ;contador para ver cuando cambiar de sprite (y retardo_explosión irá hasta cero antes de que desaparezca la explosión)
      11:  00:53DC  0A                  			DB		10		;(energia) energía del enemigo antes de morir
      12:  00:53DD  28                  			DB		SERPIENTE_POSX	;(posx) pos x para mover y punto central del sprite para revisar disparo
      13:  00:53DE  48                  			DB		SERPIENTE_POSY	;(posy) pos y para mover y punto central del sprite para revisar disparo
      14:  00:53DF  08                  			DB		8		;(radiox) radio x del enemigo para cuando se dispare encima
      15:  00:53E0  08                  			DB		8		;(radioy) radio y del enemigo para cuando se dispare encima
      16:  00:53E1  00                  			DB		0		;(incx) incremento x para mover
      17:  00:53E2  00                  			DB		0		;(inxy) incremento y para mover
      18:  00:53E3  00                  			DB		DIRDERECHA		;(direccionx) 0 derecha <> 0 izquierda // 0 abajo <> 0 arriba
      19:  00:53E4  00                  			DB		0		;(direcciony) 0 derecha <> 0 izquierda // 0 abajo <> 0 arriba
      20:  00:53E5  A0                  			DB		SERPIENTE_PASOS	;(pasos) pasos para no comprobar los límites de pentalla, sólo si pasos ha llegado a 0
      21:  00:53E6  00                  			DB		0		;(radio) radio para movimientos circulares
      22:  00:53E7  F6 53               			DW		mover_serpiente	;(ptr_mover) puntero a subrutina que moverá el enemigo según el tipo de enemigo (se pasa al inicializar)
      23:  00:53E9  00                  			DB		0		;izq arriba
      24:  00:53EA  00                  			DB		0		;izq abajo
      25:  00:53EB  00                  			DB		0		;der_arriba
      26:  00:53EC  00                  			DB		0		;der_abajo
      27:  00:53ED                      			
      28:  00:53ED                      						
      29:  00:53ED                      ;;=====================================================
      30:  00:53ED                      ;;SUBRUTINAS MANEJO DE SERPIENTE
      31:  00:53ED                      ;;=====================================================	
      32:  00:53ED                      
      33:  00:53ED                      
      34:  00:53ED                      ;;=====================================================
      35:  00:53ED                      ;;ANADE_ENEMIGO_SERPIENTE
      36:  00:53ED                      ;;=====================================================	
      37:  00:53ED                      ; función: 	mete en memoria la plantilla de datos base de la serpiente en el enemigo que se le pase por DE
      38:  00:53ED                      ; entrada:	DE (enemigo en concreto al que poner los datos, por ejemplo, enemigo1)
      39:  00:53ED                      ; salida: 	-
      40:  00:53ED                      ; toca:		-
      41:  00:53ED                      anade_enemigo_serpiente:
      42:  00:53ED  21 D9 53            		LD			HL, datos_serpiente
      43:  00:53F0  01 14 00            		LD			BC, ESTRUCTURA_ENEMIGO
      44:  00:53F3  ED B0               		LDIR
      45:  00:53F5                      fin_anade_enemigo_serpiente:
      46:  00:53F5  C9                  		RET
      47:  00:53F6                      
      48:  00:53F6                      
      49:  00:53F6                      ;;=====================================================
      50:  00:53F6                      ;;ACTUALIZA_VALORES_SERPIENTE
      51:  00:53F6                      ;;=====================================================	
      52:  00:53F6                      ; función: 	inicializa valores aleatorios de la serpiente
      53:  00:53F6                      ; entrada:	IX que equivaldrá a qué nº de enemigo estamos inicializando (por ejemplo enemigo1)
      54:  00:53F6                      ; salida: 	posicion_anterior_arana
      55:  00:53F6                      ; toca:		-
      56:  00:53F6                      actualiza_valores_serpiente:
      57:  00:53F6                      fin_actualiza_valores_serpiente:
      58:  00:53F6                      		
      59:  00:53F6                      		
      60:  00:53F6                      ;;=====================================================
      61:  00:53F6                      ;;MOVER_SERPIENTE
      62:  00:53F6                      ;;=====================================================	
      63:  00:53F6                      ; función: hace todo lo que haga falta de acciones cada vez que le toca al programa enfocarse en la serpiente: su ataque, su sptrite, etc...
      64:  00:53F6                      ; entrada: IX (enemigo en concreto al que poner los datos, por ejemplo, enemigo1)
      65:  00:53F6                      ; salida: 	-
      66:  00:53F6                      ; toca:		-
      67:  00:53F6                      mover_serpiente:
      68:  00:53F6                      		;la parte y no se modifica
      69:  00:53F6  DD 7E 05            		LD			 A, (IX + ESTRUCTURA_ENEMIGO.posy)
      70:  00:53F9  FD 77 00            		LD			(IY), A
      71:  00:53FC                      		
      72:  00:53FC  CD 50 54            		CALL		calcula_serpiente_incrementox
      73:  00:53FF  DD 7E 04            		LD			 A, (IX + ESTRUCTURA_ENEMIGO.posx)
      74:  00:5402  FD 77 01            		LD			(IY + 1), A
      75:  00:5405                      		
      76:  00:5405  CD 13 54            		CALL		calcula_serpiente_escena
      77:  00:5408  DD 7E 10            		LD			 A, (IX + ESTRUCTURA_ENEMIGO.sprite_a)
      78:  00:540B  FD 77 02            		LD			(IY + 2), A		
      79:  00:540E                      		
      80:  00:540E                      		;colorea serpiente
      81:  00:540E  FD 36 03 0C         		LD			(IY + 3), SERPIENTE_COLOR
      82:  00:5412                      fin_mover_serpiente:
      83:  00:5412  C9                  		RET
      84:  00:5413                      
      85:  00:5413                      
      86:  00:5413                      ;;=====================================================
      87:  00:5413                      ;;CALCULA_SERPIENTE_ESCENA
      88:  00:5413                      ;;=====================================================	
      89:  00:5413                      calcula_serpiente_escena:
      90:  00:5413  3A 4A C0            		LD			 A, (heartbeat_serpiente)
      91:  00:5416  E6 10               		AND			SERPIENTE_VELESCENA
      92:  00:5418  C8                  		RET			 Z   	; IF TENGO QUE CAMBIAR DE ESCENA THEN
      93:  00:5419                      			;reseteo el cambio de escena de la serpiente
      94:  00:5419  AF                  			XOR			 A
      95:  00:541A  32 4A C0            			LD			(heartbeat_serpiente), A
      96:  00:541D                      			
      97:  00:541D  DD 7E 0A            		LD			 A, (IX + ESTRUCTURA_ENEMIGO.direccionx)
      98:  00:5420  B7                  		OR			 A
      99:  00:5421  CA 3A 54            		JP			 Z, .direccion_derecha
     100:  00:5424                      .direccion_izquierda:
     101:  00:5424  DD 7E 01            			LD			 A, (IX + ESTRUCTURA_ENEMIGO.escena)
     102:  00:5427  EE 01               			XOR			00000001b
     103:  00:5429  DD 77 01            			LD			(IX + ESTRUCTURA_ENEMIGO.escena), A
     104:  00:542C                      			
     105:  00:542C  B7                  			OR			 A
     106:  00:542D  CA 35 54            			JP			 Z, .escena_izquierda2
     107:  00:5430                      .escena_izquierda1:
     108:  00:5430  DD 36 10 28         			LD			 (IX + ESTRUCTURA_ENEMIGO.sprite_a), SERPIENTE_SPRITE1B
     109:  00:5434  C9                  			RET
     110:  00:5435                      .escena_izquierda2:
     111:  00:5435  DD 36 10 2C         			LD			 (IX + ESTRUCTURA_ENEMIGO.sprite_a), SERPIENTE_SPRITE2B
     112:  00:5439  C9                  			RET
     113:  00:543A                      			
     114:  00:543A                      .direccion_derecha:
     115:  00:543A  DD 7E 01            			LD			 A, (IX + ESTRUCTURA_ENEMIGO.escena)
     116:  00:543D  EE 01               			XOR			00000001b
     117:  00:543F  DD 77 01            			LD			(IX + ESTRUCTURA_ENEMIGO.escena), A
     118:  00:5442                      			
     119:  00:5442  B7                  			OR			 A
     120:  00:5443  CA 4B 54            			JP			 Z, .escena_derecha2
     121:  00:5446                      .escena_derecha1:
     122:  00:5446  DD 36 10 20         			LD			 (IX + ESTRUCTURA_ENEMIGO.sprite_a), SERPIENTE_SPRITE1A
     123:  00:544A  C9                  			RET
     124:  00:544B                      .escena_derecha2:
     125:  00:544B  DD 36 10 24         			LD			 (IX + ESTRUCTURA_ENEMIGO.sprite_a), SERPIENTE_SPRITE2A
     126:  00:544F  C9                  			RET
     127:  00:5450                      fin_calcula_serpiente_escena:
     128:  00:5450                      
     129:  00:5450                      
     130:  00:5450                      ;;=====================================================
     131:  00:5450                      ;;CALCULA_SERPIENTE_INCREMENTOY
     132:  00:5450                      ;;=====================================================	
     133:  00:5450                      		
     134:  00:5450                      
     135:  00:5450                      ;;=====================================================
     136:  00:5450                      ;;CALCULA_SERPIENTE_INCREMENTOX
     137:  00:5450                      ;;=====================================================	
     138:  00:5450                      calcula_serpiente_incrementox:
     139:  00:5450  DD 7E 0A            		LD			 A, (IX + ESTRUCTURA_ENEMIGO.direccionx)
     140:  00:5453  B7                  		OR			 A
     141:  00:5454  C2 67 54            		JP			NZ, .sentido_izquierda
     142:  00:5457                      .sentido_derecha:
     143:  00:5457  DD 34 04            		INC			(IX + ESTRUCTURA_ENEMIGO.posx)
     144:  00:545A  DD 35 0C            		DEC			(IX + ESTRUCTURA_ENEMIGO.pasos)
     145:  00:545D  C0                  		RET			NZ
     146:  00:545E                      			;implica que se han terminado los pasos y hay que cambiar de sentido
     147:  00:545E  DD 36 0A 01         			LD			(IX + ESTRUCTURA_ENEMIGO.direccionx), DIRIZQUIERDA
     148:  00:5462  DD 36 0C A0         			LD			(IX + ESTRUCTURA_ENEMIGO.pasos), SERPIENTE_PASOS
     149:  00:5466  C9                  		RET	
     150:  00:5467                      .sentido_izquierda:
     151:  00:5467  DD 35 04            		DEC			(IX + ESTRUCTURA_ENEMIGO.posx)
     152:  00:546A  DD 35 0C            		DEC			(IX + ESTRUCTURA_ENEMIGO.pasos)
     153:  00:546D  C0                  		RET			NZ
     154:  00:546E                      			;implica que se han terminado los pasos y hay que cambiar de sentido
     155:  00:546E  DD 36 0A 00         			LD			(IX + ESTRUCTURA_ENEMIGO.direccionx), DIRDERECHA
     156:  00:5472  DD 36 0C A0         			LD			(IX + ESTRUCTURA_ENEMIGO.pasos), SERPIENTE_PASOS
     157:  00:5476  C9                  		RET	
     158:  00:5477                      fin_calcula_serpiente_incrementox:
      13.  00:5477                      include "subr_enemigo_lobo.asm"
       1:  00:5477                      ;;=====================================================
       2:  00:5477                      ;;CONTANTES LOBO
       3:  00:5477                      ;;=====================================================
       4:  00:5477                      datos_lobo:
       5:  00:5477  06                  			DB		TIPOLOBO		;(activo_tipo) si inactivo = 0 si <> 0 es el tipo de enemigo
       6:  00:5478  00                  			DB		0		;(escena) sprite a mostrar 1/2
       7:  00:5479  10                  			DB		00010000b		;(cont_sig_escena) retardo_explosion ;contador para ver cuando cambiar de sprite (y retardo_explosión irá hasta cero antes de que desaparezca la explosión)
       8:  00:547A  0A                  			DB		10		;(energia) energía del enemigo antes de morir
       9:  00:547B  08                  			DB		LOBO_POSX		;(posx) pos x para mover y punto central del sprite para revisar disparo
      10:  00:547C  5F                  			DB		LOBO_POSY		;(posy) pos y para mover y punto central del sprite para revisar disparo
      11:  00:547D  08                  			DB		8		;(radiox) radio x del enemigo para cuando se dispare encima
      12:  00:547E  08                  			DB		8		;(radioy) radio y del enemigo para cuando se dispare encima
      13:  00:547F  00                  			DB		0		;(incx) incremento x para mover
      14:  00:5480  00                  			DB		0		;(inxy) incremento y para mover
      15:  00:5481  00                  			DB		DIRDERECHA		;(direccionx) 0 derecha <> 0 izquierda // 0 abajo <> 0 arriba
      16:  00:5482  00                  			DB		0		;(direcciony) 0 derecha <> 0 izquierda // 0 abajo <> 0 arriba
      17:  00:5483  D0                  			DB		LOBO_PASOS		;(pasos) pasos para no comprobar los límites de pentalla, sólo si pasos ha llegado a 0
      18:  00:5484  00                  			DB		0		;(radio) radio para movimientos circulares
      19:  00:5485  94 54               			DW		mover_lobo		;(ptr_mover) puntero a subrutina que moverá el enemigo según el tipo de enemigo (se pasa al inicializar)
      20:  00:5487  40                  			DB		LOBO_SPRITE1A	;izq arriba
      21:  00:5488  44                  			DB		LOBO_SPRITE2A	;der_arriba
      22:  00:5489  48                  			DB		LOBO_SPRITE3A	;izq abajo
      23:  00:548A  4C                  			DB		LOBO_SPRITE4A	;der_abajo
      24:  00:548B                      
      25:  00:548B                      
      26:  00:548B                      ;;=====================================================
      27:  00:548B                      ;;SUBRUTINAS MANEJO DE LOBO
      28:  00:548B                      ;;=====================================================	
      29:  00:548B                      
      30:  00:548B                      
      31:  00:548B                      ;;=====================================================
      32:  00:548B                      ;;ANADE_ENEMIGO_LOBO
      33:  00:548B                      ;;=====================================================	
      34:  00:548B                      ; función: 	mete en memoria la plantilla de datos base del lobo en el enemigo que se le pase por DE
      35:  00:548B                      ; entrada:	DE (enemigo en concreto al que poner los datos, por ejemplo, enemigo1)
      36:  00:548B                      ; salida: 	-
      37:  00:548B                      ; toca:		-
      38:  00:548B                      anade_enemigo_lobo:
      39:  00:548B  21 77 54            		LD			HL, datos_lobo
      40:  00:548E  01 14 00            		LD			BC, ESTRUCTURA_ENEMIGO
      41:  00:5491  ED B0               		LDIR
      42:  00:5493                      fin_anade_enemigo_lobo:
      43:  00:5493  C9                  		RET
      44:  00:5494                      
      45:  00:5494                      
      46:  00:5494                      ;;=====================================================
      47:  00:5494                      ;;ACTUALIZA_VALORES_LOBO
      48:  00:5494                      ;;=====================================================	
      49:  00:5494                      ; función: 	inicializa valores aleatorios del lobo
      50:  00:5494                      ; entrada:	IX que equivaldrá a qué nº de enemigo estamos inicializando (por ejemplo enemigo1)
      51:  00:5494                      ; salida: 	posicion_anterior_arana
      52:  00:5494                      ; toca:		-
      53:  00:5494                      actualiza_valores_lobo:
      54:  00:5494                      fin_actualiza_valores_lobo:
      55:  00:5494                      		
      56:  00:5494                      		
      57:  00:5494                      ;;=====================================================
      58:  00:5494                      ;;MOVER_LOBO
      59:  00:5494                      ;;=====================================================	
      60:  00:5494                      ; función: hace todo lo que haga falta de acciones cada vez que le toca al programa enfocarse en el lobo: su ataque, su sptrite, etc...
      61:  00:5494                      ; entrada: IX (enemigo en concreto al que poner los datos, por ejemplo, enemigo1)
      62:  00:5494                      ; salida: 	-
      63:  00:5494                      ; toca:		-
      64:  00:5494                      mover_lobo:
      65:  00:5494                      		;no se mueve en el eje y
      66:  00:5494  DD 7E 05            		LD			 A, (IX + ESTRUCTURA_ENEMIGO.posy)
      67:  00:5497  FD 77 00            		LD			(IY), A
      68:  00:549A  FD 77 04            		LD			(IY + 4), A
      69:  00:549D                      		
      70:  00:549D  CD FF 54            		CALL		calcula_lobo_incrementox
      71:  00:54A0  DD 7E 04            		LD			 A, (IX + ESTRUCTURA_ENEMIGO.posx)
      72:  00:54A3  FD 77 01            		LD			(IY + 1), A
      73:  00:54A6  C6 10               		ADD			16
      74:  00:54A8  FD 77 05            		LD			(IY + 5), A
      75:  00:54AB                      		
      76:  00:54AB  CD C2 54            		CALL		calcula_lobo_escena		
      77:  00:54AE  DD 7E 10            		LD			 A, (IX + ESTRUCTURA_ENEMIGO.sprite_a)
      78:  00:54B1  FD 77 02            		LD			(IY + 2), A
      79:  00:54B4  C6 04               		ADD			 4
      80:  00:54B6  FD 77 06            		LD			(IY + 6), A
      81:  00:54B9                      		
      82:  00:54B9                      		;colorea lobo
      83:  00:54B9  FD 36 03 01         		LD			(IY + 3), LOBO_COLOR
      84:  00:54BD  FD 36 07 01         		LD			(IY + 7), LOBO_COLOR
      85:  00:54C1                      fin_mover_lobo:
      86:  00:54C1  C9                  		RET
      87:  00:54C2                      
      88:  00:54C2                      
      89:  00:54C2                      ;;=====================================================
      90:  00:54C2                      ;;CALCULA_LOBO_ESCENA
      91:  00:54C2                      ;;=====================================================	
      92:  00:54C2                      calcula_lobo_escena:
      93:  00:54C2  3A 4D C0            		LD			 A, (heartbeat_lobo)
      94:  00:54C5  E6 10               		AND			LOBO_VELESCENA
      95:  00:54C7  C8                  		RET			 Z   	; IF TENGO QUE CAMBIAR DE ESCENA THEN
      96:  00:54C8                      			;reseteo el cambio de escena del lobo
      97:  00:54C8  AF                  			XOR			 A
      98:  00:54C9  32 4D C0            			LD			(heartbeat_lobo), A
      99:  00:54CC                      			
     100:  00:54CC  DD 7E 0A            		LD			 A, (IX + ESTRUCTURA_ENEMIGO.direccionx)
     101:  00:54CF  B7                  		OR			 A
     102:  00:54D0  CA E9 54            		JP			 Z, .direccion_derecha
     103:  00:54D3                      .direccion_izquierda:
     104:  00:54D3  DD 7E 01            			LD			 A, (IX + ESTRUCTURA_ENEMIGO.escena)
     105:  00:54D6  EE 01               			XOR			00000001b
     106:  00:54D8  DD 77 01            			LD			(IX + ESTRUCTURA_ENEMIGO.escena), A
     107:  00:54DB                      			
     108:  00:54DB  B7                  			OR			 A
     109:  00:54DC  CA E4 54            			JP			 Z, .escena_izquierda2
     110:  00:54DF                      .escena_izquierda1:
     111:  00:54DF  DD 36 10 50         				LD			 (IX + ESTRUCTURA_ENEMIGO.sprite_a), LOBO_SPRITE1B
     112:  00:54E3  C9                  				RET
     113:  00:54E4                      .escena_izquierda2:
     114:  00:54E4  DD 36 10 58         				LD			 (IX + ESTRUCTURA_ENEMIGO.sprite_a), LOBO_SPRITE3B
     115:  00:54E8  C9                  				RET
     116:  00:54E9                      			
     117:  00:54E9                      .direccion_derecha:
     118:  00:54E9  DD 7E 01            			LD			 A, (IX + ESTRUCTURA_ENEMIGO.escena)
     119:  00:54EC  EE 01               			XOR			00000001b
     120:  00:54EE  DD 77 01            			LD			(IX + ESTRUCTURA_ENEMIGO.escena), A
     121:  00:54F1                      			
     122:  00:54F1  B7                  			OR			 A
     123:  00:54F2  CA FA 54            			JP			 Z, .escena_derecha2
     124:  00:54F5                      .escena_derecha1:
     125:  00:54F5  DD 36 10 40         				LD			 (IX + ESTRUCTURA_ENEMIGO.sprite_a), LOBO_SPRITE1A
     126:  00:54F9  C9                  				RET
     127:  00:54FA                      .escena_derecha2:
     128:  00:54FA  DD 36 10 48         				LD			 (IX + ESTRUCTURA_ENEMIGO.sprite_a), LOBO_SPRITE3A
     129:  00:54FE  C9                  				RET
     130:  00:54FF                      fin_calcula_lobo_escena:
     131:  00:54FF                      
     132:  00:54FF                      
     133:  00:54FF                      ;;=====================================================
     134:  00:54FF                      ;;CALCULA_LOBO_INCREMENTOY
     135:  00:54FF                      ;;=====================================================	
     136:  00:54FF                      		
     137:  00:54FF                      
     138:  00:54FF                      ;;=====================================================
     139:  00:54FF                      ;;CALCULA_LOBO_INCREMENTOX
     140:  00:54FF                      ;;=====================================================	
     141:  00:54FF                      calcula_lobo_incrementox:
     142:  00:54FF  DD 7E 0A            			LD			 A, (IX + ESTRUCTURA_ENEMIGO.direccionx)
     143:  00:5502  B7                  			OR			 A
     144:  00:5503  CA 0C 55            			JP			 Z, .mueve_derecha
     145:  00:5506                      .mueve_izquierda:
     146:  00:5506  DD 35 04            				DEC			(IX + ESTRUCTURA_ENEMIGO.posx)
     147:  00:5509  C3 0F 55            				JP			.fin_mueve_posx
     148:  00:550C                      .mueve_derecha:
     149:  00:550C  DD 34 04            				INC			(IX + ESTRUCTURA_ENEMIGO.posx)
     150:  00:550F                      .fin_mueve_posx:
     151:  00:550F                      
     152:  00:550F  DD 35 0C            			DEC			(IX + ESTRUCTURA_ENEMIGO.pasos)
     153:  00:5512  C0                  			RET			NZ
     154:  00:5513                      				;cambio dirección
     155:  00:5513  DD 7E 0A            				LD			 A, (IX + ESTRUCTURA_ENEMIGO.direccionx)
     156:  00:5516  EE 01               				XOR			00000001b
     157:  00:5518  DD 77 0A            				LD			(IX + ESTRUCTURA_ENEMIGO.direccionx), A
     158:  00:551B                      				;resetea pasos
     159:  00:551B  DD 36 0C D0         				LD			(IX + ESTRUCTURA_ENEMIGO.pasos), LOBO_PASOS
     160:  00:551F                      fin_calcula_lobo_incrementox:
     161:  00:551F  C9                  		RET
      14.  00:5520                      include "subr_enemigo_jefelobo.asm"
       1:  00:5520                      ;;=====================================================
       2:  00:5520                      ;;CONTANTES JEFELOBO
       3:  00:5520                      ;;=====================================================
       4:  00:5520                      datos_jefelobo:
       5:  00:5520  0E                  			DB		TIPOJEFELOBO;(activo_tipo) si inactivo = 0 si <> 0 es el tipo de enemigo
       6:  00:5521  00                  			DB		0		;(escena) sprite a mostrar 1/2
       7:  00:5522  10                  			DB		00010000b		;(cont_sig_escena) retardo_explosion ;contador para ver cuando cambiar de sprite (y retardo_explosión irá hasta cero antes de que desaparezca la explosión)
       8:  00:5523  80                  			DB		128		;(energia) energía del enemigo antes de morir
       9:  00:5524  08                  			DB		JEFELOBO_X	;(posx) pos x para mover y punto central del sprite para revisar disparo
      10:  00:5525  5C                  			DB		JEFELOBO_Y	;(posy) pos y para mover y punto central del sprite para revisar disparo
      11:  00:5526  08                  			DB		8		;(radiox) radio x del enemigo para cuando se dispare encima
      12:  00:5527  08                  			DB		8		;(radioy) radio y del enemigo para cuando se dispare encima
      13:  00:5528  00                  			DB		0		;(incx) incremento x para mover
      14:  00:5529  00                  			DB		0		;(inxy) incremento y para mover
      15:  00:552A  00                  			DB		0		;(direccionx) 0 derecha <> 0 izquierda // 0 abajo <> 0 arriba
      16:  00:552B  01                  			DB		00000001b	;(direcciony) 0 derecha <> 0 izquierda // 0 abajo <> 0 arriba
      17:  00:552C  CD                  			DB		JEFELOBO_LIM_PASOS1	;(pasos) pasos para no comprobar los límites de pentalla, sólo si pasos ha llegado a 0
      18:  00:552D  00                  			DB		0		;pocavida 0 y 1 para indicar cuando le queda poca vida al enemigo
      19:  00:552E  46 55               			DW		mover_jefelobo		;(ptr_mover) puntero a subrutina que moverá el enemigo según el tipo de enemigo (se pasa al inicializar)
      20:  00:5530  C0                  			DB		JEFELOBO_SPRITE1A	;izq arriba
      21:  00:5531  C4                  			DB		JEFELOBO_SPRITE2A	;der_arriba
      22:  00:5532  C8                  			DB		JEFELOBO_SPRITE3A	;izq abajo
      23:  00:5533  CC                  			DB		JEFELOBO_SPRITE4A	;der_abajo
      24:  00:5534                      			
      25:  00:5534                      			
      26:  00:5534                      ;;=====================================================
      27:  00:5534                      ;;SUBRUTINAS MANEJO DE JEFELOBO
      28:  00:5534                      ;;=====================================================	
      29:  00:5534                      
      30:  00:5534                      
      31:  00:5534                      ;;=====================================================
      32:  00:5534                      ;;ANADE_ENEMIGO_JEFELOBO
      33:  00:5534                      ;;=====================================================	
      34:  00:5534                      ; función: 	mete en memoria la plantilla de datos base del lobo en el enemigo que se le pase por DE
      35:  00:5534                      ; entrada:	DE (enemigo en concreto al que poner los datos, por ejemplo, enemigo1)
      36:  00:5534                      ; salida: 	-
      37:  00:5534                      ; toca:		-
      38:  00:5534                      anade_enemigo_jefelobo:
      39:  00:5534  21 20 55            		LD			HL, datos_jefelobo
      40:  00:5537  01 14 00            		LD			BC, ESTRUCTURA_ENEMIGO
      41:  00:553A  ED B0               		LDIR
      42:  00:553C                      fin_anade_enemigo_jefelobo:
      43:  00:553C  C9                  		RET
      44:  00:553D                      
      45:  00:553D                      
      46:  00:553D                      ;;=====================================================
      47:  00:553D                      ;;ACTUALIZA_VALORES_LOBO
      48:  00:553D                      ;;=====================================================	
      49:  00:553D                      ; función: 	inicializa valores aleatorios del lobo
      50:  00:553D                      ; entrada:	IX que equivaldrá a qué nº de enemigo estamos inicializando (por ejemplo enemigo1)
      51:  00:553D                      ; salida: 	posicion_anterior_arana
      52:  00:553D                      ; toca:		-
      53:  00:553D                      actualiza_valores_jefelobo_BR:
      54:  00:553D  DD 36 03 40         		LD			(IX + ESTRUCTURA_ENEMIGO.energia), 64
      55:  00:5541                      		
      56:  00:5541                      		;quitar cuando se cree el daño a los jefes
      57:  00:5541  DD 36 0D 01         		LD			 (IX + ESTRUCTURA_ENEMIGO.pocavida), 1
      58:  00:5545                      fin_actualiza_valores_jefelobo_BR:
      59:  00:5545  C9                  		RET
      60:  00:5546                      
      61:  00:5546                      		
      62:  00:5546                      ;;=====================================================
      63:  00:5546                      ;;MOVER_JEFELOBO
      64:  00:5546                      ;;=====================================================	
      65:  00:5546                      ; función: hace todo lo que haga falta de acciones cada vez que le toca al programa enfocarse en el jefelobo: su ataque, su sptrite, etc...
      66:  00:5546                      ; entrada: IX (enemigo en concreto al que poner los datos, por ejemplo, enemigo1)
      67:  00:5546                      ; salida: 	-
      68:  00:5546                      ; toca:		-
      69:  00:5546                      mover_jefelobo:	
      70:  00:5546  CD 26 56            		CALL		calcula_jefelobo_posyx
      71:  00:5549                      		
      72:  00:5549  DD 7E 05            		LD			 A, (IX + ESTRUCTURA_ENEMIGO.posy)
      73:  00:554C  FD 77 00            		LD			(IY), A
      74:  00:554F  FD 77 08            		LD			(IY + 8), A
      75:  00:5552  C6 10               		ADD			16
      76:  00:5554  FD 77 04            		LD			(IY + 4), A
      77:  00:5557  FD 77 0C            		LD			(IY + 12), A
      78:  00:555A                      		
      79:  00:555A  DD 7E 04            		LD			 A, (IX + ESTRUCTURA_ENEMIGO.posx)
      80:  00:555D  FD 77 01            		LD			(IY + 1), A
      81:  00:5560  FD 77 05            		LD			(IY + 5), A
      82:  00:5563  C6 10               		ADD 		16
      83:  00:5565  FD 77 09            		LD			(IY + 9), A
      84:  00:5568  FD 77 0D            		LD			(IY + 13), A
      85:  00:556B                      		
      86:  00:556B  CD 68 56            		CALL		verifica_siguiente_posicion_jefelobo
      87:  00:556E                      		
      88:  00:556E  CD B9 55            		CALL		calcula_jefelobo_escena		
      89:  00:5571  DD 7E 10            		LD			 A, (IX + ESTRUCTURA_ENEMIGO.sprite_a)
      90:  00:5574  FD 77 02            		LD			(IY + 2), A
      91:  00:5577  DD 7E 11            		LD			 A, (IX + ESTRUCTURA_ENEMIGO.sprite_b)
      92:  00:557A  FD 77 06            		LD			(IY + 6), A
      93:  00:557D  DD 7E 12            		LD			 A, (IX + ESTRUCTURA_ENEMIGO.sprite_c)
      94:  00:5580  FD 77 0A            		LD			(IY + 10), A
      95:  00:5583  DD 7E 13            		LD			 A, (IX + ESTRUCTURA_ENEMIGO.sprite_d)
      96:  00:5586  FD 77 0E            		LD			(IY + 14), A
      97:  00:5589                      
      98:  00:5589                      		;colorea jefelobo
      99:  00:5589  DD 7E 0D            		LD			 A, (IX + ESTRUCTURA_ENEMIGO.pocavida)
     100:  00:558C  B7                  		OR			 A
     101:  00:558D  CA A8 55            		JP			 Z, .nointercambiacolor
     102:  00:5590  DD 7E 01            			LD			 A, (IX + ESTRUCTURA_ENEMIGO.escena)
     103:  00:5593  B7                  			OR			 A
     104:  00:5594  CA A8 55            			JP			 Z, .nointercambiacolor	
     105:  00:5597  FD 36 03 08         				LD			(IY + 3),  COLROJO
     106:  00:559B  FD 36 07 08         				LD			(IY + 7),  COLROJO
     107:  00:559F  FD 36 0B 08         				LD			(IY + 11), COLROJO
     108:  00:55A3  FD 36 0F 08         				LD			(IY + 15), COLROJO
     109:  00:55A7  C9                  				RET
     110:  00:55A8                      .nointercambiacolor:		
     111:  00:55A8  FD 36 03 01         		LD			(IY + 3),  JEFELOBO_COLOR
     112:  00:55AC  FD 36 07 01         		LD			(IY + 7),  JEFELOBO_COLOR
     113:  00:55B0  FD 36 0B 01         		LD			(IY + 11), JEFELOBO_COLOR
     114:  00:55B4  FD 36 0F 01         		LD			(IY + 15), JEFELOBO_COLOR
     115:  00:55B8                      fin_mover_jefelobo:
     116:  00:55B8  C9                  		RET
     117:  00:55B9                      
     118:  00:55B9                      
     119:  00:55B9                      ;;=====================================================
     120:  00:55B9                      ;;CALCULA_JEFELOBO_ESCENA
     121:  00:55B9                      ;;=====================================================	
     122:  00:55B9                      calcula_jefelobo_escena:
     123:  00:55B9  3A 54 C0            		LD			 A, (heartbeat_general)
     124:  00:55BC  E6 10               		AND			JEFELOBO_VELESCENA
     125:  00:55BE  C8                  		RET			 Z   	; IF TENGO QUE CAMBIAR DE ESCENA THEN
     126:  00:55BF                      			;reseteo el cambio de escena del jefelobo
     127:  00:55BF  AF                  			XOR			 A
     128:  00:55C0  32 54 C0            			LD			(heartbeat_general), A
     129:  00:55C3                      			
     130:  00:55C3  DD 7E 0A            		LD			 A, (IX + ESTRUCTURA_ENEMIGO.direccionx)
     131:  00:55C6  B7                  		OR			 A
     132:  00:55C7  CA F8 55            		JP			 Z, .direccion_derecha
     133:  00:55CA                      .direccion_izquierda:
     134:  00:55CA  DD 7E 01            			LD			 A, (IX + ESTRUCTURA_ENEMIGO.escena)
     135:  00:55CD  EE 01               			XOR			00000001b
     136:  00:55CF  DD 77 01            			LD			(IX + ESTRUCTURA_ENEMIGO.escena), A
     137:  00:55D2                      			
     138:  00:55D2  B7                  			OR			 A
     139:  00:55D3  CA E7 55            			JP			 Z, .escena_izquierda2
     140:  00:55D6                      .escena_izquierda1:
     141:  00:55D6  DD 36 10 E0         				LD			(IX + ESTRUCTURA_ENEMIGO.sprite_a), JEFELOBO_SPRITE1C
     142:  00:55DA  DD 36 11 E4         				LD			(IX + ESTRUCTURA_ENEMIGO.sprite_b), JEFELOBO_SPRITE2C
     143:  00:55DE  DD 36 12 E8         				LD			(IX + ESTRUCTURA_ENEMIGO.sprite_c), JEFELOBO_SPRITE3C
     144:  00:55E2  DD 36 13 EC         				LD			(IX + ESTRUCTURA_ENEMIGO.sprite_d), JEFELOBO_SPRITE4C
     145:  00:55E6  C9                  				RET
     146:  00:55E7                      .escena_izquierda2:
     147:  00:55E7  DD 36 10 F0         				LD			(IX + ESTRUCTURA_ENEMIGO.sprite_a), JEFELOBO_SPRITE1D
     148:  00:55EB  DD 36 11 F4         				LD			(IX + ESTRUCTURA_ENEMIGO.sprite_b), JEFELOBO_SPRITE2D
     149:  00:55EF  DD 36 12 F8         				LD			(IX + ESTRUCTURA_ENEMIGO.sprite_c), JEFELOBO_SPRITE3D
     150:  00:55F3  DD 36 13 FC         				LD			(IX + ESTRUCTURA_ENEMIGO.sprite_d), JEFELOBO_SPRITE4D
     151:  00:55F7  C9                  				RET
     152:  00:55F8                      			
     153:  00:55F8                      .direccion_derecha:
     154:  00:55F8  DD 7E 01            			LD			 A, (IX + ESTRUCTURA_ENEMIGO.escena)
     155:  00:55FB  EE 01               			XOR			00000001b
     156:  00:55FD  DD 77 01            			LD			(IX + ESTRUCTURA_ENEMIGO.escena), A
     157:  00:5600                      			
     158:  00:5600  B7                  			OR			 A
     159:  00:5601  CA 15 56            			JP			 Z, .escena_derecha2
     160:  00:5604                      .escena_derecha1:
     161:  00:5604  DD 36 10 C0         				LD			(IX + ESTRUCTURA_ENEMIGO.sprite_a), JEFELOBO_SPRITE1A
     162:  00:5608  DD 36 11 C4         				LD			(IX + ESTRUCTURA_ENEMIGO.sprite_b), JEFELOBO_SPRITE2A
     163:  00:560C  DD 36 12 C8         				LD			(IX + ESTRUCTURA_ENEMIGO.sprite_c), JEFELOBO_SPRITE3A
     164:  00:5610  DD 36 13 CC         				LD			(IX + ESTRUCTURA_ENEMIGO.sprite_d), JEFELOBO_SPRITE4A
     165:  00:5614  C9                  				RET
     166:  00:5615                      .escena_derecha2:
     167:  00:5615  DD 36 10 D0         				LD			(IX + ESTRUCTURA_ENEMIGO.sprite_a), JEFELOBO_SPRITE1B
     168:  00:5619  DD 36 11 D4         				LD			(IX + ESTRUCTURA_ENEMIGO.sprite_b), JEFELOBO_SPRITE2B
     169:  00:561D  DD 36 12 D8         				LD			(IX + ESTRUCTURA_ENEMIGO.sprite_c), JEFELOBO_SPRITE3B
     170:  00:5621  DD 36 13 DC         				LD			(IX + ESTRUCTURA_ENEMIGO.sprite_d), JEFELOBO_SPRITE4B
     171:  00:5625  C9                  				RET
     172:  00:5626                      fin_calcula_jefelobo_escena:
     173:  00:5626                      
     174:  00:5626                      ;;=====================================================
     175:  00:5626                      ;;CALCULA_JEFELOBO_POSYX
     176:  00:5626                      ;;=====================================================	
     177:  00:5626                      calcula_jefelobo_posyx:
     178:  00:5626  DD 46 0B            		LD			 B, (IX + ESTRUCTURA_ENEMIGO.direcciony)
     179:  00:5629                      
     180:  00:5629                      .mira_posicion0:
     181:  00:5629  78                  		LD			 A, B
     182:  00:562A  E6 01               		AND			00000001b
     183:  00:562C  28 04               		JR			 Z, .mira_posicion1
     184:  00:562E  DD 34 04            		INC			(IX + ESTRUCTURA_ENEMIGO.posx)
     185:  00:5631  C9                  		RET
     186:  00:5632                      		
     187:  00:5632                      .mira_posicion1:
     188:  00:5632  78                  		LD			 A, B
     189:  00:5633  E6 02               		AND			00000010b
     190:  00:5635  28 07               		JR			 Z, .mira_posicion2
     191:  00:5637  DD 35 04            		DEC			(IX + ESTRUCTURA_ENEMIGO.posx)
     192:  00:563A  DD 35 05            		DEC			(IX + ESTRUCTURA_ENEMIGO.posy)
     193:  00:563D  C9                  		RET
     194:  00:563E                      		
     195:  00:563E                      .mira_posicion2:
     196:  00:563E  78                  		LD			 A, B
     197:  00:563F  E6 04               		AND			00000100b
     198:  00:5641  28 04               		JR			 Z, .mira_posicion3
     199:  00:5643  DD 35 04            		DEC			(IX + ESTRUCTURA_ENEMIGO.posx)
     200:  00:5646  C9                  		RET
     201:  00:5647                      		
     202:  00:5647                      .mira_posicion3:
     203:  00:5647  78                  		LD			 A, B
     204:  00:5648  E6 08               		AND			00001000b
     205:  00:564A  28 07               		JR			 Z, .resetea_posicion
     206:  00:564C  DD 35 04            		DEC			(IX + ESTRUCTURA_ENEMIGO.posx)
     207:  00:564F  DD 34 05            		INC			(IX + ESTRUCTURA_ENEMIGO.posy)
     208:  00:5652  C9                  		RET
     209:  00:5653                      		
     210:  00:5653                      .resetea_posicion:
     211:  00:5653  DD 36 0B 01         		LD			(IX + ESTRUCTURA_ENEMIGO.direcciony), 00000001b
     212:  00:5657  DD 36 0A 00         		LD			(IX + ESTRUCTURA_ENEMIGO.direccionx), 0
     213:  00:565B  DD 36 0C CD         		LD			(IX + ESTRUCTURA_ENEMIGO.pasos), JEFELOBO_LIM_PASOS1
     214:  00:565F  DD 36 04 08         		LD			(IX + ESTRUCTURA_ENEMIGO.posx), JEFELOBO_X
     215:  00:5663  DD 36 05 5C         		LD			(IX + ESTRUCTURA_ENEMIGO.posy), JEFELOBO_Y
     216:  00:5667                      fin_calcula_jefelobo_posyx:
     217:  00:5667  C9                  		RET
     218:  00:5668                      
     219:  00:5668                      
     220:  00:5668                      ;;=====================================================
     221:  00:5668                      ;;VERIFICA_SIGUIENTE_POSICION_JEFELOBO
     222:  00:5668                      ;;=====================================================			
     223:  00:5668                      verifica_siguiente_posicion_jefelobo:
     224:  00:5668  DD 7E 0C            		LD			 A, (IX + ESTRUCTURA_ENEMIGO.pasos)
     225:  00:566B  B7                  		OR			 A
     226:  00:566C  CA 73 56            		JP			 Z, .modifica_posicion_jefelobo
     227:  00:566F                      .no_modifica_posicion_fantasma:
     228:  00:566F  DD 35 0C            			DEC			(IX + ESTRUCTURA_ENEMIGO.pasos)
     229:  00:5672  C9                  			RET
     230:  00:5673                      .modifica_posicion_jefelobo:		
     231:  00:5673                      			;paso a la siguiente posición
     232:  00:5673  DD CB 0B 06         			RLC			(IX + ESTRUCTURA_ENEMIGO.direcciony)
     233:  00:5677                      						
     234:  00:5677                      .mira_posicion1:
     235:  00:5677  DD 7E 0B            			LD			 A, (IX + ESTRUCTURA_ENEMIGO.direcciony)
     236:  00:567A  E6 02               			AND			00000010b
     237:  00:567C  28 09               			JR			 Z, .mira_posicion2
     238:  00:567E  DD 36 0A 01         			LD			(IX + ESTRUCTURA_ENEMIGO.direccionx), 1
     239:  00:5682  DD 36 0C 28         			LD			(IX + ESTRUCTURA_ENEMIGO.pasos), JEFELOBO_LIM_PASOS2
     240:  00:5686                      			
     241:  00:5686  C9                  			RET
     242:  00:5687                      .mira_posicion2:
     243:  00:5687  DD 7E 0B            			LD			 A, (IX + ESTRUCTURA_ENEMIGO.direcciony)
     244:  00:568A  E6 04               			AND			00000100b
     245:  00:568C  28 05               			JR			 Z, .mira_posicion3
     246:  00:568E  DD 36 0C 75         			LD			(IX + ESTRUCTURA_ENEMIGO.pasos), JEFELOBO_LIM_PASOS3
     247:  00:5692                      			
     248:  00:5692  C9                  			RET
     249:  00:5693                      .mira_posicion3:
     250:  00:5693  DD 36 0C 28         			LD			(IX + ESTRUCTURA_ENEMIGO.pasos), JEFELOBO_LIM_PASOS4
     251:  00:5697                      fin_verifica_siguiente_posicion_jefelobo:
     252:  00:5697  C9                  			RET
     253:  00:5698                      
     254:  00:5698                      
      15.  00:5698                      include "subr_enemigo_esqueleto.asm"
       1:  00:5698                      ;;=====================================================
       2:  00:5698                      ;;COSNTANTES ESQUELETO
       3:  00:5698                      ;;=====================================================		
       4:  00:5698                      datos_esqueleto:
       5:  00:5698  07                  			DB		TIPOESQUELETO	;(activo_tipo) si inactivo = 0 si <> 0 es el tipo de enemigo
       6:  00:5699  00                  			DB		0		;(escena) sprite a mostrar 1/2
       7:  00:569A  10                  			DB		00010000b		;(cont_sig_escena) retardo_explosion ;contador para ver cuando cambiar de sprite (y retardo_explosión irá hasta cero antes de que desaparezca la explosión)
       8:  00:569B  0A                  			DB		10		;(energia) energía del enemigo antes de morir
       9:  00:569C  00                  			DB		ESQUELETO_POSX	;(posx) pos x para mover y punto central del sprite para revisar disparo
      10:  00:569D  60                  			DB		ESQUELETO_POSY	;(posy) pos y para mover y punto central del sprite para revisar disparo
      11:  00:569E  08                  			DB		8		;(radiox) radio x del enemigo para cuando se dispare encima
      12:  00:569F  08                  			DB		8		;(radioy) radio y del enemigo para cuando se dispare encima
      13:  00:56A0  00                  			DB		0		;(incx) incremento x para mover
      14:  00:56A1  00                  			DB		0		;(inxy) incremento y para mover
      15:  00:56A2  00                  			DB		DIRDERECHA		;(direccionx) 0 derecha <> 0 izquierda // 0 abajo <> 0 arriba
      16:  00:56A3  00                  			DB		0		;(direcciony) 0 derecha <> 0 izquierda // 0 abajo <> 0 arriba
      17:  00:56A4  00                  			DB		0		;(pasos) pasos para no comprobar los límites de pentalla, sólo si pasos ha llegado a 0
      18:  00:56A5  00                  			DB		0		;(radio) radio para movimientos circulares
      19:  00:56A6  B5 56               			DW		mover_esqueleto		;(ptr_mover) puntero a subrutina que moverá el enemigo según el tipo de enemigo (se pasa al inicializar)
      20:  00:56A8  60                  			DB		ESQUELETO_SPRITE1A	;izq arriba
      21:  00:56A9  64                  			DB		ESQUELETO_SPRITE2A	;der_arriba
      22:  00:56AA  68                  			DB		ESQUELETO_SPRITE3A	;izq abajo
      23:  00:56AB  6C                  			DB		ESQUELETO_SPRITE4A	;der_abajo
      24:  00:56AC                      
      25:  00:56AC                      
      26:  00:56AC                      ;;=====================================================
      27:  00:56AC                      ;;SUBRUTINAS MANEJO DE ESQUELETO
      28:  00:56AC                      ;;=====================================================	
      29:  00:56AC                      
      30:  00:56AC                      
      31:  00:56AC                      ;;=====================================================
      32:  00:56AC                      ;;ANADE_ENEMIGO_ESQUELETO
      33:  00:56AC                      ;;=====================================================	
      34:  00:56AC                      ; función: 	mete en memoria la plantilla de datos base del lobo en el enemigo que se le pase por DE
      35:  00:56AC                      ; entrada:	DE (enemigo en concreto al que poner los datos, por ejemplo, enemigo1)
      36:  00:56AC                      ; salida: 	-
      37:  00:56AC                      ; toca:		-
      38:  00:56AC                      anade_enemigo_esqueleto:
      39:  00:56AC  21 98 56            		LD			HL, datos_esqueleto
      40:  00:56AF  01 14 00            		LD			BC, ESTRUCTURA_ENEMIGO
      41:  00:56B2  ED B0               		LDIR
      42:  00:56B4                      fin_anade_enemigo_esqueleto:
      43:  00:56B4  C9                  		RET
      44:  00:56B5                      
      45:  00:56B5                      
      46:  00:56B5                      ;;=====================================================
      47:  00:56B5                      ;;ACTUALIZA_VALORES_ESQUELETO 
      48:  00:56B5                      ;;=====================================================	
      49:  00:56B5                      ; función: 	inicializa valores aleatorios del lobo
      50:  00:56B5                      ; entrada:	IX que equivaldrá a qué nº de enemigo estamos inicializando (por ejemplo enemigo1)
      51:  00:56B5                      ; salida: 	posicion_anterior_arana
      52:  00:56B5                      ; toca:		-
      53:  00:56B5                      actualiza_valores_esqueleto:
      54:  00:56B5                      fin_actualiza_valores_esqueleto:
      55:  00:56B5                      		
      56:  00:56B5                      		
      57:  00:56B5                      ;;=====================================================
      58:  00:56B5                      ;;MOVER_ESQUELETO
      59:  00:56B5                      ;;=====================================================	
      60:  00:56B5                      ; función: hace todo lo que haga falta de acciones cada vez que le toca al programa enfocarse en el esqueleto: su ataque, su sptrite, etc...
      61:  00:56B5                      ; entrada: IX (enemigo en concreto al que poner los datos, por ejemplo, enemigo1)
      62:  00:56B5                      ; salida: 	-
      63:  00:56B5                      ; toca:		-
      64:  00:56B5                      mover_esqueleto:
      65:  00:56B5  CD 06 57            		CALL		calcula_esqueleto_incrementoy
      66:  00:56B8  DD 7E 05            		LD			 A, (IX + ESTRUCTURA_ENEMIGO.posy)
      67:  00:56BB  FD 77 00            		LD			(IY), A
      68:  00:56BE  C6 10               		ADD			16
      69:  00:56C0  FD 77 04            		LD			(IY + 4), A
      70:  00:56C3                      		
      71:  00:56C3  CD 18 57            		CALL		calcula_esqueleto_incrementox
      72:  00:56C6  DD 7E 04            		LD			 A, (IX + ESTRUCTURA_ENEMIGO.posx)
      73:  00:56C9  FD 77 01            		LD			(IY + 1), A
      74:  00:56CC  FD 77 05            		LD			(IY + 5), A
      75:  00:56CF                      		
      76:  00:56CF  CD E6 56            		CALL		calcula_esqueleto_escena		
      77:  00:56D2  DD 7E 10            		LD			 A, (IX + ESTRUCTURA_ENEMIGO.sprite_a)
      78:  00:56D5  FD 77 02            		LD			(IY + 2), A
      79:  00:56D8  C6 04               		ADD			 4
      80:  00:56DA  FD 77 06            		LD			(IY + 6), A
      81:  00:56DD                      		
      82:  00:56DD                      		;colorea esqueleto
      83:  00:56DD  FD 36 03 0F         		LD			(IY + 3), ESQUELETO_COLOR
      84:  00:56E1  FD 36 07 0F         		LD			(IY + 7), ESQUELETO_COLOR
      85:  00:56E5                      fin_mover_esqueleto:
      86:  00:56E5  C9                  		RET
      87:  00:56E6                      
      88:  00:56E6                      
      89:  00:56E6                      ;;=====================================================
      90:  00:56E6                      ;;CALCULA_ESQUELETO_ESCENA
      91:  00:56E6                      ;;=====================================================	
      92:  00:56E6                      calcula_esqueleto_escena:
      93:  00:56E6  3A 4E C0            		LD			 A, (heartbeat_esqueleto)
      94:  00:56E9  E6 10               		AND			ESQUELETO_VELESCENA
      95:  00:56EB  C8                  		RET			 Z   	; IF TENGO QUE CAMBIAR DE ESCENA THEN
      96:  00:56EC                      			;reseteo el cambio de escena del esqueleto
      97:  00:56EC  AF                  			XOR			 A
      98:  00:56ED  32 4E C0            			LD			(heartbeat_esqueleto), A
      99:  00:56F0                      
     100:  00:56F0                      .direccion_derecha:
     101:  00:56F0  DD 7E 01            		LD			 A, (IX + ESTRUCTURA_ENEMIGO.escena)
     102:  00:56F3  EE 01               		XOR			00000001b
     103:  00:56F5  DD 77 01            		LD			(IX + ESTRUCTURA_ENEMIGO.escena), A
     104:  00:56F8                      			
     105:  00:56F8  B7                  		OR			 A
     106:  00:56F9  CA 01 57            		JP			 Z, .escena_derecha2
     107:  00:56FC                      .escena_derecha1:
     108:  00:56FC  DD 36 10 60         			LD			 (IX + ESTRUCTURA_ENEMIGO.sprite_a), ESQUELETO_SPRITE1A
     109:  00:5700  C9                  			RET
     110:  00:5701                      .escena_derecha2:
     111:  00:5701  DD 36 10 68         			LD			 (IX + ESTRUCTURA_ENEMIGO.sprite_a), ESQUELETO_SPRITE3A
     112:  00:5705  C9                  			RET
     113:  00:5706                      fin_calcula_esqueleto_escena:
     114:  00:5706                      		;RET
     115:  00:5706                      
     116:  00:5706                      
     117:  00:5706                      ;;=====================================================
     118:  00:5706                      ;;CALCULA_ESQUELETO_INCREMENTOY
     119:  00:5706                      ;;=====================================================	
     120:  00:5706                      calcula_esqueleto_incrementoy:
     121:  00:5706  DD 7E 04            		LD			 A, (IX + ESTRUCTURA_ENEMIGO.posx)
     122:  00:5709  E6 3F               		AND			00111111b ;63
     123:  00:570B  FE 20               		CP			00100000b ;32
     124:  00:570D  D2 14 57            		JP			NC, .bajo
     125:  00:5710                      .subo:
     126:  00:5710  DD 35 05            			DEC			(IX + ESTRUCTURA_ENEMIGO.posy)
     127:  00:5713  C9                  			RET
     128:  00:5714                      .bajo:
     129:  00:5714  DD 34 05            			INC			(IX + ESTRUCTURA_ENEMIGO.posy)
     130:  00:5717  C9                  			RET
     131:  00:5718                      fin_calcula_esqueleto_incrementoy:
     132:  00:5718                      		
     133:  00:5718                      
     134:  00:5718                      ;;=====================================================
     135:  00:5718                      ;;CALCULA_ESQUELETO_INCREMENTOX
     136:  00:5718                      ;;====================================================	
     137:  00:5718                      calcula_esqueleto_incrementox:
     138:  00:5718  DD 7E 04            		LD			 A, (IX + ESTRUCTURA_ENEMIGO.posx)
     139:  00:571B  3C                  		INC			 A
     140:  00:571C  DD 77 04            		LD			(IX + ESTRUCTURA_ENEMIGO.posx), A	
     141:  00:571F                      fin_calcula_esqueleto_incrementox:
     142:  00:571F  C9                  		RET
      16.  00:5720                      include "subr_enemigo_zombi.asm"
       1:  00:5720                      ;;=====================================================
       2:  00:5720                      ;;COSNTANTES ZOMBI
       3:  00:5720                      ;;=====================================================		
       4:  00:5720                      datos_zombi:
       5:  00:5720  08                  			DB		TIPOZOMBI	;(activo_tipo) si inactivo = 0 si <> 0 es el tipo de enemigo
       6:  00:5721  00                  			DB		0		;(escena) sprite a mostrar 1/2
       7:  00:5722  10                  			DB		00010000b	;(cont_sig_escena) retardo_explosion ;contador para ver cuando cambiar de sprite (y retardo_explosión irá hasta cero antes de que desaparezca la explosión)
       8:  00:5723  0A                  			DB		10		;(energia) energía del enemigo antes de morir
       9:  00:5724  48                  			DB		ZOMBI_POSX	;(posx) pos x para mover y punto central del sprite para revisar disparo
      10:  00:5725  40                  			DB		ZOMBI_POSY	;(posy) pos y para mover y punto central del sprite para revisar disparo
      11:  00:5726  08                  			DB		8		;(radiox) radio x del enemigo para cuando se dispare encima
      12:  00:5727  08                  			DB		8		;(radioy) radio y del enemigo para cuando se dispare encima
      13:  00:5728  00                  			DB		0		;(incx) incremento x para mover
      14:  00:5729  00                  			DB		0		;(inxy) incremento y para mover
      15:  00:572A  00                  			DB		DIRDERECHA		;(direccionx) 0 derecha <> 0 izquierda // 0 abajo <> 0 arriba
      16:  00:572B  00                  			DB		0		;(direcciony) 0 derecha <> 0 izquierda // 0 abajo <> 0 arriba
      17:  00:572C  64                  			DB		100		;(pasos) pasos para no comprobar los límites de pentalla, sólo si pasos ha llegado a 0
      18:  00:572D  00                  			DB		0		;(radio) radio para movimientos circulares
      19:  00:572E  3D 57               			DW		mover_zombi		;(ptr_mover) puntero a subrutina que moverá el enemigo según el tipo de enemigo (se pasa al inicializar)
      20:  00:5730  80                  			DB		ZOMBI_SPRITE1A	;izq arriba
      21:  00:5731  84                  			DB		ZOMBI_SPRITE2A	;der_arriba
      22:  00:5732  88                  			DB		ZOMBI_SPRITE3A	;izq abajo
      23:  00:5733  8C                  			DB		ZOMBI_SPRITE4A	;der_abajo
      24:  00:5734                      
      25:  00:5734                      
      26:  00:5734                      ;;=====================================================
      27:  00:5734                      ;;SUBRUTINAS MANEJO DE ZOMBI
      28:  00:5734                      ;;=====================================================	
      29:  00:5734                      
      30:  00:5734                      
      31:  00:5734                      ;;=====================================================
      32:  00:5734                      ;;ANADE_ENEMIGO_ZOMBI
      33:  00:5734                      ;;=====================================================	
      34:  00:5734                      ; función: 	mete en memoria la plantilla de datos base del zombi en el enemigo que se le pase por DE
      35:  00:5734                      ; entrada:	DE (enemigo en concreto al que poner los datos, por ejemplo, enemigo1)
      36:  00:5734                      ; salida: 	-
      37:  00:5734                      ; toca:		-
      38:  00:5734                      anade_enemigo_zombi:
      39:  00:5734  21 20 57            		LD			HL, datos_zombi
      40:  00:5737  01 14 00            		LD			BC, ESTRUCTURA_ENEMIGO
      41:  00:573A  ED B0               		LDIR
      42:  00:573C                      fin_anade_enemigo_zombi:
      43:  00:573C  C9                  		RET
      44:  00:573D                      
      45:  00:573D                      
      46:  00:573D                      ;;=====================================================
      47:  00:573D                      ;;ACTUALIZA_VALORES_ZOMBI 
      48:  00:573D                      ;;=====================================================	
      49:  00:573D                      ; función: 	inicializa valores aleatorios del zombi
      50:  00:573D                      ; entrada:	IX que equivaldrá a qué nº de enemigo estamos inicializando (por ejemplo enemigo1)
      51:  00:573D                      ; toca:		-
      52:  00:573D                      actualiza_valores_zombi:
      53:  00:573D                      fin_actualiza_valores_zombi:
      54:  00:573D                      		
      55:  00:573D                      		
      56:  00:573D                      ;;=====================================================
      57:  00:573D                      ;;MOVER_ZOMBI
      58:  00:573D                      ;;=====================================================	
      59:  00:573D                      ; función: hace todo lo que haga falta de acciones cada vez que le toca al programa enfocarse en el zombi: su ataque, su sptrite, etc...
      60:  00:573D                      ; entrada: IX (enemigo en concreto al que poner los datos, por ejemplo, enemigo1)
      61:  00:573D                      ; salida: 	-
      62:  00:573D                      ; toca:		-
      63:  00:573D                      mover_zombi:
      64:  00:573D  CD A4 57            		CALL		calcula_zombi_incrementoy
      65:  00:5740  DD 7E 05            		LD			 A, (IX + ESTRUCTURA_ENEMIGO.posy)
      66:  00:5743  FD 77 00            		LD			(IY), A
      67:  00:5746  C6 10               		ADD			16
      68:  00:5748  FD 77 04            		LD			(IY + 4), A
      69:  00:574B                      		
      70:  00:574B  CD BC 57            		CALL		calcula_zombi_incrementox
      71:  00:574E  DD 7E 04            		LD			 A, (IX + ESTRUCTURA_ENEMIGO.posx)
      72:  00:5751  FD 77 01            		LD			(IY + 1), A
      73:  00:5754  FD 77 05            		LD			(IY + 5), A
      74:  00:5757                      		
      75:  00:5757  CD 6E 57            		CALL		calcula_zombi_escena		
      76:  00:575A  DD 7E 10            		LD			 A, (IX + ESTRUCTURA_ENEMIGO.sprite_a)
      77:  00:575D  FD 77 02            		LD			(IY + 2), A
      78:  00:5760  C6 04               		ADD			 4
      79:  00:5762  FD 77 06            		LD			(IY + 6), A
      80:  00:5765                      		
      81:  00:5765                      		;colorea zombi
      82:  00:5765  FD 36 03 0F         		LD			(IY + 3), ZOMBI_COLOR_A
      83:  00:5769  FD 36 07 0F         		LD			(IY + 7), ZOMBI_COLOR_B
      84:  00:576D                      fin_mover_zombi:
      85:  00:576D  C9                  		RET
      86:  00:576E                      
      87:  00:576E                      
      88:  00:576E                      ;;=====================================================
      89:  00:576E                      ;;CALCULA_ZOMBI_ESCENA
      90:  00:576E                      ;;=====================================================	
      91:  00:576E                      calcula_zombi_escena:
      92:  00:576E  3A 4F C0            		LD			 A, (heartbeat_zombi)
      93:  00:5771  E6 10               		AND			ZOMBI_VELESCENA
      94:  00:5773  C8                  		RET			 Z   	; IF TENGO QUE CAMBIAR DE ESCENA THEN
      95:  00:5774                      			;reseteo el cambio de escena del zombi
      96:  00:5774  AF                  			XOR			 A
      97:  00:5775  32 4F C0            			LD			(heartbeat_zombi), A
      98:  00:5778                      
      99:  00:5778                      .direccion_izquierda:
     100:  00:5778  DD 7E 01            		LD			 A, (IX + ESTRUCTURA_ENEMIGO.escena)
     101:  00:577B  EE 01               		XOR			00000001b
     102:  00:577D  DD 77 01            		LD			(IX + ESTRUCTURA_ENEMIGO.escena), A
     103:  00:5780                      			
     104:  00:5780  B7                  		OR			 A
     105:  00:5781  CA 89 57            		JP			 Z, .escena_izquierda2
     106:  00:5784                      .escena_izquierda1:
     107:  00:5784  DD 36 10 90         			LD			(IX + ESTRUCTURA_ENEMIGO.sprite_a), ZOMBI_SPRITE1B
     108:  00:5788  C9                  			RET
     109:  00:5789                      .escena_izquierda2:
     110:  00:5789  DD 36 10 98         			LD			(IX + ESTRUCTURA_ENEMIGO.sprite_a), ZOMBI_SPRITE3B
     111:  00:578D  C9                  			RET
     112:  00:578E                      
     113:  00:578E                      .direccion_derecha:
     114:  00:578E  DD 7E 01            		LD			 A, (IX + ESTRUCTURA_ENEMIGO.escena)
     115:  00:5791  EE 01               		XOR			00000001b
     116:  00:5793  DD 77 01            		LD			(IX + ESTRUCTURA_ENEMIGO.escena), A
     117:  00:5796                      			
     118:  00:5796  B7                  		OR			 A
     119:  00:5797  CA 9F 57            		JP			 Z, .escena_derecha2
     120:  00:579A                      .escena_derecha1:
     121:  00:579A  DD 36 10 80         			LD			(IX + ESTRUCTURA_ENEMIGO.sprite_a), ZOMBI_SPRITE1A
     122:  00:579E  C9                  			RET
     123:  00:579F                      .escena_derecha2:
     124:  00:579F  DD 36 10 88         			LD			(IX + ESTRUCTURA_ENEMIGO.sprite_a), ZOMBI_SPRITE3A
     125:  00:57A3  C9                  			RET
     126:  00:57A4                      fin_calcula_zombi_escena:
     127:  00:57A4                      
     128:  00:57A4                      
     129:  00:57A4                      ;;=====================================================
     130:  00:57A4                      ;;CALCULA_ZOMBI_INCREMENTOY
     131:  00:57A4                      ;;=====================================================	
     132:  00:57A4                      calcula_zombi_incrementoy:
     133:  00:57A4  DD 7E 04            		LD			 A, (IX + ESTRUCTURA_ENEMIGO.posx)
     134:  00:57A7  E6 04               		AND			00000100b
     135:  00:57A9  CA B4 57            		JP			 Z, .bajo
     136:  00:57AC                      .subo:
     137:  00:57AC  DD 7E 05            			LD			 A, (IX + ESTRUCTURA_ENEMIGO.posy)
     138:  00:57AF  3D                  			DEC			 A
     139:  00:57B0  DD 77 05            			LD			(IX + ESTRUCTURA_ENEMIGO.posy), A
     140:  00:57B3  C9                  			RET
     141:  00:57B4                      .bajo:
     142:  00:57B4  DD 7E 05            			LD			 A, (IX + ESTRUCTURA_ENEMIGO.posy)
     143:  00:57B7  3C                  			INC			 A
     144:  00:57B8  DD 77 05            			LD			(IX + ESTRUCTURA_ENEMIGO.posy), A
     145:  00:57BB  C9                  			RET
     146:  00:57BC                      fin_calcula_zombi_incrementoy:
     147:  00:57BC                      		
     148:  00:57BC                      
     149:  00:57BC                      ;;=====================================================
     150:  00:57BC                      ;;CALCULA_ZOMBI_INCREMENTOX
     151:  00:57BC                      ;;====================================================	
     152:  00:57BC                      calcula_zombi_incrementox:
     153:  00:57BC  DD 7E 0A            			LD			 A, (IX + ESTRUCTURA_ENEMIGO.direccionx)
     154:  00:57BF  B7                  			OR			 A
     155:  00:57C0  CA CC 57            			JP			 Z, .mueve_derecha
     156:  00:57C3                      .mueve_izquierda:
     157:  00:57C3  DD 35 04            				DEC			(IX + ESTRUCTURA_ENEMIGO.posx)
     158:  00:57C6  DD 35 0C            				DEC			(IX + ESTRUCTURA_ENEMIGO.pasos)
     159:  00:57C9  C3 D8 57            				JP			.fin_mueve_posx
     160:  00:57CC                      .mueve_derecha:
     161:  00:57CC  DD 34 04 DD 34 04   [2]				INC			(IX + ESTRUCTURA_ENEMIGO.posx)
     162:  00:57D2  DD 35 0C DD 35 0C   [2]				DEC			(IX + ESTRUCTURA_ENEMIGO.pasos)
     163:  00:57D8                      .fin_mueve_posx:
     164:  00:57D8                      			
     165:  00:57D8  C0                  			RET			NZ
     166:  00:57D9                      				;cambio dirección
     167:  00:57D9  DD 7E 0A            				LD			 A, (IX + ESTRUCTURA_ENEMIGO.direccionx)
     168:  00:57DC  EE 01               				XOR			00000001b
     169:  00:57DE  DD 77 0A            				LD			(IX + ESTRUCTURA_ENEMIGO.direccionx), A
     170:  00:57E1                      				;resetea pasos
     171:  00:57E1  DD 36 0C 96         				LD			(IX + ESTRUCTURA_ENEMIGO.pasos), ZOMBI_PASOS
     172:  00:57E5                      				;resetea pos y
     173:  00:57E5  DD 36 05 40         				LD			(IX + ESTRUCTURA_ENEMIGO.posy),  ZOMBI_POSY
     174:  00:57E9                      fin_calcula_zombi_incrementox:
     175:  00:57E9  C9                  			RET
      17.  00:57EA                      include "subr_enemigo_jefemurcielago.asm"
       1:  00:57EA                      ;;=====================================================
       2:  00:57EA                      ;;CONTANTES JEFEMURCIELAGO
       3:  00:57EA                      ;;=====================================================
       4:  00:57EA                      datos_jefemurcielago:
       5:  00:57EA  0F                  			DB		TIPOJEFEMURCIELAGO	;(activo_tipo) si inactivo = 0 si <> 0 es el tipo de enemigo
       6:  00:57EB  00                  			DB		0		;(escena) sprite a mostrar 1/2
       7:  00:57EC  10                  			DB		00010000b		;(cont_sig_escena) retardo_explosion ;contador para ver cuando cambiar de sprite (y retardo_explosión irá hasta cero antes de que desaparezca la explosión)
       8:  00:57ED  80                  			DB		128		;(energia) energía del enemigo antes de morir
       9:  00:57EE  00                  			DB		0		;(posx) pos x para mover y punto central del sprite para revisar disparo
      10:  00:57EF  00                  			DB		0		;(posy) pos y para mover y punto central del sprite para revisar disparo
      11:  00:57F0  08                  			DB		8		;(radiox) radio x del enemigo para cuando se dispare encima
      12:  00:57F1  08                  			DB		8		;(radioy) radio y del enemigo para cuando se dispare encima
      13:  00:57F2  00                  			DB		0		;(incx) incremento x para mover
      14:  00:57F3  00                  			DB		0		;(inxy) incremento y para mover
      15:  00:57F4  00                  			DB		DIRABAJO;(direccionx) 0 derecha <> 0 izquierda // 0 abajo <> 0 arriba
      16:  00:57F5  00                  			DB		0		;(direcciony) 0 derecha <> 0 izquierda // 0 abajo <> 0 arriba
      17:  00:57F6  00                  			DB		0		;(pasos) pasos para no comprobar los límites de pentalla, sólo si pasos ha llegado a 0
      18:  00:57F7  00                  			DB		0		;pocavida 0 y 1 para indicar cuando le queda poca vida al enemigo
      19:  00:57F8  2C 58               			DW		mover_jefemurcielago	;(ptr_mover) puntero a subrutina que moverá el enemigo según el tipo de enemigo (se pasa al inicializar)
      20:  00:57FA  E0                  			DB		JEFEMURCIELAGO_SPRITE1A	;izq arriba
      21:  00:57FB  E4                  			DB		JEFEMURCIELAGO_SPRITE2A	;der_arriba
      22:  00:57FC  E8                  			DB		JEFEMURCIELAGO_SPRITE3A	;izq abajo
      23:  00:57FD  EC                  			DB		JEFEMURCIELAGO_SPRITE4A	;der_abajo
      24:  00:57FE                      			
      25:  00:57FE                      posiciones_iniciales_jefemurcielago:
      26:  00:57FE  00 4B 96 E0         			DB		0,75,150,224
      27:  00:5802                      
      28:  00:5802                      		
      29:  00:5802                      ;;=====================================================
      30:  00:5802                      ;;SUBRUTINAS MANEJO DE JEFEMURCIELAGO
      31:  00:5802                      ;;=====================================================	
      32:  00:5802                      
      33:  00:5802                      
      34:  00:5802                      ;;=====================================================
      35:  00:5802                      ;;ANADE_ENEMIGO_JEFEMURCIELAGO
      36:  00:5802                      ;;=====================================================	
      37:  00:5802                      ; función: 	mete en memoria la plantilla de datos base del lobo en el enemigo que se le pase por DE
      38:  00:5802                      ; entrada:	DE (enemigo en concreto al que poner los datos, por ejemplo, enemigo1)
      39:  00:5802                      ; salida: 	-
      40:  00:5802                      ; toca:		-
      41:  00:5802                      anade_enemigo_jefemurcielago:
      42:  00:5802  21 EA 57            		LD			HL, datos_jefemurcielago
      43:  00:5805  01 14 00            		LD			BC, ESTRUCTURA_ENEMIGO
      44:  00:5808  ED B0               		LDIR
      45:  00:580A                      fin_anade_enemigo_jefemurcielago:
      46:  00:580A  C9                  		RET
      47:  00:580B                      
      48:  00:580B                      
      49:  00:580B                      ;;=====================================================
      50:  00:580B                      ;;ACTUALIZA_VALORES_JEFEMURCIELAGO
      51:  00:580B                      ;;=====================================================	
      52:  00:580B                      ; función: 	inicializa valores aleatorios del jefemurciélago
      53:  00:580B                      ; entrada:	IX que equivaldrá a qué nº de enemigo estamos inicializando (por ejemplo enemigo1)
      54:  00:580B                      ; toca:		-
      55:  00:580B                      actualiza_valores_jefemurcielago:
      56:  00:580B                      .asigna_valores_posicion_x:
      57:  00:580B  ED 5F               		LD			 A, R
      58:  00:580D  E6 03               		AND			00000011b
      59:  00:580F  21 FE 57            		LD			HL, posiciones_iniciales_jefemurcielago
      60:  00:5812  CD F2 42            		CALL		suma_A_HL
      61:  00:5815  7E                  		LD			 A, (HL)
      62:  00:5816  DD 77 04            		LD			(IX + ESTRUCTURA_ENEMIGO.posx), A
      63:  00:5819                      		
      64:  00:5819                      .asigna_valores_posicion_y:
      65:  00:5819  DD 36 05 00         		LD			(IX + ESTRUCTURA_ENEMIGO.posy), 0
      66:  00:581D                      		
      67:  00:581D                      		;miro si el nivel es 6
      68:  00:581D  3A 00 C0            		LD			 A, (prota_nivel)
      69:  00:5820  CB 47               		BIT			 0, A
      70:  00:5822  C0                  		RET			NZ
      71:  00:5823  DD 36 03 40         		LD			(IX + ESTRUCTURA_ENEMIGO.energia), 64
      72:  00:5827                      		
      73:  00:5827                      		
      74:  00:5827                      		;quitar cuando proceda
      75:  00:5827  DD 36 0D 01         		LD			(IX + ESTRUCTURA_ENEMIGO.pocavida), 1
      76:  00:582B                      fin_actualiza_valores_jefemurcielago:
      77:  00:582B  C9                  		RET
      78:  00:582C                      		
      79:  00:582C                      		
      80:  00:582C                      ;;=====================================================
      81:  00:582C                      ;;MOVER_JEFEMURCIELAGO
      82:  00:582C                      ;;=====================================================	
      83:  00:582C                      ; función: hace todo lo que haga falta de acciones cada vez que le toca al programa enfocarse en el jefemurcielago: su ataque, su sptrite, etc...
      84:  00:582C                      ; entrada: IX (enemigo en concreto al que poner los datos, por ejemplo, enemigo1)
      85:  00:582C                      ; salida: 	-
      86:  00:582C                      ; toca:		-
      87:  00:582C                      mover_jefemurcielago:
      88:  00:582C  CD D8 58            		CALL		calcula_jefemurcielago_incrementoy
      89:  00:582F  DD 7E 05            		LD			 A, (IX + ESTRUCTURA_ENEMIGO.posy)
      90:  00:5832  FD 77 00            		LD			(IY), A
      91:  00:5835  FD 77 08            		LD			(IY + 8), A
      92:  00:5838  C6 10               		ADD			16
      93:  00:583A  FD 77 04            		LD			(IY + 4), A
      94:  00:583D  FD 77 0C            		LD			(IY + 12), A
      95:  00:5840                      		
      96:  00:5840  CD FB 58            		CALL		calcula_jefemurcielago_incrementox	
      97:  00:5843  DD 7E 04            		LD			 A, (IX + ESTRUCTURA_ENEMIGO.posx)
      98:  00:5846  FD 77 01            		LD			(IY + 1), A
      99:  00:5849  FD 77 05            		LD			(IY + 5), A
     100:  00:584C  C6 10               		ADD 		16
     101:  00:584E  FD 77 09            		LD			(IY + 9), A
     102:  00:5851  FD 77 0D            		LD			(IY + 13), A
     103:  00:5854                      		
     104:  00:5854  CD 9F 58            		CALL		calcula_jefemurcielago_escena		
     105:  00:5857  DD 7E 10            		LD			 A, (IX + ESTRUCTURA_ENEMIGO.sprite_a)
     106:  00:585A  FD 77 02            		LD			(IY + 2), A
     107:  00:585D  DD 7E 11            		LD			 A, (IX + ESTRUCTURA_ENEMIGO.sprite_b)
     108:  00:5860  FD 77 06            		LD			(IY + 6), A
     109:  00:5863  DD 7E 12            		LD			 A, (IX + ESTRUCTURA_ENEMIGO.sprite_c)
     110:  00:5866  FD 77 0A            		LD			(IY + 10), A
     111:  00:5869  DD 7E 13            		LD			 A, (IX + ESTRUCTURA_ENEMIGO.sprite_d)
     112:  00:586C  FD 77 0E            		LD			(IY + 14), A
     113:  00:586F                      
     114:  00:586F                      		;colorea jefemurcielago
     115:  00:586F  DD 7E 0D            		LD			 A, (IX + ESTRUCTURA_ENEMIGO.pocavida)
     116:  00:5872  B7                  		OR			 A
     117:  00:5873  CA 8E 58            		JP			 Z, .nointercambiacolor
     118:  00:5876  DD 7E 01            			LD			 A, (IX + ESTRUCTURA_ENEMIGO.escena)
     119:  00:5879  B7                  			OR			 A
     120:  00:587A  CA 8E 58            			JP			 Z, .nointercambiacolor	
     121:  00:587D  FD 36 03 08         				LD			(IY + 3),  COLROJO
     122:  00:5881  FD 36 07 08         				LD			(IY + 7),  COLROJO
     123:  00:5885  FD 36 0B 08         				LD			(IY + 11), COLROJO
     124:  00:5889  FD 36 0F 08         				LD			(IY + 15), COLROJO
     125:  00:588D  C9                  				RET
     126:  00:588E                      .nointercambiacolor:		
     127:  00:588E  FD 36 03 01         		LD			(IY + 3),  JEFEMURCIELAGO_COLOR
     128:  00:5892  FD 36 07 01         		LD			(IY + 7),  JEFEMURCIELAGO_COLOR
     129:  00:5896  FD 36 0B 01         		LD			(IY + 11), JEFEMURCIELAGO_COLOR
     130:  00:589A  FD 36 0F 01         		LD			(IY + 15), JEFEMURCIELAGO_COLOR
     131:  00:589E                      fin_mover_jefemurcielaro:
     132:  00:589E  C9                  		RET
     133:  00:589F                      
     134:  00:589F                      
     135:  00:589F                      ;;=====================================================
     136:  00:589F                      ;;CALCULA_JEFEMURCIELAGO_ESCENA
     137:  00:589F                      ;;=====================================================	
     138:  00:589F                      calcula_jefemurcielago_escena:
     139:  00:589F  3A 54 C0            		LD			 A, (heartbeat_general)
     140:  00:58A2  E6 10               		AND			JEFEMURCIELAGO_VELESCENA
     141:  00:58A4  C8                  		RET			 Z   	; IF TENGO QUE CAMBIAR DE ESCENA THEN
     142:  00:58A5                      			;reseteo el cambio de escena del jefemurcielago
     143:  00:58A5  AF                  			XOR			 A
     144:  00:58A6  32 54 C0            			LD			(heartbeat_general), A
     145:  00:58A9                      		
     146:  00:58A9                      			; cambio de escena
     147:  00:58A9  DD 7E 01            			LD			 A, (IX + ESTRUCTURA_ENEMIGO.escena)
     148:  00:58AC  EE 01               			XOR			00000001b
     149:  00:58AE  DD 77 01            			LD			(IX + ESTRUCTURA_ENEMIGO.escena), A
     150:  00:58B1                      			
     151:  00:58B1  CA C7 58            			JP			 Z, .poner_escena2			; IF ESCENA 1 THEN
     152:  00:58B4  DD 36 10 E0         				LD			(IX + ESTRUCTURA_ENEMIGO.sprite_a), JEFEMURCIELAGO_SPRITE1A
     153:  00:58B8  DD 36 11 E4         				LD			(IX + ESTRUCTURA_ENEMIGO.sprite_b), JEFEMURCIELAGO_SPRITE2A
     154:  00:58BC  DD 36 12 E8         				LD			(IX + ESTRUCTURA_ENEMIGO.sprite_c), JEFEMURCIELAGO_SPRITE3A
     155:  00:58C0  DD 36 13 EC         				LD			(IX + ESTRUCTURA_ENEMIGO.sprite_d), JEFEMURCIELAGO_SPRITE4A
     156:  00:58C4                      		
     157:  00:58C4  C3 D7 58            				JP			fin_calcula_jefemurcielago_escena
     158:  00:58C7                      .poner_escena2:									; ELSE
     159:  00:58C7  DD 36 10 F0         				LD			(IX + ESTRUCTURA_ENEMIGO.sprite_a), JEFEMURCIELAGO_SPRITE1B
     160:  00:58CB  DD 36 11 F4         				LD			(IX + ESTRUCTURA_ENEMIGO.sprite_b), JEFEMURCIELAGO_SPRITE2B
     161:  00:58CF  DD 36 12 F8         				LD			(IX + ESTRUCTURA_ENEMIGO.sprite_c), JEFEMURCIELAGO_SPRITE3B
     162:  00:58D3  DD 36 13 FC         				LD			(IX + ESTRUCTURA_ENEMIGO.sprite_d), JEFEMURCIELAGO_SPRITE4B
     163:  00:58D7                      ;.fin_enemigo1_poner_escena2:								; END IF
     164:  00:58D7                      ;.fin_cambia_escena_enemigo1:							; END IF
     165:  00:58D7                      fin_calcula_jefemurcielago_escena:
     166:  00:58D7  C9                  		RET
     167:  00:58D8                      
     168:  00:58D8                      
     169:  00:58D8                      ;;=====================================================
     170:  00:58D8                      ;;CALCULA_JEFEMURCIELAGO_INCREMENTOY
     171:  00:58D8                      ;;=====================================================	
     172:  00:58D8                      calcula_jefemurcielago_incrementoy:
     173:  00:58D8  DD 7E 0A            		LD			 A, (IX + ESTRUCTURA_ENEMIGO.direccionx)
     174:  00:58DB  B7                  		OR			 A
     175:  00:58DC  28 0D               		JR			 Z, .baja_jefemurcielago
     176:  00:58DE                      		
     177:  00:58DE                      .sube_jefemurcielago:
     178:  00:58DE  DD 7E 05            		LD			 A, (IX + ESTRUCTURA_ENEMIGO.posy)
     179:  00:58E1  3D                  		DEC			 A
     180:  00:58E2  DD 77 05            		LD			(IX + ESTRUCTURA_ENEMIGO.posy), A
     181:  00:58E5                      		
     182:  00:58E5                      		;CP			JEFEMURCIELAGO_LIMIABA no necesario
     183:  00:58E5  C0                  		RET			NZ
     184:  00:58E6  DD 36 0A 00         		LD			(IX + ESTRUCTURA_ENEMIGO.direccionx), 0
     185:  00:58EA  C9                  		RET
     186:  00:58EB                      		
     187:  00:58EB                      .baja_jefemurcielago:
     188:  00:58EB  DD 7E 05            		LD			 A, (IX + ESTRUCTURA_ENEMIGO.posy)
     189:  00:58EE  C6 04               		ADD			 4
     190:  00:58F0  DD 77 05            		LD			(IX + ESTRUCTURA_ENEMIGO.posy), A
     191:  00:58F3                      		
     192:  00:58F3  FE 60               		CP			JEFEMURCIELAGO_LIMIABA
     193:  00:58F5  C0                  		RET			NZ
     194:  00:58F6  DD 36 0A 01         		LD			(IX + ESTRUCTURA_ENEMIGO.direccionx), 1
     195:  00:58FA  C9                  		RET
     196:  00:58FB                      fin_calcula_jefemurcielago_incrementoy:
     197:  00:58FB                      
     198:  00:58FB                      
     199:  00:58FB                      ;;=====================================================
     200:  00:58FB                      ;;CALCULA_JEFEMURCIELAGO_INCREMENTOX
     201:  00:58FB                      ;;=====================================================	
     202:  00:58FB                      calcula_jefemurcielago_incrementox:
     203:  00:58FB                      		;si no llega al tope superior no tiene que cambiar el valor X
     204:  00:58FB  DD 7E 05            		LD			 A, (IX + ESTRUCTURA_ENEMIGO.posy)
     205:  00:58FE  B7                  		OR			 A
     206:  00:58FF  C0                  		RET			NZ
     207:  00:5900                      		
     208:  00:5900                      		;calcula nueva columna donde aparecerá el jefemurcielago
     209:  00:5900  ED 5F               		LD			 A, R
     210:  00:5902  E6 03               		AND			00000011b
     211:  00:5904  21 FE 57            		LD			HL, posiciones_iniciales_jefemurcielago
     212:  00:5907  CD F2 42            		CALL		suma_A_HL
     213:  00:590A  7E                  		LD			 A, (HL)
     214:  00:590B  DD 77 04            		LD			(IX + ESTRUCTURA_ENEMIGO.posx), A
     215:  00:590E                      fin_calcula_jefemurcielago_incrementox:
     216:  00:590E  C9                  		RET
      18.  00:590F                      include "subr_enemigo_fantasma.asm"
       1:  00:590F                      ;;=====================================================
       2:  00:590F                      ;;CONTANTES FANTASMA
       3:  00:590F                      ;;=====================================================
       4:  00:590F                      datos_fantasma:
       5:  00:590F  09                  			DB		TIPOFANTASMA	;(activo_tipo) si inactivo = 0 si <> 0 es el tipo de enemigo
       6:  00:5910  00                  			DB		0		;(escena) sprite a mostrar 1/2
       7:  00:5911  01                  			DB		00000001b		;(cont_sig_escena) retardo_explosion ;contador para ver cuando cambiar de sprite (y retardo_explosión irá hasta cero antes de que desaparezca la explosión)
       8:  00:5912  0A                  			DB		10		;(energia) energía del enemigo antes de morir
       9:  00:5913  40                  			DB		FANTASMA_X1		;(posx) pos x para mover y punto central del sprite para revisar disparo
      10:  00:5914  18                  			DB		FANTASMA_Y1		;(posy) pos y para mover y punto central del sprite para revisar disparo
      11:  00:5915  08                  			DB		8		;(radiox) radio x del enemigo para cuando se dispare encima
      12:  00:5916  08                  			DB		8		;(radioy) radio y del enemigo para cuando se dispare encima
      13:  00:5917  00                  			DB		0		;(incx) incremento x para mover
      14:  00:5918  00                  			DB		0		;(inxy) incremento y para mover
      15:  00:5919  01                  			DB		1		;(direccionx) 00000001b / 00000010b / 00000100b / 00001000b (las 4 posiciones posibles)
      16:  00:591A  00                  			DB		0		;(direcciony) no se usa
      17:  00:591B  64                  			DB		FANTASMA_LIM_PASOS	;(pasos) TIEMPO QUE ESPERA PARA PASAR DE UNA ESCAA A OTRA
      18:  00:591C  00                  			DB		0		;(radio) radio para movimientos circulares
      19:  00:591D  2C 59               			DW		mover_fantasma	;(ptr_mover) puntero a subrutina que moverá el enemigo según el tipo de enemigo (se pasa al inicializar)
      20:  00:591F  A0                  			DB		FANTASMA_SPRITE1A;izq arriba
      21:  00:5920  A4                  			DB		FANTASMA_SPRITE2A;der_arriba
      22:  00:5921  A8                  			DB		FANTASMA_SPRITE1B;izq abajo
      23:  00:5922  AC                  			DB		FANTASMA_SPRITE2B;der_abajo
      24:  00:5923                      
      25:  00:5923                      
      26:  00:5923                      ;;=====================================================
      27:  00:5923                      ;;SUBRUTINAS MANEJO DE FANTASMA
      28:  00:5923                      ;;=====================================================	
      29:  00:5923                      
      30:  00:5923                      
      31:  00:5923                      ;;=====================================================
      32:  00:5923                      ;;ANADE_ENEMIGO_FANTASMA
      33:  00:5923                      ;;=====================================================	
      34:  00:5923                      ; función: 	mete en memoria la plantilla de datos base del fantasma en el enemigo que se le pase por DE
      35:  00:5923                      ; entrada:	DE (enemigo en concreto al que poner los datos, por ejemplo, enemigo1)
      36:  00:5923                      ; salida: 	-
      37:  00:5923                      ; toca:		-
      38:  00:5923                      anade_enemigo_fantasma:
      39:  00:5923  21 0F 59            		LD			HL, datos_fantasma
      40:  00:5926  01 14 00            		LD			BC, ESTRUCTURA_ENEMIGO
      41:  00:5929  ED B0               		LDIR
      42:  00:592B                      fin_anade_enemigo_fantasma:
      43:  00:592B  C9                  		RET
      44:  00:592C                      
      45:  00:592C                      
      46:  00:592C                      ;;=====================================================
      47:  00:592C                      ;;ACTUALIZA_VALORES_FANTASMA
      48:  00:592C                      ;;=====================================================	
      49:  00:592C                      ; función: 	inicializa valores aleatorios del fantasma
      50:  00:592C                      ; entrada:	IX que equivaldrá a qué nº de enemigo estamos inicializando (por ejemplo enemigo1)
      51:  00:592C                      ; salida: 	-
      52:  00:592C                      ; toca:		-
      53:  00:592C                      actualiza_valores_fantasma:
      54:  00:592C                      fin_actualiza_valores_fantasma:
      55:  00:592C                      		
      56:  00:592C                      		
      57:  00:592C                      ;;=====================================================
      58:  00:592C                      ;;MOVER_FANTASMA
      59:  00:592C                      ;;=====================================================	
      60:  00:592C                      ; función: hace todo lo que haga falta de acciones cada vez que le toca al programa enfocarse en el fantasma: su ataque, su sptrite, etc...
      61:  00:592C                      ; entrada: IX (enemigo en concreto al que poner los datos, por ejemplo, enemigo1)
      62:  00:592C                      ; salida: 	-
      63:  00:592C                      ; toca:		-
      64:  00:592C                      mover_fantasma:
      65:  00:592C  CD 7D 59            		CALL		calcula_fantasma_posyx
      66:  00:592F                      		
      67:  00:592F  DD 7E 05            		LD			 A, (IX + ESTRUCTURA_ENEMIGO.posy)
      68:  00:5932  FD 77 00            		LD			(IY), A
      69:  00:5935  FD 77 04            		LD			(IY + 4), A
      70:  00:5938                      		
      71:  00:5938  DD 7E 04            		LD			 A, (IX + ESTRUCTURA_ENEMIGO.posx)
      72:  00:593B  FD 77 01            		LD			(IY + 1), A
      73:  00:593E  C6 10               		ADD			16
      74:  00:5940  FD 77 05            		LD			(IY + 5), A
      75:  00:5943                      		
      76:  00:5943  CD BD 59            		CALL		verifica_siguiente_posicion_fantasma
      77:  00:5946                      		
      78:  00:5946  CD 5D 59            		CALL		calcula_fantasma_escena		
      79:  00:5949  DD 7E 10            		LD			 A, (IX + ESTRUCTURA_ENEMIGO.sprite_a)
      80:  00:594C  FD 77 02            		LD			(IY + 2), A
      81:  00:594F  C6 04               		ADD			 4
      82:  00:5951  FD 77 06            		LD			(IY + 6), A
      83:  00:5954                      		
      84:  00:5954                      		;colorea fantasma
      85:  00:5954  FD 36 03 01         		LD			(IY + 3), FANTASMA_COLOR
      86:  00:5958  FD 36 07 01         		LD			(IY + 7), FANTASMA_COLOR
      87:  00:595C                      fin_mover_fantasma:
      88:  00:595C  C9                  		RET
      89:  00:595D                      
      90:  00:595D                      
      91:  00:595D                      ;;=====================================================
      92:  00:595D                      ;;CALCULA_FANTASMA_ESCENA
      93:  00:595D                      ;;=====================================================	
      94:  00:595D                      calcula_fantasma_escena:
      95:  00:595D  3A 50 C0            		LD			 A, (heartbeat_fantasma)
      96:  00:5960  E6 10               		AND			FANTASMA_VELESCENA
      97:  00:5962  C8                  		RET			 Z   	; IF TENGO QUE CAMBIAR DE ESCENA THEN
      98:  00:5963                      			;reseteo el cambio de escena del fantasma
      99:  00:5963  AF                  			XOR			 A
     100:  00:5964  32 50 C0            			LD			(heartbeat_fantasma), A
     101:  00:5967                      			
     102:  00:5967                      			;THEN cambia escena
     103:  00:5967  DD 7E 01            			LD			 A, (IX + ESTRUCTURA_ENEMIGO.escena)
     104:  00:596A  EE 01               			XOR			00000001b
     105:  00:596C  DD 77 01            			LD			(IX + ESTRUCTURA_ENEMIGO.escena), A
     106:  00:596F                      			
     107:  00:596F  B7                  			OR			 A
     108:  00:5970  CA 78 59            			JP			 Z, .escena2
     109:  00:5973                      .escena1:
     110:  00:5973  DD 36 10 A0         				LD			(IX + ESTRUCTURA_ENEMIGO.sprite_a), FANTASMA_SPRITE1A
     111:  00:5977  C9                  				RET
     112:  00:5978                      .escena2:
     113:  00:5978  DD 36 10 A8         				LD			(IX + ESTRUCTURA_ENEMIGO.sprite_a), FANTASMA_SPRITE1B
     114:  00:597C  C9                  				RET	
     115:  00:597D                      fin_calcula_fantasma_escena:
     116:  00:597D                      
     117:  00:597D                      
     118:  00:597D                      ;;=====================================================
     119:  00:597D                      ;;CALCULA_FANTASMA_POSYX
     120:  00:597D                      ;;=====================================================	
     121:  00:597D                      calcula_fantasma_posyx:
     122:  00:597D  DD 46 0A            		LD			 B, (IX + ESTRUCTURA_ENEMIGO.direccionx)
     123:  00:5980                      
     124:  00:5980                      .mira_posicion0:
     125:  00:5980  78                  		LD			 A, B
     126:  00:5981  E6 01               		AND			00000001b
     127:  00:5983  28 09               		JR			 Z, .mira_posicion1
     128:  00:5985  DD 36 05 18         		LD			(IX + ESTRUCTURA_ENEMIGO.posy), FANTASMA_Y1
     129:  00:5989  DD 36 04 40         		LD			(IX + ESTRUCTURA_ENEMIGO.posx), FANTASMA_X1
     130:  00:598D  C9                  		RET
     131:  00:598E                      		
     132:  00:598E                      .mira_posicion1:
     133:  00:598E  78                  		LD			 A, B
     134:  00:598F  E6 02               		AND			00000010b
     135:  00:5991  28 09               		JR			 Z, .mira_posicion2
     136:  00:5993  DD 36 05 18         		LD			(IX + ESTRUCTURA_ENEMIGO.posy), FANTASMA_Y2
     137:  00:5997  DD 36 04 A0         		LD			(IX + ESTRUCTURA_ENEMIGO.posx), FANTASMA_X2
     138:  00:599B  C9                  		RET
     139:  00:599C                      		
     140:  00:599C                      .mira_posicion2:
     141:  00:599C  78                  		LD			 A, B
     142:  00:599D  E6 04               		AND			00000100b
     143:  00:599F  28 09               		JR			 Z, .mira_posicion3
     144:  00:59A1  DD 36 05 40         		LD			(IX + ESTRUCTURA_ENEMIGO.posy), FANTASMA_Y3
     145:  00:59A5  DD 36 04 28         		LD			(IX + ESTRUCTURA_ENEMIGO.posx), FANTASMA_X3
     146:  00:59A9  C9                  		RET
     147:  00:59AA                      		
     148:  00:59AA                      .mira_posicion3:
     149:  00:59AA  78                  		LD			 A, B
     150:  00:59AB  E6 08               		AND			00001000b
     151:  00:59AD  28 09               		JR			 Z, .resetea_posicion
     152:  00:59AF  DD 36 05 40         		LD			(IX + ESTRUCTURA_ENEMIGO.posy), FANTASMA_Y4
     153:  00:59B3  DD 36 04 B8         		LD			(IX + ESTRUCTURA_ENEMIGO.posx), FANTASMA_X4
     154:  00:59B7  C9                  		RET
     155:  00:59B8                      .resetea_posicion:
     156:  00:59B8  DD 36 0A 01         		LD			(IX + ESTRUCTURA_ENEMIGO.direccionx), 00000001b
     157:  00:59BC                      fin_calcula_fantasma_posyx:
     158:  00:59BC  C9                  		RET
     159:  00:59BD                      
     160:  00:59BD                      
     161:  00:59BD                      ;;=====================================================
     162:  00:59BD                      ;;VERIFICA_SIGUIENTE_POSICION_FANTASMA
     163:  00:59BD                      ;;=====================================================			
     164:  00:59BD                      verifica_siguiente_posicion_fantasma:
     165:  00:59BD  DD 7E 0C            		LD			 A, (IX + ESTRUCTURA_ENEMIGO.pasos)
     166:  00:59C0                      		
     167:  00:59C0  B7                  		OR			 A
     168:  00:59C1  CA C8 59            		JP			 Z, .modifica_posicion_fantasma
     169:  00:59C4                      .no_modifica_posicion_fantasma:
     170:  00:59C4  DD 35 0C            			DEC			(IX + ESTRUCTURA_ENEMIGO.pasos)
     171:  00:59C7  C9                  			RET
     172:  00:59C8                      .modifica_posicion_fantasma:
     173:  00:59C8                      			;reseteo pasos
     174:  00:59C8  DD 36 0C 64         			LD			(IX + ESTRUCTURA_ENEMIGO.pasos), FANTASMA_LIM_PASOS
     175:  00:59CC                      			;paso a la siguiente posición
     176:  00:59CC  DD CB 0A 06         			RLC			(IX + ESTRUCTURA_ENEMIGO.direccionx)
     177:  00:59D0                      fin_verifica_siguiente_posicion_fantasma:
     178:  00:59D0  C9                  			RET
      19.  00:59D1                      include "subr_enemigo_jefefantasma.asm"
       1:  00:59D1                      ;;=====================================================
       2:  00:59D1                      ;;CONTANTES JEFEFANTASMA
       3:  00:59D1                      ;;=====================================================
       4:  00:59D1                      datos_jefefantasma:
       5:  00:59D1  10                  			DB		TIPOJEFEFANTASMA	;(activo_tipo) si inactivo = 0 si <> 0 es el tipo de enemigo
       6:  00:59D2  00                  			DB		0		;(escena) sprite a mostrar 1/2
       7:  00:59D3  01                  			DB		00000001b		;(cont_sig_escena) retardo_explosion ;contador para ver cuando cambiar de sprite (y retardo_explosión irá hasta cero antes de que desaparezca la explosión)
       8:  00:59D4  80                  			DB		128		;(energia) energía del enemigo antes de morir
       9:  00:59D5  08                  			DB		JEFEFANTASMA_X1	;(posx) pos x para mover y punto central del sprite para revisar disparo
      10:  00:59D6  08                  			DB		JEFEFANTASMA_Y1	;(posy) pos y para mover y punto central del sprite para revisar disparo
      11:  00:59D7  08                  			DB		8		;(radiox) radio x del enemigo para cuando se dispare encima
      12:  00:59D8  08                  			DB		8		;(radioy) radio y del enemigo para cuando se dispare encima
      13:  00:59D9  00                  			DB		0		;(incx) incremento x para mover
      14:  00:59DA  00                  			DB		0		;(inxy) incremento y para mover
      15:  00:59DB  01                  			DB		1		;(direccionx) 00000001b / 00000010b / 00000100b / 00001000b (las 4 posiciones posibles)
      16:  00:59DC  00                  			DB		0		;(direcciony) no se usa
      17:  00:59DD  64                  			DB		JEFEFANTASMA_LIM_PASOS	;(pasos) TIEMPO QUE ESPERA PARA PASAR DE UNA ESCAA A OTRA
      18:  00:59DE  00                  			DB		0		;pocavida 0 y 1 para indicar cuando le queda poca vida al enemigo
      19:  00:59DF  F7 59               			DW		mover_jefefantasma	;(ptr_mover) puntero a subrutina que moverá el enemigo según el tipo de enemigo (se pasa al inicializar)
      20:  00:59E1  E0                  			DB		JEFEFANTASMA_SPRITE1A;izq arriba
      21:  00:59E2  E4                  			DB		JEFEFANTASMA_SPRITE2A;der_arriba
      22:  00:59E3  E8                  			DB		JEFEFANTASMA_SPRITE3A;izq abajo
      23:  00:59E4  EC                  			DB		JEFEFANTASMA_SPRITE4A;der_abajo
      24:  00:59E5                      
      25:  00:59E5                      
      26:  00:59E5                      ;;=====================================================
      27:  00:59E5                      ;;SUBRUTINAS MANEJO DE JEFEFANTASMA
      28:  00:59E5                      ;;=====================================================	
      29:  00:59E5                      
      30:  00:59E5                      
      31:  00:59E5                      ;;=====================================================
      32:  00:59E5                      ;;ANADE_ENEMIGO_JEFEFANTASMA
      33:  00:59E5                      ;;=====================================================	
      34:  00:59E5                      ; función: 	mete en memoria la plantilla de datos base del jefefantasma en el enemigo que se le pase por DE
      35:  00:59E5                      ; entrada:	DE (enemigo en concreto al que poner los datos, por ejemplo, enemigo1)
      36:  00:59E5                      ; salida: 	-
      37:  00:59E5                      ; toca:		-
      38:  00:59E5                      anade_enemigo_jefefantasma:
      39:  00:59E5  21 D1 59            		LD			HL, datos_jefefantasma
      40:  00:59E8  01 14 00            		LD			BC, ESTRUCTURA_ENEMIGO
      41:  00:59EB  ED B0               		LDIR
      42:  00:59ED                      fin_anade_enemigo_jefefantasma:
      43:  00:59ED  C9                  		RET
      44:  00:59EE                      
      45:  00:59EE                      
      46:  00:59EE                      ;;=====================================================
      47:  00:59EE                      ;;ACTUALIZA_VALORES_JEFEFANTASMA
      48:  00:59EE                      ;;=====================================================	
      49:  00:59EE                      ; función: 	inicializa valores aleatorios del jefefantasma
      50:  00:59EE                      ; entrada:	IX que equivaldrá a qué nº de enemigo estamos inicializando (por ejemplo enemigo1)
      51:  00:59EE                      ; salida: 	-
      52:  00:59EE                      ; toca:		-
      53:  00:59EE                      actualiza_valores_jefefantasma_BR:
      54:  00:59EE  DD 36 03 40         		LD			(IX + ESTRUCTURA_ENEMIGO.energia), 64
      55:  00:59F2                      		
      56:  00:59F2                      		;quitar cuando se cree el daño a los jefes
      57:  00:59F2  DD 36 0D 01         		LD			 (IX + ESTRUCTURA_ENEMIGO.pocavida), 1
      58:  00:59F6                      fin_actualiza_valores_jefefantasma_BR:
      59:  00:59F6  C9                  		RET
      60:  00:59F7                      		
      61:  00:59F7                      		
      62:  00:59F7                      ;;=====================================================
      63:  00:59F7                      ;;MOVER_JEFEFANTASMA
      64:  00:59F7                      ;;=====================================================	
      65:  00:59F7                      ; función: hace todo lo que haga falta de acciones cada vez que le toca al programa enfocarse en el jefefantasma: su ataque, su sptrite, etc...
      66:  00:59F7                      ; entrada: IX (enemigo en concreto al que poner los datos, por ejemplo, enemigo1)
      67:  00:59F7                      ; salida: 	-
      68:  00:59F7                      ; toca:		-
      69:  00:59F7                      mover_jefefantasma:
      70:  00:59F7  CD A2 5A            		CALL		calcula_jefefantasma_posyx
      71:  00:59FA                      		
      72:  00:59FA  DD 7E 05            		LD			 A, (IX + ESTRUCTURA_ENEMIGO.posy)
      73:  00:59FD  FD 77 00            		LD			(IY), A
      74:  00:5A00  FD 77 08            		LD			(IY + 8), A
      75:  00:5A03  C6 10               		ADD			16
      76:  00:5A05  FD 77 04            		LD			(IY + 4), A
      77:  00:5A08  FD 77 0C            		LD			(IY + 12), A
      78:  00:5A0B                      		
      79:  00:5A0B  DD 7E 04            		LD			 A, (IX + ESTRUCTURA_ENEMIGO.posx)
      80:  00:5A0E  FD 77 01            		LD			(IY + 1), A
      81:  00:5A11  FD 77 05            		LD			(IY + 5), A
      82:  00:5A14  C6 10               		ADD 		16
      83:  00:5A16  FD 77 09            		LD			(IY + 9), A
      84:  00:5A19  FD 77 0D            		LD			(IY + 13), A
      85:  00:5A1C                      		
      86:  00:5A1C  CD 10 5B            		CALL		verifica_siguiente_posicion_jefefantasma
      87:  00:5A1F                      		
      88:  00:5A1F  CD 6A 5A            		CALL		calcula_jefefantasma_escena		
      89:  00:5A22  DD 7E 10            		LD			 A, (IX + ESTRUCTURA_ENEMIGO.sprite_a)
      90:  00:5A25  FD 77 02            		LD			(IY + 2), A
      91:  00:5A28  DD 7E 11            		LD			 A, (IX + ESTRUCTURA_ENEMIGO.sprite_b)
      92:  00:5A2B  FD 77 06            		LD			(IY + 6), A
      93:  00:5A2E  DD 7E 12            		LD			 A, (IX + ESTRUCTURA_ENEMIGO.sprite_c)
      94:  00:5A31  FD 77 0A            		LD			(IY + 10), A
      95:  00:5A34  DD 7E 13            		LD			 A, (IX + ESTRUCTURA_ENEMIGO.sprite_d)
      96:  00:5A37  FD 77 0E            		LD			(IY + 14), A
      97:  00:5A3A                      		
      98:  00:5A3A                      		;color jefefantasma
      99:  00:5A3A  DD 7E 0D            		LD			 A, (IX + ESTRUCTURA_ENEMIGO.pocavida)
     100:  00:5A3D  B7                  		OR			 A
     101:  00:5A3E  CA 59 5A            		JP			 Z, .nointercambiacolor
     102:  00:5A41  DD 7E 01            			LD			 A, (IX + ESTRUCTURA_ENEMIGO.escena)
     103:  00:5A44  B7                  			OR			 A
     104:  00:5A45  CA 59 5A            			JP			 Z, .nointercambiacolor	
     105:  00:5A48  FD 36 03 08         				LD			(IY + 3),  COLROJO
     106:  00:5A4C  FD 36 07 08         				LD			(IY + 7),  COLROJO
     107:  00:5A50  FD 36 0B 08         				LD			(IY + 11), COLROJO
     108:  00:5A54  FD 36 0F 08         				LD			(IY + 15), COLROJO
     109:  00:5A58  C9                  				RET
     110:  00:5A59                      .nointercambiacolor:
     111:  00:5A59  FD 36 03 01         		LD			(IY + 3),  JEFEFANTASMA_COLOR
     112:  00:5A5D  FD 36 07 01         		LD			(IY + 7),  JEFEFANTASMA_COLOR
     113:  00:5A61  FD 36 0B 01         		LD			(IY + 11), JEFEFANTASMA_COLOR
     114:  00:5A65  FD 36 0F 01         		LD			(IY + 15), JEFEFANTASMA_COLOR
     115:  00:5A69                      fin_mover_jefefantasma:
     116:  00:5A69  C9                  		RET
     117:  00:5A6A                      
     118:  00:5A6A                      
     119:  00:5A6A                      ;;=====================================================
     120:  00:5A6A                      ;;CALCULA_JEFEFANTASMA_ESCENA
     121:  00:5A6A                      ;;=====================================================	
     122:  00:5A6A                      calcula_jefefantasma_escena:
     123:  00:5A6A  3A 54 C0            		LD			 A, (heartbeat_general)
     124:  00:5A6D  E6 10               		AND			JEFEFANTASMA_VELESCENA
     125:  00:5A6F  C8                  		RET			 Z   	; IF TENGO QUE CAMBIAR DE ESCENA THEN
     126:  00:5A70                      			;reseteo el cambio de escena del jefefantasma
     127:  00:5A70  AF                  			XOR			 A
     128:  00:5A71  32 54 C0            			LD			(heartbeat_general), A
     129:  00:5A74                      			
     130:  00:5A74                      			;THEN cambia escena
     131:  00:5A74  DD 7E 01            			LD			 A, (IX + ESTRUCTURA_ENEMIGO.escena)
     132:  00:5A77  EE 01               			XOR			00000001b
     133:  00:5A79  DD 77 01            			LD			(IX + ESTRUCTURA_ENEMIGO.escena), A
     134:  00:5A7C                      			
     135:  00:5A7C  B7                  			OR			 A
     136:  00:5A7D  CA 91 5A            			JP			 Z, .escena2
     137:  00:5A80                      .escena1:
     138:  00:5A80  DD 36 10 E0         				LD			(IX + ESTRUCTURA_ENEMIGO.sprite_a), JEFEFANTASMA_SPRITE1A
     139:  00:5A84  DD 36 11 E4         				LD			(IX + ESTRUCTURA_ENEMIGO.sprite_b), JEFEFANTASMA_SPRITE2A
     140:  00:5A88  DD 36 12 E8         				LD			(IX + ESTRUCTURA_ENEMIGO.sprite_c), JEFEFANTASMA_SPRITE3A
     141:  00:5A8C  DD 36 13 EC         				LD			(IX + ESTRUCTURA_ENEMIGO.sprite_d), JEFEFANTASMA_SPRITE4A
     142:  00:5A90  C9                  				RET
     143:  00:5A91                      .escena2:
     144:  00:5A91  DD 36 10 F0         				LD			(IX + ESTRUCTURA_ENEMIGO.sprite_a), JEFEFANTASMA_SPRITE1B
     145:  00:5A95  DD 36 11 F4         				LD			(IX + ESTRUCTURA_ENEMIGO.sprite_b), JEFEFANTASMA_SPRITE2B
     146:  00:5A99  DD 36 12 F8         				LD			(IX + ESTRUCTURA_ENEMIGO.sprite_c), JEFEFANTASMA_SPRITE3B
     147:  00:5A9D  DD 36 13 FC         				LD			(IX + ESTRUCTURA_ENEMIGO.sprite_d), JEFEFANTASMA_SPRITE4B
     148:  00:5AA1  C9                  				RET		
     149:  00:5AA2                      fin_calcula_jefefantasma_escena:
     150:  00:5AA2                      
     151:  00:5AA2                      
     152:  00:5AA2                      ;;=====================================================
     153:  00:5AA2                      ;;CALCULA_JEFEFANTASMA_POSYX
     154:  00:5AA2                      ;;=====================================================	
     155:  00:5AA2                      calcula_jefefantasma_posyx:
     156:  00:5AA2  DD 46 0A            		LD			 B, (IX + ESTRUCTURA_ENEMIGO.direccionx)
     157:  00:5AA5                      
     158:  00:5AA5                      .mira_posicion0:
     159:  00:5AA5  78                  		LD			 A, B
     160:  00:5AA6  E6 01               		AND			00000001b
     161:  00:5AA8  28 09               		JR			 Z, .mira_posicion1
     162:  00:5AAA  DD 36 05 08         		LD			(IX + ESTRUCTURA_ENEMIGO.posy), JEFEFANTASMA_Y1
     163:  00:5AAE  DD 36 04 08         		LD			(IX + ESTRUCTURA_ENEMIGO.posx), JEFEFANTASMA_X1
     164:  00:5AB2  C9                  		RET
     165:  00:5AB3                      		
     166:  00:5AB3                      .mira_posicion1:
     167:  00:5AB3  78                  		LD			 A, B
     168:  00:5AB4  E6 02               		AND			00000010b
     169:  00:5AB6  28 09               		JR			 Z, .mira_posicion2
     170:  00:5AB8  DD 36 05 08         		LD			(IX + ESTRUCTURA_ENEMIGO.posy), JEFEFANTASMA_Y2
     171:  00:5ABC  DD 36 04 68         		LD			(IX + ESTRUCTURA_ENEMIGO.posx), JEFEFANTASMA_X2
     172:  00:5AC0  C9                  		RET
     173:  00:5AC1                      		
     174:  00:5AC1                      .mira_posicion2:
     175:  00:5AC1  78                  		LD			 A, B
     176:  00:5AC2  E6 04               		AND			00000100b
     177:  00:5AC4  28 09               		JR			 Z, .mira_posicion3
     178:  00:5AC6  DD 36 05 10         		LD			(IX + ESTRUCTURA_ENEMIGO.posy), JEFEFANTASMA_Y3
     179:  00:5ACA  DD 36 04 E0         		LD			(IX + ESTRUCTURA_ENEMIGO.posx), JEFEFANTASMA_X3
     180:  00:5ACE  C9                  		RET
     181:  00:5ACF                      		
     182:  00:5ACF                      .mira_posicion3:
     183:  00:5ACF  78                  		LD			 A, B
     184:  00:5AD0  E6 08               		AND			00001000b
     185:  00:5AD2  28 09               		JR			 Z, .mira_posicion4
     186:  00:5AD4  DD 36 05 30         		LD			(IX + ESTRUCTURA_ENEMIGO.posy), JEFEFANTASMA_Y4
     187:  00:5AD8  DD 36 04 18         		LD			(IX + ESTRUCTURA_ENEMIGO.posx), JEFEFANTASMA_X4
     188:  00:5ADC  C9                  		RET
     189:  00:5ADD                      .mira_posicion4:
     190:  00:5ADD  78                  		LD			 A, B
     191:  00:5ADE  E6 10               		AND			00010000b
     192:  00:5AE0  28 09               		JR			 Z, .mira_posicion5
     193:  00:5AE2  DD 36 05 18         		LD			(IX + ESTRUCTURA_ENEMIGO.posy), JEFEFANTASMA_Y5
     194:  00:5AE6  DD 36 04 A8         		LD			(IX + ESTRUCTURA_ENEMIGO.posx), JEFEFANTASMA_X5
     195:  00:5AEA  C9                  		RET
     196:  00:5AEB                      .mira_posicion5:
     197:  00:5AEB  78                  		LD			 A, B
     198:  00:5AEC  E6 20               		AND			00100000b
     199:  00:5AEE  28 09               		JR			 Z, .mira_posicion6
     200:  00:5AF0  DD 36 05 58         		LD			(IX + ESTRUCTURA_ENEMIGO.posy), JEFEFANTASMA_Y6
     201:  00:5AF4  DD 36 04 C0         		LD			(IX + ESTRUCTURA_ENEMIGO.posx), JEFEFANTASMA_X6
     202:  00:5AF8  C9                  		RET
     203:  00:5AF9                      .mira_posicion6:
     204:  00:5AF9  78                  		LD			 A, B
     205:  00:5AFA  E6 40               		AND			01000000b
     206:  00:5AFC  28 09               		JR			 Z, .mira_posicion7
     207:  00:5AFE  DD 36 05 48         		LD			(IX + ESTRUCTURA_ENEMIGO.posy), JEFEFANTASMA_Y7
     208:  00:5B02  DD 36 04 80         		LD			(IX + ESTRUCTURA_ENEMIGO.posx), JEFEFANTASMA_X7
     209:  00:5B06  C9                  		RET
     210:  00:5B07                      .mira_posicion7:
     211:  00:5B07  DD 36 05 58         		LD			(IX + ESTRUCTURA_ENEMIGO.posy), JEFEFANTASMA_Y8
     212:  00:5B0B  DD 36 04 40         		LD			(IX + ESTRUCTURA_ENEMIGO.posx), JEFEFANTASMA_X8
     213:  00:5B0F  C9                  		RET
     214:  00:5B10                      fin_calcula_jefefantasma_posyx:
     215:  00:5B10                      
     216:  00:5B10                      
     217:  00:5B10                      ;;=====================================================
     218:  00:5B10                      ;;VERIFICA_SIGUIENTE_POSICION_JEFEFANTASMA
     219:  00:5B10                      ;;=====================================================			
     220:  00:5B10                      verifica_siguiente_posicion_jefefantasma:
     221:  00:5B10  DD 7E 0C            		LD			 A, (IX + ESTRUCTURA_ENEMIGO.pasos)
     222:  00:5B13                      		
     223:  00:5B13  B7                  		OR			 A
     224:  00:5B14  CA 1B 5B            		JP			 Z, .modifica_posicion_jefefantasma
     225:  00:5B17                      .no_modifica_posicion_jefefantasma:
     226:  00:5B17  DD 35 0C            			DEC			(IX + ESTRUCTURA_ENEMIGO.pasos)
     227:  00:5B1A  C9                  			RET
     228:  00:5B1B                      .modifica_posicion_jefefantasma:
     229:  00:5B1B                      			;reseteo pasos
     230:  00:5B1B  DD 36 0C 64         			LD			(IX + ESTRUCTURA_ENEMIGO.pasos), JEFEFANTASMA_LIM_PASOS
     231:  00:5B1F                      			;paso a la siguiente posición
     232:  00:5B1F  DD CB 0A 06         			RLC			(IX + ESTRUCTURA_ENEMIGO.direccionx)
     233:  00:5B23                      fin_verifica_siguiente_posicion_jefefantasma:
     234:  00:5B23  C9                  			RET
      20.  00:5B24                      include "subr_enemigo_caballerogris.asm"
       1:  00:5B24                      ;;=====================================================
       2:  00:5B24                      ;;COSNTANTES CABALLERO
       3:  00:5B24                      ;;=====================================================		
       4:  00:5B24                      datos_caballero:
       5:  00:5B24  0A                  			DB		TIPOCABALLEROGRIS	;(activo_tipo) si inactivo = 0 si <> 0 es el tipo de enemigo
       6:  00:5B25  00                  			DB		0		;(escena) sprite a mostrar 1/2
       7:  00:5B26  10                  			DB		00010000b	;(cont_sig_escena) retardo_explosion ;contador para ver cuando cambiar de sprite (y retardo_explosión irá hasta cero antes de que desaparezca la explosión)
       8:  00:5B27  0A                  			DB		10		;(energia) energía del enemigo antes de morir
       9:  00:5B28  C0                  			DB		CABALLERO_POSXINI	;(posx) pos x para mover y punto central del sprite para revisar disparo
      10:  00:5B29  30                  			DB		CABALLERO_POSYINI	;(posy) pos y para mover y punto central del sprite para revisar disparo
      11:  00:5B2A  08                  			DB		8		;(radiox) radio x del enemigo para cuando se dispare encima
      12:  00:5B2B  08                  			DB		8		;(radioy) radio y del enemigo para cuando se dispare encima
      13:  00:5B2C  00                  			DB		0		;(incx) incremento x para mover
      14:  00:5B2D  00                  			DB		0		;(inxy) incremento y para mover
      15:  00:5B2E  01                  			DB		DIRIZQUIERDA	;(direccionx) 0 derecha <> 0 izquierda // 0 abajo <> 0 arriba
      16:  00:5B2F  00                  			DB		0		;(direcciony) 0 derecha <> 0 izquierda // 0 abajo <> 0 arriba
      17:  00:5B30  90                  			DB		CABALLERO_PASOS		;(pasos) pasos para no comprobar los límites de pentalla, sólo si pasos ha llegado a 0
      18:  00:5B31  00                  			DB		0		;(radio) radio para movimientos circulares
      19:  00:5B32  41 5B               			DW		mover_caballero	;(ptr_mover) puntero a subrutina que moverá el enemigo según el tipo de enemigo (se pasa al inicializar)
      20:  00:5B34  40                  			DB		CABALLERO_SPRITE1A	;izq arriba
      21:  00:5B35  44                  			DB		CABALLERO_SPRITE2A	;der_arriba
      22:  00:5B36  48                  			DB		CABALLERO_SPRITE3A	;izq abajo
      23:  00:5B37  4C                  			DB		CABALLERO_SPRITE4A	;der_abajo
      24:  00:5B38                      
      25:  00:5B38                      
      26:  00:5B38                      ;;=====================================================
      27:  00:5B38                      ;;SUBRUTINAS MANEJO DE CABALLERO
      28:  00:5B38                      ;;=====================================================	
      29:  00:5B38                      
      30:  00:5B38                      
      31:  00:5B38                      ;;=====================================================
      32:  00:5B38                      ;;ANADE_ENEMIGO_CABALLERO
      33:  00:5B38                      ;;=====================================================	
      34:  00:5B38                      ; función: 	mete en memoria la plantilla de datos base del caballero gris en el enemigo que se le pase por DE
      35:  00:5B38                      ; entrada:	DE (enemigo en concreto al que poner los datos, por ejemplo, enemigo1)
      36:  00:5B38                      ; salida: 	-
      37:  00:5B38                      ; toca:		-
      38:  00:5B38                      anade_enemigo_caballero:
      39:  00:5B38  21 24 5B            		LD			HL, datos_caballero
      40:  00:5B3B  01 14 00            		LD			BC, ESTRUCTURA_ENEMIGO
      41:  00:5B3E  ED B0               		LDIR
      42:  00:5B40                      fin_anade_enemigo_caballero:
      43:  00:5B40  C9                  		RET
      44:  00:5B41                      
      45:  00:5B41                      
      46:  00:5B41                      ;;=====================================================
      47:  00:5B41                      ;;ACTUALIZA_VALORES_CABALLERO
      48:  00:5B41                      ;;=====================================================	
      49:  00:5B41                      ; función: 	inicializa valores aleatorios del caballero gris
      50:  00:5B41                      ; entrada:	IX que equivaldrá a qué nº de enemigo estamos inicializando (por ejemplo enemigo1)
      51:  00:5B41                      ; toca:		-
      52:  00:5B41                      actualiza_valores_caballero:
      53:  00:5B41                      fin_actualiza_valores_caballero:
      54:  00:5B41                      
      55:  00:5B41                      		
      56:  00:5B41                      ;;=====================================================
      57:  00:5B41                      ;;MOVER_CABALLERO
      58:  00:5B41                      ;;=====================================================	
      59:  00:5B41                      ; función: hace todo lo que haga falta de acciones cada vez que le toca al programa enfocarse en el caballero gris: su ataque, su sptrite, etc...
      60:  00:5B41                      ; entrada: IX (enemigo en concreto al que poner los datos, por ejemplo, enemigo1)
      61:  00:5B41                      ; salida: 	-
      62:  00:5B41                      ; toca:		-
      63:  00:5B41                      mover_caballero:
      64:  00:5B41                      		;CALL		calcula_caballero_incrementoy
      65:  00:5B41  DD 7E 05            		LD			 A, (IX + ESTRUCTURA_ENEMIGO.posy)
      66:  00:5B44  FD 77 00            		LD			(IY), A
      67:  00:5B47  C6 10               		ADD			16
      68:  00:5B49  FD 77 04            		LD			(IY + 4), A
      69:  00:5B4C                      		
      70:  00:5B4C  CD AC 5B            		CALL		calcula_caballero_incrementox
      71:  00:5B4F  DD 7E 04            		LD			 A, (IX + ESTRUCTURA_ENEMIGO.posx)
      72:  00:5B52  FD 77 01            		LD			(IY + 1), A
      73:  00:5B55  FD 77 05            		LD			(IY + 5), A
      74:  00:5B58                      		
      75:  00:5B58  CD 6F 5B            		CALL		calcula_caballero_escena		
      76:  00:5B5B  DD 7E 10            		LD			 A, (IX + ESTRUCTURA_ENEMIGO.sprite_a)
      77:  00:5B5E  FD 77 02            		LD			(IY + 2), A
      78:  00:5B61  C6 04               		ADD			 4
      79:  00:5B63  FD 77 06            		LD			(IY + 6), A
      80:  00:5B66                      		
      81:  00:5B66                      		;colorea caballero
      82:  00:5B66  FD 36 03 01         		LD			(IY + 3), CABALLERO_COLOR
      83:  00:5B6A  FD 36 07 01         		LD			(IY + 7), CABALLERO_COLOR
      84:  00:5B6E                      fin_mover_caballero:
      85:  00:5B6E  C9                  		RET
      86:  00:5B6F                      
      87:  00:5B6F                      
      88:  00:5B6F                      ;;=====================================================
      89:  00:5B6F                      ;;CALCULA_CABALLERO_ESCENA
      90:  00:5B6F                      ;;=====================================================	
      91:  00:5B6F                      calcula_caballero_escena:
      92:  00:5B6F  3A 51 C0            		LD			 A, (heartbeat_caballero)
      93:  00:5B72  E6 10               		AND			CABALLERO_VELESCENA
      94:  00:5B74  C8                  		RET			 Z   	; IF TENGO QUE CAMBIAR DE ESCENA THEN
      95:  00:5B75                      			;reseteo el cambio de escena del caballero
      96:  00:5B75  AF                  			XOR			 A
      97:  00:5B76  32 51 C0            			LD			(heartbeat_caballero), A
      98:  00:5B79                      
      99:  00:5B79  DD 7E 0A            		LD			 A, (IX + ESTRUCTURA_ENEMIGO.direccionx)
     100:  00:5B7C  B7                  		OR			 A
     101:  00:5B7D  CA 96 5B            		JP			 Z, .direccion_derecha
     102:  00:5B80                      
     103:  00:5B80                      .direccion_izquierda:
     104:  00:5B80  DD 7E 01            		LD			 A, (IX + ESTRUCTURA_ENEMIGO.escena)
     105:  00:5B83  EE 01               		XOR			00000001b
     106:  00:5B85  DD 77 01            		LD			(IX + ESTRUCTURA_ENEMIGO.escena), A
     107:  00:5B88                      			
     108:  00:5B88  B7                  		OR			 A
     109:  00:5B89  CA 91 5B            		JP			 Z, .escena_izquierda2
     110:  00:5B8C                      .escena_izquierda1:
     111:  00:5B8C  DD 36 10 50         			LD			(IX + ESTRUCTURA_ENEMIGO.sprite_a), CABALLERO_SPRITE1B
     112:  00:5B90  C9                  			RET
     113:  00:5B91                      .escena_izquierda2:
     114:  00:5B91  DD 36 10 58         			LD			(IX + ESTRUCTURA_ENEMIGO.sprite_a), CABALLERO_SPRITE3B
     115:  00:5B95  C9                  			RET
     116:  00:5B96                      
     117:  00:5B96                      .direccion_derecha:
     118:  00:5B96  DD 7E 01            		LD			 A, (IX + ESTRUCTURA_ENEMIGO.escena)
     119:  00:5B99  EE 01               		XOR			00000001b
     120:  00:5B9B  DD 77 01            		LD			(IX + ESTRUCTURA_ENEMIGO.escena), A
     121:  00:5B9E                      			
     122:  00:5B9E  B7                  		OR			 A
     123:  00:5B9F  CA A7 5B            		JP			 Z, .escena_derecha2
     124:  00:5BA2                      .escena_derecha1:
     125:  00:5BA2  DD 36 10 40         			LD			(IX + ESTRUCTURA_ENEMIGO.sprite_a), CABALLERO_SPRITE1A
     126:  00:5BA6  C9                  			RET
     127:  00:5BA7                      .escena_derecha2:
     128:  00:5BA7  DD 36 10 48         			LD			(IX + ESTRUCTURA_ENEMIGO.sprite_a), CABALLERO_SPRITE3A
     129:  00:5BAB  C9                  			RET
     130:  00:5BAC                      fin_calcula_caballero_escena:
     131:  00:5BAC                      
     132:  00:5BAC                      
     133:  00:5BAC                      ;;=====================================================
     134:  00:5BAC                      ;;CALCULA_CABALLERO_INCREMENTOY
     135:  00:5BAC                      ;;=====================================================	
     136:  00:5BAC                      calcula_caballero_incrementoy:
     137:  00:5BAC                      fin_calcula_caballero_incrementoy:
     138:  00:5BAC                      
     139:  00:5BAC                      
     140:  00:5BAC                      ;;=====================================================
     141:  00:5BAC                      ;;CALCULA_CABALLERO_INCREMENTOX
     142:  00:5BAC                      ;;====================================================	
     143:  00:5BAC                      calcula_caballero_incrementox:
     144:  00:5BAC  DD 7E 0A            			LD			 A, (IX + ESTRUCTURA_ENEMIGO.direccionx)
     145:  00:5BAF  B7                  			OR			 A
     146:  00:5BB0  CA B9 5B            			JP			 Z, .mueve_derecha
     147:  00:5BB3                      .mueve_izquierda:
     148:  00:5BB3  DD 35 04            				DEC			(IX + ESTRUCTURA_ENEMIGO.posx)
     149:  00:5BB6  C3 BC 5B            				JP			.fin_mueve_posx
     150:  00:5BB9                      .mueve_derecha:
     151:  00:5BB9  DD 34 04            				INC			(IX + ESTRUCTURA_ENEMIGO.posx)
     152:  00:5BBC                      .fin_mueve_posx:
     153:  00:5BBC                      
     154:  00:5BBC  DD 35 0C            			DEC			(IX + ESTRUCTURA_ENEMIGO.pasos)
     155:  00:5BBF  C0                  			RET			NZ
     156:  00:5BC0                      				;cambio dirección
     157:  00:5BC0  DD 7E 0A            				LD			 A, (IX + ESTRUCTURA_ENEMIGO.direccionx)
     158:  00:5BC3  EE 01               				XOR			00000001b
     159:  00:5BC5  DD 77 0A            				LD			(IX + ESTRUCTURA_ENEMIGO.direccionx), A
     160:  00:5BC8                      				;resetea pasos
     161:  00:5BC8  DD 36 0C 90         				LD			(IX + ESTRUCTURA_ENEMIGO.pasos), CABALLERO_PASOS
     162:  00:5BCC                      fin_calcula_caballero_incrementox:
     163:  00:5BCC  C9                  		RET
      21.  00:5BCD                      include "subr_enemigo_jefezombi.asm"
       1:  00:5BCD                      ;;=====================================================
       2:  00:5BCD                      ;;COSNTANTES JEFEZOMBI
       3:  00:5BCD                      ;;=====================================================		
       4:  00:5BCD                      datos_jefezombi:
       5:  00:5BCD  11                  			DB		TIPOJEFEZOMBI	;(activo_tipo) si inactivo = 0 si <> 0 es el tipo de enemigo
       6:  00:5BCE  00                  			DB		0		;(escena) sprite a mostrar 1/2
       7:  00:5BCF  10                  			DB		00010000b	;(cont_sig_escena) retardo_explosion ;contador para ver cuando cambiar de sprite (y retardo_explosión irá hasta cero antes de que desaparezca la explosión)
       8:  00:5BD0  80                  			DB		128		;(energia) energía del enemigo antes de morir
       9:  00:5BD1  C8                  			DB		JEFEZOMBI_POSX	;(posx) pos x para mover y punto central del sprite para revisar disparo
      10:  00:5BD2  40                  			DB		JEFEZOMBI_POSY	;(posy) pos y para mover y punto central del sprite para revisar disparo
      11:  00:5BD3  08                  			DB		8		;(radiox) radio x del enemigo para cuando se dispare encima
      12:  00:5BD4  08                  			DB		8		;(radioy) radio y del enemigo para cuando se dispare encima
      13:  00:5BD5  00                  			DB		0		;(incx) incremento x para mover
      14:  00:5BD6  00                  			DB		0		;(inxy) incremento y para mover
      15:  00:5BD7  00                  			DB		DIRDERECHA		;(direccionx) 0 derecha <> 0 izquierda // 0 abajo <> 0 arriba
      16:  00:5BD8  00                  			DB		0		;(direcciony) 0 derecha <> 0 izquierda // 0 abajo <> 0 arriba
      17:  00:5BD9  96                  			DB		JEFEZOMBI_PASOS		;(pasos) pasos para no comprobar los límites de pentalla, sólo si pasos ha llegado a 0
      18:  00:5BDA  00                  			DB		0		;pocavida 0 y 1 para indicar cuando le queda poca vida al enemigo
      19:  00:5BDB  F3 5B               			DW		mover_jefezombi		;(ptr_mover) puntero a subrutina que moverá el enemigo según el tipo de enemigo (se pasa al inicializar)
      20:  00:5BDD  C0                  			DB		JEFEZOMBI_SPRITE1A	;izq arriba
      21:  00:5BDE  C4                  			DB		JEFEZOMBI_SPRITE2A	;der_arriba
      22:  00:5BDF  C8                  			DB		JEFEZOMBI_SPRITE3A	;izq abajo
      23:  00:5BE0  CC                  			DB		JEFEZOMBI_SPRITE4A	;der_abajo
      24:  00:5BE1                      
      25:  00:5BE1                      
      26:  00:5BE1                      ;;=====================================================
      27:  00:5BE1                      ;;SUBRUTINAS MANEJO DE JEFEZOMBI
      28:  00:5BE1                      ;;=====================================================	
      29:  00:5BE1                      
      30:  00:5BE1                      
      31:  00:5BE1                      ;;=====================================================
      32:  00:5BE1                      ;;ANADE_ENEMIGO_JEFEZOMBI
      33:  00:5BE1                      ;;=====================================================	
      34:  00:5BE1                      ; función: 	mete en memoria la plantilla de datos base del jefezombi en el enemigo que se le pase por DE
      35:  00:5BE1                      ; entrada:	DE (enemigo en concreto al que poner los datos, por ejemplo, enemigo1)
      36:  00:5BE1                      ; salida: 	-
      37:  00:5BE1                      ; toca:		-
      38:  00:5BE1                      anade_enemigo_jefezombi:
      39:  00:5BE1  21 CD 5B            		LD			HL, datos_jefezombi
      40:  00:5BE4  01 14 00            		LD			BC, ESTRUCTURA_ENEMIGO
      41:  00:5BE7  ED B0               		LDIR
      42:  00:5BE9                      fin_anade_enemigo_jefezombi:
      43:  00:5BE9  C9                  		RET
      44:  00:5BEA                      
      45:  00:5BEA                      
      46:  00:5BEA                      ;;=====================================================
      47:  00:5BEA                      ;;ACTUALIZA_VALORES_JEFEZOMBI 
      48:  00:5BEA                      ;;=====================================================	
      49:  00:5BEA                      ; función: 	inicializa valores aleatorios del zombi
      50:  00:5BEA                      ; entrada:	IX que equivaldrá a qué nº de enemigo estamos inicializando (por ejemplo enemigo1)
      51:  00:5BEA                      ; toca:		-
      52:  00:5BEA                      actualiza_valores_jefezombi_BR:
      53:  00:5BEA  DD 36 03 40         		LD			(IX + ESTRUCTURA_ENEMIGO.energia), 64
      54:  00:5BEE                      		
      55:  00:5BEE                      		;quitar cuando se cree el daño a los jefes
      56:  00:5BEE  DD 36 0D 01         		LD			 (IX + ESTRUCTURA_ENEMIGO.pocavida), 1
      57:  00:5BF2                      fin_actualiza_valores_jefezombi_BR:
      58:  00:5BF2  C9                  		RET
      59:  00:5BF3                      		
      60:  00:5BF3                      		
      61:  00:5BF3                      ;;=====================================================
      62:  00:5BF3                      ;;MOVER_JEFEZOMBI
      63:  00:5BF3                      ;;=====================================================	
      64:  00:5BF3                      ; función: hace todo lo que haga falta de acciones cada vez que le toca al programa enfocarse en el jefezombi: su ataque, su sptrite, etc...
      65:  00:5BF3                      ; entrada: IX (enemigo en concreto al que poner los datos, por ejemplo, enemigo1)
      66:  00:5BF3                      ; salida: 	-
      67:  00:5BF3                      ; toca:		-
      68:  00:5BF3                      mover_jefezombi:
      69:  00:5BF3  CD A4 57            		CALL		calcula_zombi_incrementoy	;se usa el movimiento del zombi normal
      70:  00:5BF6  DD 7E 05            		LD			 A, (IX + ESTRUCTURA_ENEMIGO.posy)
      71:  00:5BF9  FD 77 00            		LD			(IY), A
      72:  00:5BFC  FD 77 08            		LD			(IY + 8), A
      73:  00:5BFF  C6 10               		ADD			16
      74:  00:5C01  FD 77 04            		LD			(IY + 4), A
      75:  00:5C04  FD 77 0C            		LD			(IY + 12), A
      76:  00:5C07                      		
      77:  00:5C07  CD BC 57            		CALL		calcula_zombi_incrementox	;se usa el movimiento del zombi normal
      78:  00:5C0A  DD 7E 04            		LD			 A, (IX + ESTRUCTURA_ENEMIGO.posx)
      79:  00:5C0D  FD 77 01            		LD			(IY + 1), A
      80:  00:5C10  FD 77 05            		LD			(IY + 5), A
      81:  00:5C13  C6 10               		ADD 		16
      82:  00:5C15  FD 77 09            		LD			(IY + 9), A
      83:  00:5C18  FD 77 0D            		LD			(IY + 13), A
      84:  00:5C1B                      		
      85:  00:5C1B  CD 66 5C            		CALL		calcula_jefezombi_escena		
      86:  00:5C1E  DD 7E 10            		LD			 A, (IX + ESTRUCTURA_ENEMIGO.sprite_a)
      87:  00:5C21  FD 77 02            		LD			(IY + 2), A
      88:  00:5C24  DD 7E 11            		LD			 A, (IX + ESTRUCTURA_ENEMIGO.sprite_b)
      89:  00:5C27  FD 77 06            		LD			(IY + 6), A
      90:  00:5C2A  DD 7E 12            		LD			 A, (IX + ESTRUCTURA_ENEMIGO.sprite_c)
      91:  00:5C2D  FD 77 0A            		LD			(IY + 10), A
      92:  00:5C30  DD 7E 13            		LD			 A, (IX + ESTRUCTURA_ENEMIGO.sprite_d)
      93:  00:5C33  FD 77 0E            		LD			(IY + 14), A
      94:  00:5C36                      		
      95:  00:5C36                      		;colorea jefe zombi
      96:  00:5C36  DD 7E 0D            		LD			 A, (IX + ESTRUCTURA_ENEMIGO.pocavida)
      97:  00:5C39  B7                  		OR			 A
      98:  00:5C3A  CA 55 5C            		JP			 Z, .nointercambiacolor
      99:  00:5C3D  DD 7E 01            			LD			 A, (IX + ESTRUCTURA_ENEMIGO.escena)
     100:  00:5C40  B7                  			OR			 A
     101:  00:5C41  CA 55 5C            			JP			 Z, .nointercambiacolor	
     102:  00:5C44  FD 36 03 08         				LD			(IY + 3),  COLROJO
     103:  00:5C48  FD 36 07 08         				LD			(IY + 7),  COLROJO
     104:  00:5C4C  FD 36 0B 08         				LD			(IY + 11), COLROJO
     105:  00:5C50  FD 36 0F 08         				LD			(IY + 15), COLROJO
     106:  00:5C54  C9                  				RET
     107:  00:5C55                      .nointercambiacolor:		
     108:  00:5C55  FD 36 03 01         		LD			(IY + 3),  JEFEZOMBI_COLOR_A
     109:  00:5C59  FD 36 07 01         		LD			(IY + 7),  JEFEZOMBI_COLOR_B
     110:  00:5C5D  FD 36 0B 01         		LD			(IY + 11), JEFEZOMBI_COLOR_C
     111:  00:5C61  FD 36 0F 01         		LD			(IY + 15), JEFEZOMBI_COLOR_D
     112:  00:5C65                      fin_mover_jefezombi:
     113:  00:5C65  C9                  		RET
     114:  00:5C66                      
     115:  00:5C66                      
     116:  00:5C66                      ;;=====================================================
     117:  00:5C66                      ;;CALCULA_JEFEZOMBI_ESCENA
     118:  00:5C66                      ;;=====================================================	
     119:  00:5C66                      calcula_jefezombi_escena:
     120:  00:5C66  3A 54 C0            		LD			 A, (heartbeat_general)
     121:  00:5C69  E6 10               		AND			JEFEZOMBI_VELESCENA
     122:  00:5C6B  C8                  		RET			 Z   	; IF TENGO QUE CAMBIAR DE ESCENA THEN
     123:  00:5C6C                      			;reseteo el cambio de escena del jefezobi
     124:  00:5C6C  AF                  			XOR			 A
     125:  00:5C6D  32 54 C0            			LD			(heartbeat_general), A
     126:  00:5C70                      
     127:  00:5C70  DD 7E 0A            		LD			 A, (IX + ESTRUCTURA_ENEMIGO.direccionx)
     128:  00:5C73  B7                  		OR			 A
     129:  00:5C74  CA A5 5C            		JP			 Z, .direccion_derecha
     130:  00:5C77                      
     131:  00:5C77                      .direccion_izquierda:
     132:  00:5C77  DD 7E 01            		LD			 A, (IX + ESTRUCTURA_ENEMIGO.escena)
     133:  00:5C7A  EE 01               		XOR			00000001b
     134:  00:5C7C  DD 77 01            		LD			(IX + ESTRUCTURA_ENEMIGO.escena), A
     135:  00:5C7F                      			
     136:  00:5C7F  B7                  		OR			 A
     137:  00:5C80  CA 94 5C            		JP			 Z, .escena_izquierda2
     138:  00:5C83                      .escena_izquierda1:
     139:  00:5C83  DD 36 10 E0         			LD			(IX + ESTRUCTURA_ENEMIGO.sprite_a), JEFEZOMBI_SPRITE1C
     140:  00:5C87  DD 36 11 E4         			LD			(IX + ESTRUCTURA_ENEMIGO.sprite_b), JEFEZOMBI_SPRITE2C
     141:  00:5C8B  DD 36 12 E8         			LD			(IX + ESTRUCTURA_ENEMIGO.sprite_c), JEFEZOMBI_SPRITE3C
     142:  00:5C8F  DD 36 13 EC         			LD			(IX + ESTRUCTURA_ENEMIGO.sprite_d), JEFEZOMBI_SPRITE4C
     143:  00:5C93  C9                  			RET
     144:  00:5C94                      .escena_izquierda2:
     145:  00:5C94  DD 36 10 F0         			LD			(IX + ESTRUCTURA_ENEMIGO.sprite_a), JEFEZOMBI_SPRITE1D
     146:  00:5C98  DD 36 11 F4         			LD			(IX + ESTRUCTURA_ENEMIGO.sprite_b), JEFEZOMBI_SPRITE2D
     147:  00:5C9C  DD 36 12 F8         			LD			(IX + ESTRUCTURA_ENEMIGO.sprite_c), JEFEZOMBI_SPRITE3D
     148:  00:5CA0  DD 36 13 FC         			LD			(IX + ESTRUCTURA_ENEMIGO.sprite_d), JEFEZOMBI_SPRITE4D
     149:  00:5CA4  C9                  			RET
     150:  00:5CA5                      
     151:  00:5CA5                      .direccion_derecha:
     152:  00:5CA5  DD 7E 01            		LD			 A, (IX + ESTRUCTURA_ENEMIGO.escena)
     153:  00:5CA8  EE 01               		XOR			00000001b
     154:  00:5CAA  DD 77 01            		LD			(IX + ESTRUCTURA_ENEMIGO.escena), A
     155:  00:5CAD                      			
     156:  00:5CAD  B7                  		OR			 A
     157:  00:5CAE  CA C2 5C            		JP			 Z, .escena_derecha2
     158:  00:5CB1                      .escena_derecha1:
     159:  00:5CB1  DD 36 10 C0         			LD			(IX + ESTRUCTURA_ENEMIGO.sprite_a), JEFEZOMBI_SPRITE1A
     160:  00:5CB5  DD 36 11 C4         			LD			(IX + ESTRUCTURA_ENEMIGO.sprite_b), JEFEZOMBI_SPRITE2A
     161:  00:5CB9  DD 36 12 C8         			LD			(IX + ESTRUCTURA_ENEMIGO.sprite_c), JEFEZOMBI_SPRITE3A
     162:  00:5CBD  DD 36 13 CC         			LD			(IX + ESTRUCTURA_ENEMIGO.sprite_d), JEFEZOMBI_SPRITE4A
     163:  00:5CC1  C9                  			RET
     164:  00:5CC2                      .escena_derecha2:
     165:  00:5CC2  DD 36 10 D0         			LD			(IX + ESTRUCTURA_ENEMIGO.sprite_a), JEFEZOMBI_SPRITE1B
     166:  00:5CC6  DD 36 11 D4         			LD			(IX + ESTRUCTURA_ENEMIGO.sprite_b), JEFEZOMBI_SPRITE2B
     167:  00:5CCA  DD 36 12 D8         			LD			(IX + ESTRUCTURA_ENEMIGO.sprite_c), JEFEZOMBI_SPRITE3B
     168:  00:5CCE  DD 36 13 DC         			LD			(IX + ESTRUCTURA_ENEMIGO.sprite_d), JEFEZOMBI_SPRITE4B
     169:  00:5CD2  C9                  			RET
     170:  00:5CD3                      fin_calcula_jefezombi_escena:
     171:  00:5CD3                      
     172:  00:5CD3                      
     173:  00:5CD3                      ;;=====================================================
     174:  00:5CD3                      ;;CALCULA_JEFEZOMBI_INCREMENTOY
     175:  00:5CD3                      ;;=====================================================	
     176:  00:5CD3                      calcula_jefezombi_incrementoy:
     177:  00:5CD3                      fin_calcula_jefezombi_incrementoy:
     178:  00:5CD3                      		
     179:  00:5CD3                      
     180:  00:5CD3                      ;;=====================================================
     181:  00:5CD3                      ;;CALCULA_JEFEZOMBI_INCREMENTOX
     182:  00:5CD3                      ;;====================================================	
     183:  00:5CD3                      calcula_jefezombi_incrementox:
     184:  00:5CD3                      fin_calcula_jefezombi_incrementox:
      22.  00:5CD3                      include "subr_enemigo_fuego.asm"
       1:  00:5CD3                      ;;=====================================================
       2:  00:5CD3                      ;;CONTANTES FUEGO
       3:  00:5CD3                      ;;=====================================================
       4:  00:5CD3                      datos_fuego:
       5:  00:5CD3  0C                  			DB		TIPOFUEGO	;(activo_tipo) si inactivo = 0 si <> 0 es el tipo de enemigo
       6:  00:5CD4  00                  			DB		0		;(escena) sprite a mostrar 1/2
       7:  00:5CD5  10                  			DB		00010000b	;(cont_sig_escena) retardo_explosion ;contador para ver cuando cambiar de sprite (y retardo_explosión irá hasta cero antes de que desaparezca la explosión)
       8:  00:5CD6  0A                  			DB		10		;(energia) energía del enemigo antes de morir
       9:  00:5CD7  0F                  			DB		FUEGO_POS1X	;(posx) pos x para mover y punto central del sprite para revisar disparo
      10:  00:5CD8  0F                  			DB		FUEGO_POS1Y	;(posy) pos y para mover y punto central del sprite para revisar disparo
      11:  00:5CD9  08                  			DB		8		;(radiox) radio x del enemigo para cuando se dispare encima
      12:  00:5CDA  08                  			DB		8		;(radioy) radio y del enemigo para cuando se dispare encima
      13:  00:5CDB  00                  			DB		0		;(incx) incremento x para mover
      14:  00:5CDC  00                  			DB		0		;(inxy) incremento y para mover
      15:  00:5CDD  01                  			DB		00000001	;(direccionx) 00000001 derecha // 00000010 abajo // 00000100 izquierda // 00001000 arriba
      16:  00:5CDE  00                  			DB		0		;(direcciony) 0 derecha <> 0 izquierda // 0 abajo <> 0 arriba
      17:  00:5CDF  D0                  			DB		FUEGO_PASOSX;(pasos) pasos para no comprobar los límites de pentalla, sólo si pasos ha llegado a 0
      18:  00:5CE0  00                  			DB		0		;(radio) radio para movimientos circulares
      19:  00:5CE1  F0 5C               			DW		mover_fuego	;(ptr_mover) puntero a subrutina que moverá el enemigo según el tipo de enemigo (se pasa al inicializar)
      20:  00:5CE3  B0                  			DB		FUEGO_SPRITE1A	;izq arriba
      21:  00:5CE4  B0                  			DB		FUEGO_SPRITE1A	;izq abajo
      22:  00:5CE5  B0                  			DB		FUEGO_SPRITE1A	;der_arriba
      23:  00:5CE6  B0                  			DB		FUEGO_SPRITE1A	;der_abajo
      24:  00:5CE7                      
      25:  00:5CE7                      
      26:  00:5CE7                      ;;=====================================================
      27:  00:5CE7                      ;;SUBRUTINAS MANEJO DE FUEGO
      28:  00:5CE7                      ;;=====================================================	
      29:  00:5CE7                      
      30:  00:5CE7                      
      31:  00:5CE7                      ;;=====================================================
      32:  00:5CE7                      ;;ANADE_ENEMIGO_FUEGO
      33:  00:5CE7                      ;;=====================================================	
      34:  00:5CE7                      ; función: 	mete en memoria la plantilla de datos base del fuego en el enemigo que se le pase por DE
      35:  00:5CE7                      ; entrada:	DE (enemigo en concreto al que poner los datos, por ejemplo, enemigo1)
      36:  00:5CE7                      ; salida: 	-
      37:  00:5CE7                      ; toca:		-
      38:  00:5CE7                      anade_enemigo_fuego:
      39:  00:5CE7  21 D3 5C            		LD			HL, datos_fuego
      40:  00:5CEA  01 14 00            		LD			BC, ESTRUCTURA_ENEMIGO
      41:  00:5CED  ED B0               		LDIR
      42:  00:5CEF                      fin_anade_enemigo_fuego:
      43:  00:5CEF  C9                  		RET
      44:  00:5CF0                      
      45:  00:5CF0                      
      46:  00:5CF0                      ;;=====================================================
      47:  00:5CF0                      ;;ACTUALIZA_VALORES_FUEGO
      48:  00:5CF0                      ;;=====================================================	
      49:  00:5CF0                      ; función: 	inicializa valores aleatorios del murciélago
      50:  00:5CF0                      ; entrada:	IX que equivaldrá a qué nº de enemigo estamos inicializando (por ejemplo enemigo1)
      51:  00:5CF0                      ; salida: 	-
      52:  00:5CF0                      ; toca:		-
      53:  00:5CF0                      actualiza_valores_fuego:
      54:  00:5CF0                      fin_actualiza_valores_fuego:
      55:  00:5CF0                      		
      56:  00:5CF0                      		
      57:  00:5CF0                      ;;=====================================================
      58:  00:5CF0                      ;;MOVER_FUEGO
      59:  00:5CF0                      ;;=====================================================	
      60:  00:5CF0                      ; función: hace todo lo que haga falta de acciones cada vez que le toca al programa enfocarse en el muerciélago: su ataque, su sptrite, etc...
      61:  00:5CF0                      ; entrada: IX (enemigo en concreto al que poner los datos, por ejemplo, enemigo1)
      62:  00:5CF0                      ; salida: 	-
      63:  00:5CF0                      ; toca:		-
      64:  00:5CF0                      mover_fuego:
      65:  00:5CF0  CD 45 5D            		CALL		calcula_fuego_incrementoxy
      66:  00:5CF3  DD 7E 05            		LD			 A, (IX + ESTRUCTURA_ENEMIGO.posy)
      67:  00:5CF6  FD 77 00            		LD			(IY), A
      68:  00:5CF9  C6 10               		ADD			16
      69:  00:5CFB  FD 77 04            		LD			(IY + 4), A
      70:  00:5CFE                      		
      71:  00:5CFE  DD 7E 04            		LD			 A, (IX + ESTRUCTURA_ENEMIGO.posx)
      72:  00:5D01  FD 77 01            		LD			(IY + 1), A
      73:  00:5D04  FD 77 05            		LD			(IY + 5), A
      74:  00:5D07                      		
      75:  00:5D07  CD 1E 5D            		CALL		calcula_fuego_escena		
      76:  00:5D0A  DD 7E 10            		LD			 A, (IX + ESTRUCTURA_ENEMIGO.sprite_a)
      77:  00:5D0D  FD 77 02            		LD			(IY + 2), A
      78:  00:5D10  C6 04               		ADD			 4
      79:  00:5D12  FD 77 06            		LD			(IY + 6), A
      80:  00:5D15                      		
      81:  00:5D15                      		;colorea fuego
      82:  00:5D15  FD 36 03 01         		LD			(IY + 3), FUEGO_COLOR1
      83:  00:5D19  FD 36 07 01         		LD			(IY + 7), FUEGO_COLOR2
      84:  00:5D1D                      fin_mover_fuego:
      85:  00:5D1D  C9                  		RET
      86:  00:5D1E                      
      87:  00:5D1E                      
      88:  00:5D1E                      ;;=====================================================
      89:  00:5D1E                      ;;CALCULA_FUEGO_ESCENA
      90:  00:5D1E                      ;;=====================================================	
      91:  00:5D1E                      calcula_fuego_escena:
      92:  00:5D1E  3A 52 C0            		LD			 A, (heartbeat_fuego)
      93:  00:5D21  E6 20               		AND			FUEGO_VELESCENA
      94:  00:5D23  C8                  		RET			 Z   	; IF TENGO QUE CAMBIAR DE ESCENA THEN
      95:  00:5D24                      			;reseteo el cambio de escena del fuego
      96:  00:5D24  AF                  			XOR			 A
      97:  00:5D25  32 52 C0            			LD			(heartbeat_fuego), A
      98:  00:5D28                      			
      99:  00:5D28                      			; cambio de escena
     100:  00:5D28  DD 7E 01            			LD			 A, (IX + ESTRUCTURA_ENEMIGO.escena)
     101:  00:5D2B  EE 01               			XOR			00000001b
     102:  00:5D2D  DD 77 01            			LD			(IX + ESTRUCTURA_ENEMIGO.escena), A
     103:  00:5D30                      			
     104:  00:5D30  CA 3C 5D            			JP			 Z, .enemigo1_poner_escena2			; IF ESCENA 1 THEN
     105:  00:5D33  DD 36 10 B0         				LD			(IX + ESTRUCTURA_ENEMIGO.sprite_a), FUEGO_SPRITE1A
     106:  00:5D37  DD 36 11 B8         				LD			(IX + ESTRUCTURA_ENEMIGO.sprite_b), FUEGO_SPRITE1B
     107:  00:5D3B  C9                  				RET
     108:  00:5D3C                      .enemigo1_poner_escena2:									; ELSE
     109:  00:5D3C  DD 36 10 B4         				LD			(IX + ESTRUCTURA_ENEMIGO.sprite_a), FUEGO_SPRITE2A
     110:  00:5D40  DD 36 11 BC         				LD			(IX + ESTRUCTURA_ENEMIGO.sprite_b), FUEGO_SPRITE2B
     111:  00:5D44  C9                  				RET
     112:  00:5D45                      fin_calcula_fuego_escena:
     113:  00:5D45                      
     114:  00:5D45                      
     115:  00:5D45                      ;;=====================================================
     116:  00:5D45                      ;;CALCULA_FUEGO_INCREMENTOY
     117:  00:5D45                      ;;=====================================================	
     118:  00:5D45                      ;~ a: 15,15	b: 223,15
     119:  00:5D45                      ;~ c: 15,79	d: 223,79
     120:  00:5D45                      calcula_fuego_incrementoxy:
     121:  00:5D45                      .examino_sentido_derecha:
     122:  00:5D45  DD CB 0A 46         		BIT			 0, (IX + ESTRUCTURA_ENEMIGO.direccionx)
     123:  00:5D49  CA 5C 5D            		JP			 Z, .examino_sentido_abajo
     124:  00:5D4C  DD 34 04            		INC			(IX + ESTRUCTURA_ENEMIGO.posx)
     125:  00:5D4F  DD 35 0C            		DEC			(IX + ESTRUCTURA_ENEMIGO.pasos)
     126:  00:5D52  C0                  		RET			NZ
     127:  00:5D53                      			;implica que se han terminado los pasos y hay que cambiar de sentido
     128:  00:5D53  DD CB 0A 16         			RL			(IX + ESTRUCTURA_ENEMIGO.direccionx)
     129:  00:5D57  DD 36 0C 40         			LD			(IX + ESTRUCTURA_ENEMIGO.pasos), FUEGO_PASOSY
     130:  00:5D5B  C9                  		RET		
     131:  00:5D5C                      .examino_sentido_abajo:
     132:  00:5D5C  DD CB 0A 4E         		BIT			 1, (IX + ESTRUCTURA_ENEMIGO.direccionx)
     133:  00:5D60  CA 73 5D            		JP			 Z, .examino_sentido_izquierda
     134:  00:5D63  DD 34 05            		INC			(IX + ESTRUCTURA_ENEMIGO.posy)
     135:  00:5D66  DD 35 0C            		DEC			(IX + ESTRUCTURA_ENEMIGO.pasos)
     136:  00:5D69  C0                  		RET			NZ
     137:  00:5D6A                      			;implica que se han terminado los pasos y hay que cambiar de sentido
     138:  00:5D6A  DD CB 0A 16         			RL			(IX + ESTRUCTURA_ENEMIGO.direccionx)
     139:  00:5D6E  DD 36 0C D0         			LD			(IX + ESTRUCTURA_ENEMIGO.pasos), FUEGO_PASOSX
     140:  00:5D72  C9                  		RET
     141:  00:5D73                      .examino_sentido_izquierda:
     142:  00:5D73  DD CB 0A 56         		BIT			 2, (IX + ESTRUCTURA_ENEMIGO.direccionx)
     143:  00:5D77  CA 8A 5D            		JP			 Z,.examino_sentido_arriba
     144:  00:5D7A  DD 35 04            		DEC			(IX + ESTRUCTURA_ENEMIGO.posx)
     145:  00:5D7D  DD 35 0C            		DEC			(IX + ESTRUCTURA_ENEMIGO.pasos)
     146:  00:5D80  C0                  		RET			NZ
     147:  00:5D81                      			;implica que se han terminado los pasos y hay que cambiar de sentido
     148:  00:5D81  DD CB 0A 16         			RL			(IX + ESTRUCTURA_ENEMIGO.direccionx)
     149:  00:5D85  DD 36 0C 40         			LD			(IX + ESTRUCTURA_ENEMIGO.pasos), FUEGO_PASOSY
     150:  00:5D89  C9                  		RET
     151:  00:5D8A                      .examino_sentido_arriba:
     152:  00:5D8A  DD 35 05            		DEC			(IX + ESTRUCTURA_ENEMIGO.posy)
     153:  00:5D8D  DD 35 0C            		DEC			(IX + ESTRUCTURA_ENEMIGO.pasos)
     154:  00:5D90  C0                  		RET			NZ
     155:  00:5D91                      			;implica que se han terminado los pasos y hay que cambiar de sentido
     156:  00:5D91  DD 36 0A 01         			LD			(IX + ESTRUCTURA_ENEMIGO.direccionx), 00000001b
     157:  00:5D95  DD 36 0C D0         			LD			(IX + ESTRUCTURA_ENEMIGO.pasos), FUEGO_PASOSX
     158:  00:5D99  C9                  		RET
     159:  00:5D9A                      fin_calcula_fuego_incrementoxy:
      23.  00:5D9A                      include "subr_enemigo_jefecaballero.asm"
       1:  00:5D9A                      ;;=====================================================
       2:  00:5D9A                      ;;COSNTANTES JEFECABALLERO
       3:  00:5D9A                      ;;=====================================================		
       4:  00:5D9A                      datos_jefecaballero:
       5:  00:5D9A  12                  			DB		TIPOJEFECABALLERO	;(activo_tipo) si inactivo = 0 si <> 0 es el tipo de enemigo
       6:  00:5D9B  00                  			DB		0		;(escena) sprite a mostrar 1/2
       7:  00:5D9C  10                  			DB		00010000b	;(cont_sig_escena) retardo_explosion ;contador para ver cuando cambiar de sprite (y retardo_explosión irá hasta cero antes de que desaparezca la explosión)
       8:  00:5D9D  80                  			DB		128		;(energia) energía del enemigo antes de morir
       9:  00:5D9E  C0                  			DB		JCABALLERO_POSXINI	;(posx) pos x para mover y punto central del sprite para revisar disparo
      10:  00:5D9F  30                  			DB		JCABALLERO_POSYINI	;(posy) pos y para mover y punto central del sprite para revisar disparo
      11:  00:5DA0  08                  			DB		8		;(radiox) radio x del enemigo para cuando se dispare encima
      12:  00:5DA1  08                  			DB		8		;(radioy) radio y del enemigo para cuando se dispare encima
      13:  00:5DA2  00                  			DB		0		;(incx) incremento x para mover
      14:  00:5DA3  00                  			DB		0		;(inxy) incremento y para mover
      15:  00:5DA4  01                  			DB		DIRIZQUIERDA	;(direccionx) 0 derecha <> 0 izquierda // 0 abajo <> 0 arriba
      16:  00:5DA5  00                  			DB		0		;(direcciony) 0 derecha <> 0 izquierda // 0 abajo <> 0 arriba
      17:  00:5DA6  B6                  			DB		JCABALLERO_PASOS		;(pasos) pasos para no comprobar los límites de pentalla, sólo si pasos ha llegado a 0
      18:  00:5DA7  00                  			DB		0		;pocavida 0 y 1 para indicar cuando le queda poca vida al enemigo
      19:  00:5DA8  F5 5D               			DW		mover_jefecaballero	;(ptr_mover) puntero a subrutina que moverá el enemigo según el tipo de enemigo (se pasa al inicializar)
      20:  00:5DAA  C0                  			DB		JCABALLERO_SPRITE1A	;izq arriba
      21:  00:5DAB  C4                  			DB		JCABALLERO_SPRITE2A	;der_arriba
      22:  00:5DAC  C8                  			DB		JCABALLERO_SPRITE3A	;izq abajo
      23:  00:5DAD  CC                  			DB		JCABALLERO_SPRITE4A	;der_abajo
      24:  00:5DAE                      
      25:  00:5DAE                      array_jefecaballero_posicionesy:
      26:  00:5DAE                      			DB		0,14,28,42,56,69,82,96
      26:  00:5DAE  00 0E 1C 2A 38 45 52 60 
      27:  00:5DB6                      
      28:  00:5DB6                      ;;=====================================================
      29:  00:5DB6                      ;;SUBRUTINAS MANEJO DE JEFECABALLERO
      30:  00:5DB6                      ;;=====================================================	
      31:  00:5DB6                      
      32:  00:5DB6                      
      33:  00:5DB6                      ;;=====================================================
      34:  00:5DB6                      ;;ANADE_ENEMIGO_JEFECABALLERO
      35:  00:5DB6                      ;;=====================================================	
      36:  00:5DB6                      ; función: 	mete en memoria la plantilla de datos base del jefecaballero en el enemigo que se le pase por DE
      37:  00:5DB6                      ; entrada:	DE (enemigo en concreto al que poner los datos, por ejemplo, enemigo1)
      38:  00:5DB6                      ; salida: 	-
      39:  00:5DB6                      ; toca:		-
      40:  00:5DB6                      anade_enemigo_jefecaballero:
      41:  00:5DB6  21 9A 5D            		LD			HL, datos_jefecaballero
      42:  00:5DB9  01 14 00            		LD			BC, ESTRUCTURA_ENEMIGO
      43:  00:5DBC  ED B0               		LDIR
      44:  00:5DBE                      fin_anade_enemigo_jefecaballero:
      45:  00:5DBE  C9                  		RET
      46:  00:5DBF                      
      47:  00:5DBF                      
      48:  00:5DBF                      ;;=====================================================
      49:  00:5DBF                      ;;ACTUALIZA_VALORES_JEFECABALLERO
      50:  00:5DBF                      ;;=====================================================	
      51:  00:5DBF                      ; función: 	inicializa valores aleatorios del jefecaballero
      52:  00:5DBF                      ; entrada:	IX que equivaldrá a qué nº de enemigo estamos inicializando (por ejemplo enemigo1)
      53:  00:5DBF                      ; toca:		-
      54:  00:5DBF                      actualiza_valores_jefecaballero:
      55:  00:5DBF                      		;calcula posición y del array 0 a 7
      56:  00:5DBF  ED 5F               		LD			 A, R
      57:  00:5DC1  E6 07               		AND			00000111b
      58:  00:5DC3                      		;calcula la posición y
      59:  00:5DC3  21 AE 5D            		LD			HL, array_jefecaballero_posicionesy
      60:  00:5DC6  CD F2 42            		CALL		suma_A_HL
      61:  00:5DC9  7E                  		LD			 A, (HL)
      62:  00:5DCA  DD 77 05            		LD			(IX + ESTRUCTURA_ENEMIGO.posy), A
      63:  00:5DCD                      		
      64:  00:5DCD                      		;calcula dirección 0-derecha / 1-izquierda
      65:  00:5DCD  ED 5F               		LD			 A, R
      66:  00:5DCF  E6 02               		AND			00000010b
      67:  00:5DD1  DD 77 0A            		LD			(IX + ESTRUCTURA_ENEMIGO.direccionx), A
      68:  00:5DD4  C2 DE 5D            		JP			NZ, .direccion_izquierda
      69:  00:5DD7                      		;empieza en la izquierda
      70:  00:5DD7  DD 36 04 10         		LD			(IX + ESTRUCTURA_ENEMIGO.posx), 16
      71:  00:5DDB  C3 E2 5D            		JP			.fin_direccion
      72:  00:5DDE                      		;direccion_derecha
      73:  00:5DDE                      .direccion_izquierda:
      74:  00:5DDE  DD 36 04 DC         		LD			(IX + ESTRUCTURA_ENEMIGO.posx), 220
      75:  00:5DE2                      .fin_direccion:	
      76:  00:5DE2                      
      77:  00:5DE2                      		;resetea pasos del movimiento
      78:  00:5DE2  DD 36 0C B6         		LD			(IX + ESTRUCTURA_ENEMIGO.pasos), JCABALLERO_PASOS
      79:  00:5DE6                      		
      80:  00:5DE6                      		
      81:  00:5DE6                      ;-------------------------------------		
      82:  00:5DE6                      		;quitar cuando se cree el daño a los jefes
      83:  00:5DE6  DD 36 0D 01         		LD			 (IX + ESTRUCTURA_ENEMIGO.pocavida), 1
      84:  00:5DEA                      
      85:  00:5DEA                      		
      86:  00:5DEA  3A 00 C0            		LD			 A, (prota_nivel)
      87:  00:5DED  CB 4F               		BIT			 1, A
      88:  00:5DEF  C8                  		RET			 Z
      89:  00:5DF0  DD 36 03 40         		LD			 (IX + ESTRUCTURA_ENEMIGO.energia), 64
      90:  00:5DF4                      		
      91:  00:5DF4                      fin_actualiza_valores_jefecaballero:
      92:  00:5DF4  C9                  		RET
      93:  00:5DF5                      
      94:  00:5DF5                      		
      95:  00:5DF5                      ;;=====================================================
      96:  00:5DF5                      ;;MOVER_JEFECABALLERO
      97:  00:5DF5                      ;;=====================================================	
      98:  00:5DF5                      ; función: hace todo lo que haga falta de acciones cada vez que le toca al programa enfocarse en el jefecaballero: su ataque, su sptrite, etc...
      99:  00:5DF5                      ; entrada: IX (enemigo en concreto al que poner los datos, por ejemplo, enemigo1)
     100:  00:5DF5                      ; salida: 	-
     101:  00:5DF5                      ; toca:		-
     102:  00:5DF5                      mover_jefecaballero:
     103:  00:5DF5                      		;CALL		calcula_jefecaballero_incrementoy
     104:  00:5DF5  DD 7E 05            		LD			 A, (IX + ESTRUCTURA_ENEMIGO.posy)
     105:  00:5DF8  FD 77 00            		LD			(IY), A
     106:  00:5DFB  FD 77 08            		LD			(IY + 8), A
     107:  00:5DFE  C6 10               		ADD			16
     108:  00:5E00  FD 77 04            		LD			(IY + 4), A
     109:  00:5E03  FD 77 0C            		LD			(IY + 12), A
     110:  00:5E06                      		
     111:  00:5E06  CD D2 5E            		CALL		calcula_jefecaballero_incrementox
     112:  00:5E09  DD 7E 04            		LD			 A, (IX + ESTRUCTURA_ENEMIGO.posx)
     113:  00:5E0C  FD 77 01            		LD			(IY + 1), A
     114:  00:5E0F  FD 77 05            		LD			(IY + 5), A
     115:  00:5E12  C6 10               		ADD 		16
     116:  00:5E14  FD 77 09            		LD			(IY + 9), A
     117:  00:5E17  FD 77 0D            		LD			(IY + 13), A
     118:  00:5E1A                      		
     119:  00:5E1A  CD 65 5E            		CALL		calcula_jefecaballero_escena		
     120:  00:5E1D  DD 7E 10            		LD			 A, (IX + ESTRUCTURA_ENEMIGO.sprite_a)
     121:  00:5E20  FD 77 02            		LD			(IY + 2), A
     122:  00:5E23  DD 7E 11            		LD			 A, (IX + ESTRUCTURA_ENEMIGO.sprite_b)
     123:  00:5E26  FD 77 06            		LD			(IY + 6), A
     124:  00:5E29  DD 7E 12            		LD			 A, (IX + ESTRUCTURA_ENEMIGO.sprite_c)
     125:  00:5E2C  FD 77 0A            		LD			(IY + 10), A
     126:  00:5E2F  DD 7E 13            		LD			 A, (IX + ESTRUCTURA_ENEMIGO.sprite_d)
     127:  00:5E32  FD 77 0E            		LD			(IY + 14), A
     128:  00:5E35                      		
     129:  00:5E35                      		;colorea jefecaballero
     130:  00:5E35  DD 7E 0D            		LD			 A, (IX + ESTRUCTURA_ENEMIGO.pocavida)
     131:  00:5E38  B7                  		OR			 A
     132:  00:5E39  CA 54 5E            		JP			 Z, .nointercambiacolor
     133:  00:5E3C  DD 7E 01            			LD			 A, (IX + ESTRUCTURA_ENEMIGO.escena)
     134:  00:5E3F  B7                  			OR			 A
     135:  00:5E40  CA 54 5E            			JP			 Z, .nointercambiacolor	
     136:  00:5E43  FD 36 03 08         				LD			(IY + 3),  COLROJO
     137:  00:5E47  FD 36 07 08         				LD			(IY + 7),  COLROJO
     138:  00:5E4B  FD 36 0B 08         				LD			(IY + 11), COLROJO
     139:  00:5E4F  FD 36 0F 08         				LD			(IY + 15), COLROJO
     140:  00:5E53  C9                  				RET
     141:  00:5E54                      .nointercambiacolor:		
     142:  00:5E54  FD 36 03 01         		LD			(IY + 3),  JCABALLERO_COLOR
     143:  00:5E58  FD 36 07 01         		LD			(IY + 7),  JCABALLERO_COLOR
     144:  00:5E5C  FD 36 0B 01         		LD			(IY + 11), JCABALLERO_COLOR
     145:  00:5E60  FD 36 0F 01         		LD			(IY + 15), JCABALLERO_COLOR
     146:  00:5E64                      fin_mover_jefecaballero:
     147:  00:5E64  C9                  		RET
     148:  00:5E65                      
     149:  00:5E65                      
     150:  00:5E65                      ;;=====================================================
     151:  00:5E65                      ;;CALCULA_JEFECABALLERO_ESCENA
     152:  00:5E65                      ;;=====================================================	
     153:  00:5E65                      calcula_jefecaballero_escena:
     154:  00:5E65  3A 54 C0            		LD			 A, (heartbeat_general)
     155:  00:5E68  E6 10               		AND			JCABALLERO_VELESCENA
     156:  00:5E6A  C8                  		RET			 Z   	; IF TENGO QUE CAMBIAR DE ESCENA THEN
     157:  00:5E6B                      			;reseteo el cambio de escena del jefecaballero
     158:  00:5E6B  AF                  			XOR			 A
     159:  00:5E6C  32 54 C0            			LD			(heartbeat_general), A
     160:  00:5E6F                      
     161:  00:5E6F  DD 7E 0A            		LD			 A, (IX + ESTRUCTURA_ENEMIGO.direccionx)
     162:  00:5E72  B7                  		OR			 A
     163:  00:5E73  CA A4 5E            		JP			 Z, .direccion_derecha
     164:  00:5E76                      
     165:  00:5E76                      .direccion_izquierda:
     166:  00:5E76  DD 7E 01            		LD			 A, (IX + ESTRUCTURA_ENEMIGO.escena)
     167:  00:5E79  EE 01               		XOR			00000001b
     168:  00:5E7B  DD 77 01            		LD			(IX + ESTRUCTURA_ENEMIGO.escena), A
     169:  00:5E7E                      			
     170:  00:5E7E  B7                  		OR			 A
     171:  00:5E7F  CA 93 5E            		JP			 Z, .escena_izquierda2
     172:  00:5E82                      .escena_izquierda1:
     173:  00:5E82  DD 36 10 E0         			LD			(IX + ESTRUCTURA_ENEMIGO.sprite_a), JCABALLERO_SPRITE1C
     174:  00:5E86  DD 36 11 E4         			LD			(IX + ESTRUCTURA_ENEMIGO.sprite_b), JCABALLERO_SPRITE2C
     175:  00:5E8A  DD 36 12 E8         			LD			(IX + ESTRUCTURA_ENEMIGO.sprite_c), JCABALLERO_SPRITE3C
     176:  00:5E8E  DD 36 13 EC         			LD			(IX + ESTRUCTURA_ENEMIGO.sprite_d), JCABALLERO_SPRITE4C
     177:  00:5E92  C9                  			RET
     178:  00:5E93                      .escena_izquierda2:
     179:  00:5E93  DD 36 10 F0         			LD			(IX + ESTRUCTURA_ENEMIGO.sprite_a), JCABALLERO_SPRITE1D
     180:  00:5E97  DD 36 11 F4         			LD			(IX + ESTRUCTURA_ENEMIGO.sprite_b), JCABALLERO_SPRITE2D
     181:  00:5E9B  DD 36 12 F8         			LD			(IX + ESTRUCTURA_ENEMIGO.sprite_c), JCABALLERO_SPRITE3D
     182:  00:5E9F  DD 36 13 FC         			LD			(IX + ESTRUCTURA_ENEMIGO.sprite_d), JCABALLERO_SPRITE4D
     183:  00:5EA3  C9                  			RET
     184:  00:5EA4                      
     185:  00:5EA4                      .direccion_derecha:
     186:  00:5EA4  DD 7E 01            		LD			 A, (IX + ESTRUCTURA_ENEMIGO.escena)
     187:  00:5EA7  EE 01               		XOR			00000001b
     188:  00:5EA9  DD 77 01            		LD			(IX + ESTRUCTURA_ENEMIGO.escena), A
     189:  00:5EAC                      			
     190:  00:5EAC  B7                  		OR			 A
     191:  00:5EAD  CA C1 5E            		JP			 Z, .escena_derecha2
     192:  00:5EB0                      .escena_derecha1:
     193:  00:5EB0  DD 36 10 C0         			LD			(IX + ESTRUCTURA_ENEMIGO.sprite_a), JCABALLERO_SPRITE1A
     194:  00:5EB4  DD 36 11 C4         			LD			(IX + ESTRUCTURA_ENEMIGO.sprite_b), JCABALLERO_SPRITE2A
     195:  00:5EB8  DD 36 12 C8         			LD			(IX + ESTRUCTURA_ENEMIGO.sprite_c), JCABALLERO_SPRITE3A
     196:  00:5EBC  DD 36 13 CC         			LD			(IX + ESTRUCTURA_ENEMIGO.sprite_d), JCABALLERO_SPRITE4A
     197:  00:5EC0  C9                  			RET
     198:  00:5EC1                      .escena_derecha2:
     199:  00:5EC1  DD 36 10 D0         			LD			(IX + ESTRUCTURA_ENEMIGO.sprite_a), JCABALLERO_SPRITE1B
     200:  00:5EC5  DD 36 11 D4         			LD			(IX + ESTRUCTURA_ENEMIGO.sprite_b), JCABALLERO_SPRITE2B
     201:  00:5EC9  DD 36 12 D8         			LD			(IX + ESTRUCTURA_ENEMIGO.sprite_c), JCABALLERO_SPRITE3B
     202:  00:5ECD  DD 36 13 DC         			LD			(IX + ESTRUCTURA_ENEMIGO.sprite_d), JCABALLERO_SPRITE4B
     203:  00:5ED1  C9                  			RET
     204:  00:5ED2                      fin_calcula_jefecaballero_escena:
     205:  00:5ED2                      
     206:  00:5ED2                      
     207:  00:5ED2                      ;;=====================================================
     208:  00:5ED2                      ;;CALCULA_JEFECABALLERO_INCREMENTOY
     209:  00:5ED2                      ;;=====================================================	
     210:  00:5ED2                      calcula_jefecaballero_incrementoy:
     211:  00:5ED2                      fin_calcula_jefecaballero_incrementoy:
     212:  00:5ED2                      
     213:  00:5ED2                      
     214:  00:5ED2                      ;;=====================================================
     215:  00:5ED2                      ;;CALCULA_JEFECABALLERO_INCREMENTOX
     216:  00:5ED2                      ;;====================================================	
     217:  00:5ED2                      calcula_jefecaballero_incrementox:
     218:  00:5ED2  DD 7E 0A            			LD			 A, (IX + ESTRUCTURA_ENEMIGO.direccionx)
     219:  00:5ED5  B7                  			OR			 A
     220:  00:5ED6  CA DF 5E            			JP			 Z, .mueve_derecha
     221:  00:5ED9                      .mueve_izquierda:
     222:  00:5ED9  DD 35 04            				DEC			(IX + ESTRUCTURA_ENEMIGO.posx)
     223:  00:5EDC  C3 E2 5E            				JP			.fin_mueve_posx
     224:  00:5EDF                      .mueve_derecha:
     225:  00:5EDF  DD 34 04            				INC			(IX + ESTRUCTURA_ENEMIGO.posx)
     226:  00:5EE2                      .fin_mueve_posx:
     227:  00:5EE2                      
     228:  00:5EE2  DD 35 0C            			DEC			(IX + ESTRUCTURA_ENEMIGO.pasos)
     229:  00:5EE5  C0                  			RET			NZ
     230:  00:5EE6                      			
     231:  00:5EE6                      			;cambio dirección
     232:  00:5EE6  C3 BF 5D            			JP			actualiza_valores_jefecaballero
     233:  00:5EE9                      fin_calcula_jefecaballero_incrementox:
      24.  00:5EE9                      include "subr_enemigo_magia.asm"
       1:  00:5EE9                      ;;=====================================================
       2:  00:5EE9                      ;;CONTANTES MAGIA
       3:  00:5EE9                      ;;=====================================================
       4:  00:5EE9                      datos_magia:
       5:  00:5EE9  0D                  			DB		TIPOMAGIA		;(activo_tipo) si inactivo = 0 si <> 0 es el tipo de enemigo
       6:  00:5EEA  00                  			DB		0		;(escena) sprite a mostrar 1/2
       7:  00:5EEB  10                  			DB		00010000b		;(cont_sig_escena) retardo_explosion ;contador para ver cuando cambiar de sprite (y retardo_explosión irá hasta cero antes de que desaparezca la explosión)
       8:  00:5EEC  0A                  			DB		10		;(energia) energía del enemigo antes de morir
       9:  00:5EED  40                  			DB		MAGIA_POSX		;(posx) pos x para mover y punto central del sprite para revisar disparo
      10:  00:5EEE  37                  			DB		MAGIA_POSY		;(posy) pos y para mover y punto central del sprite para revisar disparo
      11:  00:5EEF  08                  			DB		8		;(radiox) radio x del enemigo para cuando se dispare encima
      12:  00:5EF0  08                  			DB		8		;(radioy) radio y del enemigo para cuando se dispare encima
      13:  00:5EF1  05                  			DB		MAGIA_INCREMENTO;(incx) incremento x para mover
      14:  00:5EF2  00                  			DB		0		;(inxy) incremento y para mover
      15:  00:5EF3  00                  			DB		DIRDERECHA		;(direccionx) 0 derecha <> 0 izquierda // 0 abajo <> 0 arriba
      16:  00:5EF4  00                  			DB		0		;(direcciony) 0 derecha <> 0 izquierda // 0 abajo <> 0 arriba
      17:  00:5EF5  23                  			DB		MAGIA_PASOS		;(pasos) pasos para no comprobar los límites de pentalla, sólo si pasos ha llegado a 0
      18:  00:5EF6  00                  			DB		0		;(radio) radio para movimientos circulares
      19:  00:5EF7  9A 5F               			DW		mover_magia		;(ptr_mover) puntero a subrutina que moverá el enemigo según el tipo de enemigo (se pasa al inicializar)
      20:  00:5EF9  20                  			DB		MAGIA_SPRITE1A	;izq arriba
      21:  00:5EFA  28                  			DB		MAGIA_SPRITE2A	;der_arriba
      22:  00:5EFB  24                  			DB		MAGIA_SPRITE1B	;izq abajo
      23:  00:5EFC  2C                  			DB		MAGIA_SPRITE2B	;der_abajo
      24:  00:5EFD                      
      25:  00:5EFD                      array_magia_derecha_posx:
      26:  00:5EFD                      			DB		64,67,70,72,75,78,80,83,85,88,91,94,96,99,102,104,107,110,112,115,118,120,123,126,128,131,134,136,139,142,144,147,150,152,155,158,160
      26:  00:5EFD  40 43 46 48 4B 4E 50 53 55 58 5B 5E 60 63 66 68 
      26:  00:5F0D  6B 6E 70 73 76 78 7B 7E 80 83 86 88 8B 8E 90 93 
      26:  00:5F1D  96 98 9B 9E A0 
      27:  00:5F22                      
      28:  00:5F22                      array_magia_derecha_posy:
      29:  00:5F22                      			DB		55,40,32,24,18,14,12,10,8,6,4,3,3,2,2,1,0,0,0,0,0,1,2,2,3,3,4,6,8,10,12,14,18,24,32,40,55
      29:  00:5F22  37 28 20 18 12 0E 0C 0A 08 06 04 03 03 02 02 01 
      29:  00:5F32  00 00 00 00 00 01 02 02 03 03 04 06 08 0A 0C 0E 
      29:  00:5F42  12 18 20 28 37 
      30:  00:5F47                      
      31:  00:5F47                      array_magia_izquierda_posx:
      32:  00:5F47                      			DB		160,158,155,152,150,147,144,142,139,136,134,131,128,126,123,120,118,115,112,110,107,104,102,99,96,94,91,88,85,83,80,78,75,72,70,67,64
      32:  00:5F47  A0 9E 9B 98 96 93 90 8E 8B 88 86 83 80 7E 7B 78 
      32:  00:5F57  76 73 70 6E 6B 68 66 63 60 5E 5B 58 55 53 50 4E 
      32:  00:5F67  4B 48 46 43 40 
      33:  00:5F6C                      			
      34:  00:5F6C                      array_magia_izquierda_posy:
      35:  00:5F6C                      			DB		55,71,79,87,90,96,98,100,102,104,106,107,108,109,109,110,110,111,111,111,110,110,109,109,108,107,106,104,102,100,98,96,90,87,79,71,55
      35:  00:5F6C  37 47 4F 57 5A 60 62 64 66 68 6A 6B 6C 6D 6D 6E 
      35:  00:5F7C  6E 6F 6F 6F 6E 6E 6D 6D 6C 6B 6A 68 66 64 62 60 
      35:  00:5F8C  5A 57 4F 47 37 
      36:  00:5F91                      
      37:  00:5F91                      
      38:  00:5F91                      ;;=====================================================
      39:  00:5F91                      ;;SUBRUTINAS MANEJO DE MAGIA
      40:  00:5F91                      ;;=====================================================	
      41:  00:5F91                      
      42:  00:5F91                      
      43:  00:5F91                      ;;=====================================================
      44:  00:5F91                      ;;ANADE_ENEMIGO_MAGIA
      45:  00:5F91                      ;;=====================================================	
      46:  00:5F91                      ; función: 	mete en memoria la plantilla de datos base de la magia en el enemigo que se le pase por DE
      47:  00:5F91                      ; entrada:	DE (enemigo en concreto al que poner los datos, por ejemplo, enemigo1)
      48:  00:5F91                      ; salida: 	-
      49:  00:5F91                      ; toca:		-
      50:  00:5F91                      anade_enemigo_magia:
      51:  00:5F91  21 E9 5E            		LD			HL, datos_magia
      52:  00:5F94  01 14 00            		LD			BC, ESTRUCTURA_ENEMIGO
      53:  00:5F97  ED B0               		LDIR
      54:  00:5F99                      fin_anade_enemigo_magia:
      55:  00:5F99  C9                  		RET
      56:  00:5F9A                      
      57:  00:5F9A                      
      58:  00:5F9A                      ;;=====================================================
      59:  00:5F9A                      ;;ACTUALIZA_VALORES_MAGIA
      60:  00:5F9A                      ;;=====================================================	
      61:  00:5F9A                      ; función: 	inicializa valores aleatorios de la magia
      62:  00:5F9A                      ; entrada:	IX que equivaldrá a qué nº de enemigo estamos inicializando (por ejemplo enemigo1)
      63:  00:5F9A                      ; salida: 	posicion_anterior_arana
      64:  00:5F9A                      ; toca:		-
      65:  00:5F9A                      actualiza_valores_magia:
      66:  00:5F9A                      fin_actualiza_valores_magia:
      67:  00:5F9A                      		
      68:  00:5F9A                      		
      69:  00:5F9A                      ;;=====================================================
      70:  00:5F9A                      ;;MOVER_MAGIA
      71:  00:5F9A                      ;;=====================================================	
      72:  00:5F9A                      ; función: hace todo lo que haga falta de acciones cada vez que le toca al programa enfocarse en la magia: su ataque, su sptrite, etc...
      73:  00:5F9A                      ; entrada: IX (enemigo en concreto al que poner los datos, por ejemplo, enemigo1)
      74:  00:5F9A                      ; salida: 	-
      75:  00:5F9A                      ; toca:		-
      76:  00:5F9A                      mover_magia:
      77:  00:5F9A  DD 35 08            		DEC			(IX + ESTRUCTURA_ENEMIGO.incx)
      78:  00:5F9D  C0                  		RET			NZ
      79:  00:5F9E                      		
      80:  00:5F9E  DD 36 08 05         		LD			(IX + ESTRUCTURA_ENEMIGO.incx), MAGIA_INCREMENTO
      81:  00:5FA2                      		
      82:  00:5FA2  CD F0 5F            		CALL		calcula_magia_incrementoxy
      83:  00:5FA5  DD 7E 05            		LD			 A, (IX + ESTRUCTURA_ENEMIGO.posy)
      84:  00:5FA8  FD 77 00            		LD			(IY), A
      85:  00:5FAB  FD 77 04            		LD			(IY + 4), A
      86:  00:5FAE                      		
      87:  00:5FAE  DD 7E 04            		LD			 A, (IX + ESTRUCTURA_ENEMIGO.posx)
      88:  00:5FB1  FD 77 01            		LD			(IY + 1), A
      89:  00:5FB4  C6 10               		ADD			16
      90:  00:5FB6  FD 77 05            		LD			(IY + 5), A
      91:  00:5FB9                      		
      92:  00:5FB9  CD D0 5F            		CALL		calcula_magia_escena
      93:  00:5FBC  DD 7E 10            		LD			 A, (IX + ESTRUCTURA_ENEMIGO.sprite_a)
      94:  00:5FBF  FD 77 02            		LD			(IY + 2), A
      95:  00:5FC2  C6 04               		ADD			 4
      96:  00:5FC4  FD 77 06            		LD			(IY + 6), A
      97:  00:5FC7                      		
      98:  00:5FC7                      		;colorea magia
      99:  00:5FC7  FD 36 03 01         		LD			(IY + 3), MAGIA_COLOR
     100:  00:5FCB  FD 36 07 01         		LD			(IY + 7), MAGIA_COLOR
     101:  00:5FCF                      fin_mover_magia:
     102:  00:5FCF  C9                  		RET
     103:  00:5FD0                      
     104:  00:5FD0                      
     105:  00:5FD0                      ;;=====================================================
     106:  00:5FD0                      ;;CALCULA_MAGIA_ESCENA
     107:  00:5FD0                      ;;=====================================================	
     108:  00:5FD0                      calcula_magia_escena:
     109:  00:5FD0  3A 53 C0            		LD			 A, (heartbeat_magia)
     110:  00:5FD3  E6 10               		AND			MAGIA_VELESCENA
     111:  00:5FD5  C8                  		RET			 Z   	; IF TENGO QUE CAMBIAR DE ESCENA THEN
     112:  00:5FD6                      			;reseteo el cambio de escena de la magia
     113:  00:5FD6  AF                  			XOR			 A
     114:  00:5FD7  32 53 C0            			LD			(heartbeat_magia), A
     115:  00:5FDA                      			
     116:  00:5FDA                      			;THEN cambia escena
     117:  00:5FDA  DD 7E 01            			LD			 A, (IX + ESTRUCTURA_ENEMIGO.escena)
     118:  00:5FDD  EE 01               			XOR			00000001b
     119:  00:5FDF  DD 77 01            			LD			(IX + ESTRUCTURA_ENEMIGO.escena), A
     120:  00:5FE2                      			
     121:  00:5FE2  B7                  			OR			 A
     122:  00:5FE3  CA EB 5F            			JP			 Z, .escena2
     123:  00:5FE6                      .escena1:
     124:  00:5FE6  DD 36 10 20         				LD			(IX + ESTRUCTURA_ENEMIGO.sprite_a), MAGIA_SPRITE1A
     125:  00:5FEA  C9                  				RET
     126:  00:5FEB                      .escena2:
     127:  00:5FEB  DD 36 10 24         				LD			(IX + ESTRUCTURA_ENEMIGO.sprite_a), MAGIA_SPRITE1B
     128:  00:5FEF  C9                  				RET	
     129:  00:5FF0                      fin_calcula_magia_escena:
     130:  00:5FF0                      		
     131:  00:5FF0                      
     132:  00:5FF0                      ;;=====================================================
     133:  00:5FF0                      ;;CALCULA_MAGIA_INCREMENTOXY
     134:  00:5FF0                      ;;=====================================================	
     135:  00:5FF0                      calcula_magia_incrementoxy:
     136:  00:5FF0  DD CB 0A 46         		BIT			 0, (IX + ESTRUCTURA_ENEMIGO.direccionx)
     137:  00:5FF4  C2 14 60            		JP			NZ, .direccion_izquierda
     138:  00:5FF7                      		
     139:  00:5FF7                      .direccion_derecha:		
     140:  00:5FF7  21 FD 5E            			LD			HL, array_magia_derecha_posx
     141:  00:5FFA  DD 7E 0C            			LD			 A, (IX + ESTRUCTURA_ENEMIGO.pasos)
     142:  00:5FFD  CD F2 42            			CALL		suma_A_HL
     143:  00:6000  7E                  			LD			 A, (HL)
     144:  00:6001  DD 77 04            			LD			(IX + ESTRUCTURA_ENEMIGO.posx), A
     145:  00:6004                      
     146:  00:6004  21 22 5F            			LD			HL, array_magia_derecha_posy
     147:  00:6007  DD 7E 0C            			LD			 A, (IX + ESTRUCTURA_ENEMIGO.pasos)
     148:  00:600A  CD F2 42            			CALL		suma_A_HL
     149:  00:600D  7E                  			LD			 A, (HL)
     150:  00:600E  DD 77 05            			LD			(IX + ESTRUCTURA_ENEMIGO.posy), A
     151:  00:6011                      
     152:  00:6011  C3 2E 60            			JP			.fin_direccion
     153:  00:6014                      .direccion_izquierda:
     154:  00:6014  21 47 5F            			LD			HL, array_magia_izquierda_posx
     155:  00:6017  DD 7E 0C            			LD			 A, (IX + ESTRUCTURA_ENEMIGO.pasos)
     156:  00:601A  CD F2 42            			CALL		suma_A_HL
     157:  00:601D  7E                  			LD			 A, (HL)
     158:  00:601E  DD 77 04            			LD			(IX + ESTRUCTURA_ENEMIGO.posx), A
     159:  00:6021                      
     160:  00:6021  21 6C 5F            			LD			HL, array_magia_izquierda_posy
     161:  00:6024  DD 7E 0C            			LD			 A, (IX + ESTRUCTURA_ENEMIGO.pasos)
     162:  00:6027  CD F2 42            			CALL		suma_A_HL
     163:  00:602A  7E                  			LD			 A, (HL)
     164:  00:602B  DD 77 05            			LD			(IX + ESTRUCTURA_ENEMIGO.posy), A
     165:  00:602E                      
     166:  00:602E                      .fin_direccion:
     167:  00:602E  DD 35 0C            		DEC			(IX + ESTRUCTURA_ENEMIGO.pasos)
     168:  00:6031  C0                  		RET			NZ
     169:  00:6032                      			;implica que se han terminado los pasos y hay que cambiar de sentido
     170:  00:6032  DD 7E 0A            			LD			 A, (IX + ESTRUCTURA_ENEMIGO.direccionx)
     171:  00:6035  EE 01               			XOR			00000001b
     172:  00:6037  DD 77 0A            			LD			(IX + ESTRUCTURA_ENEMIGO.direccionx), A
     173:  00:603A  DD 36 0C 23         			LD			(IX + ESTRUCTURA_ENEMIGO.pasos), MAGIA_PASOS
     174:  00:603E                      fin_calcula_magia_incrementoxy:
     175:  00:603E  C9                  		RET
      25.  00:603F                      include "subr_enemigo_jefebeholder.asm"
       1:  00:603F                      ;;=====================================================
       2:  00:603F                      ;;CONTANTES JEFEBEHOLDER
       3:  00:603F                      ;;=====================================================
       4:  00:603F                      datos_jefebeholder:
       5:  00:603F  13                  			DB		TIPOJEFEBEHOLDER	;(activo_tipo) si inactivo = 0 si <> 0 es el tipo de enemigo
       6:  00:6040  00                  			DB		0		;(escena) sprite a mostrar 1/2
       7:  00:6041  10                  			DB		00010000b		;(cont_sig_escena) retardo_explosion ;contador para ver cuando cambiar de sprite (y retardo_explosión irá hasta cero antes de que desaparezca la explosión)
       8:  00:6042  80                  			DB		128		;(energia) energía del enemigo antes de morir
       9:  00:6043  40                  			DB		JEFEBEHOLDER_POSX	;(posx) pos x para mover y punto central del sprite para revisar disparo
      10:  00:6044  37                  			DB		JEFEBEHOLDER_POSY	;(posy) pos y para mover y punto central del sprite para revisar disparo
      11:  00:6045  08                  			DB		8		;(radiox) radio x del enemigo para cuando se dispare encima
      12:  00:6046  08                  			DB		8		;(radioy) radio y del enemigo para cuando se dispare encima
      13:  00:6047  03                  			DB		JEFEBEHOLDER_INCREMENTO	;(incx) incremento x para mover
      14:  00:6048  00                  			DB		0		;(inxy) incremento y para mover
      15:  00:6049  00                  			DB		DIRDERECHA		;(direccionx) 0 derecha <> 0 izquierda // 0 abajo <> 0 arriba
      16:  00:604A  00                  			DB		0		;(direcciony) 0 derecha <> 0 izquierda // 0 abajo <> 0 arriba
      17:  00:604B  37                  			DB		JEFEBEHOLDER_PASOS	;(pasos) pasos para no comprobar los límites de pentalla, sólo si pasos ha llegado a 0
      18:  00:604C  00                  			DB		0		;pocavida 0 y 1 para indicar cuando le queda poca vida al enemigo
      19:  00:604D  45 61               			DW		mover_jefebeholder		;(ptr_mover) puntero a subrutina que moverá el enemigo según el tipo de enemigo (se pasa al inicializar)
      20:  00:604F  E0                  			DB		JEFEBEHOLDER_SPRITE1A	;izq arriba
      21:  00:6050  E4                  			DB		JEFEBEHOLDER_SPRITE2A	;der_arriba
      22:  00:6051  F0                  			DB		JEFEBEHOLDER_SPRITE1B	;izq abajo
      23:  00:6052  F4                  			DB		JEFEBEHOLDER_SPRITE2B	;der_abajo
      24:  00:6053                      
      25:  00:6053                      array_jefebeholder_derecha_posx:
      26:  00:6053                      			DB		0,4,8,12,16,20,24,28,32,36,40,44,48,52,56,60,64,68,72,76,80,84,88,92,96,100,104,108,112,116,120,124,128,132,136,140,144,148,152,156,160,164,168,172,176,180,184,188,192,196,200,204,208,212,216,220
      26:  00:6053  00 04 08 0C 10 14 18 1C 20 24 28 2C 30 34 38 3C 
      26:  00:6063  40 44 48 4C 50 54 58 5C 60 64 68 6C 70 74 78 7C 
      26:  00:6073  80 84 88 8C 90 94 98 9C A0 A4 A8 AC B0 B4 B8 BC 
      26:  00:6083  C0 C4 C8 CC D0 D4 D8 DC 
      27:  00:608B                      			
      28:  00:608B                      array_jefebeholder_derecha_posy:
      29:  00:608B                      			DB		48,40,30,26,24,21,19,17,14,13,12,11,10,9,8,7,6,5,4,4,3,3,2,2,1,1,0,0,0,0,1,1,2,2,3,3,4,4,5,6,7,8,9,10,11,12,13,14,17,19,21,24,26,30,40,48
      29:  00:608B  30 28 1E 1A 18 15 13 11 0E 0D 0C 0B 0A 09 08 07 
      29:  00:609B  06 05 04 04 03 03 02 02 01 01 00 00 00 00 01 01 
      29:  00:60AB  02 02 03 03 04 04 05 06 07 08 09 0A 0B 0C 0D 0E 
      29:  00:60BB  11 13 15 18 1A 1E 28 30 
      30:  00:60C3                      
      31:  00:60C3                      array_jefebeholder_izquierda_posx:
      32:  00:60C3                      			DB		220,216,212,208,204,200,196,192,188,184,180,176,172,168,164,160,156,152,148,144,140,136,132,128,124,120,116,112,108,104,100,96,92,88,84,80,76,72,68,64,60,56,52,48,44,40,36,32,28,24,20,16,12,8,4,0
      32:  00:60C3  DC D8 D4 D0 CC C8 C4 C0 BC B8 B4 B0 AC A8 A4 A0 
      32:  00:60D3  9C 98 94 90 8C 88 84 80 7C 78 74 70 6C 68 64 60 
      32:  00:60E3  5C 58 54 50 4C 48 44 40 3C 38 34 30 2C 28 24 20 
      32:  00:60F3  1C 18 14 10 0C 08 04 00 
      33:  00:60FB                      			
      34:  00:60FB                      array_jefebeholder_izquierda_posy:
      35:  00:60FB                      			DB		48,56,66,70,72,75,77,79,82,83,84,85,86,87,88,89,90,91,92,92,93,93,94,94,95,95,96,96,96,96,95,95,94,94,93,93,92,92,91,90,89,88,87,86,85,84,83,82,79,77,75,72,70,66,56,48
      35:  00:60FB  30 38 42 46 48 4B 4D 4F 52 53 54 55 56 57 58 59 
      35:  00:610B  5A 5B 5C 5C 5D 5D 5E 5E 5F 5F 60 60 60 60 5F 5F 
      35:  00:611B  5E 5E 5D 5D 5C 5C 5B 5A 59 58 57 56 55 54 53 52 
      35:  00:612B  4F 4D 4B 48 46 42 38 30 
      36:  00:6133                      
      37:  00:6133                      
      38:  00:6133                      ;;=====================================================
      39:  00:6133                      ;;SUBRUTINAS MANEJO DE JEFEBEHOLDER
      40:  00:6133                      ;;=====================================================	
      41:  00:6133                      
      42:  00:6133                      
      43:  00:6133                      ;;=====================================================
      44:  00:6133                      ;;ANADE_ENEMIGO_JEFEBEHOLDER
      45:  00:6133                      ;;=====================================================	
      46:  00:6133                      ; función: 	mete en memoria la plantilla de datos base de la jefebeholder en el enemigo que se le pase por DE
      47:  00:6133                      ; entrada:	DE (enemigo en concreto al que poner los datos, por ejemplo, enemigo1)
      48:  00:6133                      ; salida: 	-
      49:  00:6133                      ; toca:		-
      50:  00:6133                      anade_enemigo_jefebeholder:
      51:  00:6133  21 3F 60            		LD			HL, datos_jefebeholder
      52:  00:6136  01 14 00            		LD			BC, ESTRUCTURA_ENEMIGO
      53:  00:6139  ED B0               		LDIR
      54:  00:613B                      fin_anade_enemigo_jefebeholder:
      55:  00:613B  C9                  		RET
      56:  00:613C                      
      57:  00:613C                      
      58:  00:613C                      ;;=====================================================
      59:  00:613C                      ;;ACTUALIZA_VALORES_JEFEBEHOLDER
      60:  00:613C                      ;;=====================================================	
      61:  00:613C                      ; función: 	inicializa valores aleatorios del jefebeholder
      62:  00:613C                      ; entrada:	IX que equivaldrá a qué nº de enemigo estamos inicializando (por ejemplo enemigo1)
      63:  00:613C                      ; salida: 	posicion_anterior_arana
      64:  00:613C                      ; toca:		-
      65:  00:613C                      actualiza_valores_jefebeholder_BR:
      66:  00:613C  DD 36 03 40         		LD			(IX + ESTRUCTURA_ENEMIGO.energia), 64
      67:  00:6140                      		
      68:  00:6140                      		;quitar cuando se cree el daño a los jefes
      69:  00:6140  DD 36 0D 01         		LD			 (IX + ESTRUCTURA_ENEMIGO.pocavida), 1
      70:  00:6144                      fin_actualiza_valores_jefebeholder_BR:
      71:  00:6144  C9                  		RET
      72:  00:6145                      		
      73:  00:6145                      		
      74:  00:6145                      ;;=====================================================
      75:  00:6145                      ;;MOVER_JEFEBEHOLDER
      76:  00:6145                      ;;=====================================================	
      77:  00:6145                      ; función: hace todo lo que haga falta de acciones cada vez que le toca al programa enfocarse en el jefebeholder: su ataque, su sptrite, etc...
      78:  00:6145                      ; entrada: IX (enemigo en concreto al que poner los datos, por ejemplo, enemigo1)
      79:  00:6145                      ; salida: 	-
      80:  00:6145                      ; toca:		-
      81:  00:6145                      mover_jefebeholder:
      82:  00:6145  DD 35 08            		DEC			(IX + ESTRUCTURA_ENEMIGO.incx)
      83:  00:6148  C0                  		RET			NZ
      84:  00:6149                      		
      85:  00:6149  DD 36 08 03         		LD			(IX + ESTRUCTURA_ENEMIGO.incx), JEFEBEHOLDER_INCREMENTO
      86:  00:614D                      		
      87:  00:614D  CD F6 61            		CALL		calcula_jefebeholder_incrementoxy
      88:  00:6150  DD 7E 05            		LD			 A, (IX + ESTRUCTURA_ENEMIGO.posy)
      89:  00:6153  FD 77 00            		LD			(IY), A
      90:  00:6156  FD 77 08            		LD			(IY + 8), A
      91:  00:6159  C6 10               		ADD			16
      92:  00:615B  FD 77 04            		LD			(IY + 4), A
      93:  00:615E  FD 77 0C            		LD			(IY + 12), A
      94:  00:6161                      		
      95:  00:6161  DD 7E 04            		LD			 A, (IX + ESTRUCTURA_ENEMIGO.posx)
      96:  00:6164  FD 77 01            		LD			(IY + 1), A
      97:  00:6167  FD 77 05            		LD			(IY + 5), A
      98:  00:616A  C6 10               		ADD 		16
      99:  00:616C  FD 77 09            		LD			(IY + 9), A
     100:  00:616F  FD 77 0D            		LD			(IY + 13), A
     101:  00:6172                      		
     102:  00:6172  CD BD 61            		CALL		calcula_jefebeholder_escena
     103:  00:6175  DD 7E 10            		LD			 A, (IX + ESTRUCTURA_ENEMIGO.sprite_a)
     104:  00:6178  FD 77 02            		LD			(IY + 2), A
     105:  00:617B  DD 7E 11            		LD			 A, (IX + ESTRUCTURA_ENEMIGO.sprite_b)
     106:  00:617E  FD 77 06            		LD			(IY + 6), A
     107:  00:6181  DD 7E 12            		LD			 A, (IX + ESTRUCTURA_ENEMIGO.sprite_c)
     108:  00:6184  FD 77 0A            		LD			(IY + 10), A
     109:  00:6187  DD 7E 13            		LD			 A, (IX + ESTRUCTURA_ENEMIGO.sprite_d)
     110:  00:618A  FD 77 0E            		LD			(IY + 14), A
     111:  00:618D                      		
     112:  00:618D                      		;colorea jefebeholder
     113:  00:618D  DD 7E 0D            		LD			 A, (IX + ESTRUCTURA_ENEMIGO.pocavida)
     114:  00:6190  B7                  		OR			 A
     115:  00:6191  CA AC 61            		JP			 Z, .nointercambiacolor
     116:  00:6194  DD 7E 01            			LD			 A, (IX + ESTRUCTURA_ENEMIGO.escena)
     117:  00:6197  B7                  			OR			 A
     118:  00:6198  CA AC 61            			JP			 Z, .nointercambiacolor	
     119:  00:619B  FD 36 03 08         				LD			(IY + 3),  COLROJO
     120:  00:619F  FD 36 07 08         				LD			(IY + 7),  COLROJO
     121:  00:61A3  FD 36 0B 08         				LD			(IY + 11), COLROJO
     122:  00:61A7  FD 36 0F 08         				LD			(IY + 15), COLROJO
     123:  00:61AB  C9                  				RET
     124:  00:61AC                      .nointercambiacolor:	
     125:  00:61AC  FD 36 03 01         		LD			(IY + 3), JEFEBEHOLDER_COLOR
     126:  00:61B0  FD 36 07 01         		LD			(IY + 7), JEFEBEHOLDER_COLOR
     127:  00:61B4  FD 36 0B 01         		LD			(IY + 11),JEFEBEHOLDER_COLOR
     128:  00:61B8  FD 36 0F 01         		LD			(IY + 15),JEFEBEHOLDER_COLOR
     129:  00:61BC                      fin_mover_jefebeholder:
     130:  00:61BC  C9                  		RET
     131:  00:61BD                      
     132:  00:61BD                      
     133:  00:61BD                      ;;=====================================================
     134:  00:61BD                      ;;CALCULA_JEFEBEHOLDER_ESCENA
     135:  00:61BD                      ;;=====================================================	
     136:  00:61BD                      calcula_jefebeholder_escena:
     137:  00:61BD  3A 54 C0            		LD			 A, (heartbeat_general)
     138:  00:61C0  E6 10               		AND			JEFEBEHOLDER_VELESCENA
     139:  00:61C2  C8                  		RET			 Z   	; IF TENGO QUE CAMBIAR DE ESCENA THEN
     140:  00:61C3                      			;reseteo el cambio de escena del jefebeholder
     141:  00:61C3  AF                  			XOR			 A
     142:  00:61C4  32 54 C0            			LD			(heartbeat_general), A
     143:  00:61C7                      			
     144:  00:61C7                      			;THEN cambia escena
     145:  00:61C7  DD 7E 01            			LD			 A, (IX + ESTRUCTURA_ENEMIGO.escena)
     146:  00:61CA  EE 01               			XOR			00000001b
     147:  00:61CC  DD 77 01            			LD			(IX + ESTRUCTURA_ENEMIGO.escena), A
     148:  00:61CF                      			
     149:  00:61CF  B7                  			OR			 A
     150:  00:61D0  CA E4 61            			JP			 Z, .escena2
     151:  00:61D3                      .escena1:
     152:  00:61D3  DD 36 10 E0         				LD			(IX + ESTRUCTURA_ENEMIGO.sprite_a), JEFEBEHOLDER_SPRITE1A
     153:  00:61D7  DD 36 10 E4         				LD			(IX + ESTRUCTURA_ENEMIGO.sprite_a), JEFEBEHOLDER_SPRITE2A
     154:  00:61DB  DD 36 10 E8         				LD			(IX + ESTRUCTURA_ENEMIGO.sprite_a), JEFEBEHOLDER_SPRITE3A
     155:  00:61DF  DD 36 10 EC         				LD			(IX + ESTRUCTURA_ENEMIGO.sprite_a), JEFEBEHOLDER_SPRITE4A
     156:  00:61E3  C9                  				RET
     157:  00:61E4                      .escena2:
     158:  00:61E4  DD 36 10 F0         				LD			(IX + ESTRUCTURA_ENEMIGO.sprite_a), JEFEBEHOLDER_SPRITE1B
     159:  00:61E8  DD 36 10 F4         				LD			(IX + ESTRUCTURA_ENEMIGO.sprite_a), JEFEBEHOLDER_SPRITE2B
     160:  00:61EC  DD 36 10 F8         				LD			(IX + ESTRUCTURA_ENEMIGO.sprite_a), JEFEBEHOLDER_SPRITE3B
     161:  00:61F0  DD 36 10 FC         				LD			(IX + ESTRUCTURA_ENEMIGO.sprite_a), JEFEBEHOLDER_SPRITE4B
     162:  00:61F4  C9                  				RET	
     163:  00:61F5                      fin_calcula_jefebeholder_escena:
     164:  00:61F5  C9                  		RET
     165:  00:61F6                      		
     166:  00:61F6                      
     167:  00:61F6                      ;;=====================================================
     168:  00:61F6                      ;;CALCULA_JEFEBEHOLDER_INCREMENTOXY
     169:  00:61F6                      ;;=====================================================	
     170:  00:61F6                      calcula_jefebeholder_incrementoxy:
     171:  00:61F6  DD CB 0A 46         		BIT			 0, (IX + ESTRUCTURA_ENEMIGO.direccionx)	
     172:  00:61FA  C2 1A 62            		JP			NZ, .direccion_izquierda	
     173:  00:61FD                      		
     174:  00:61FD                      .direccion_derecha:		
     175:  00:61FD  21 53 60            			LD			HL, array_jefebeholder_derecha_posx
     176:  00:6200  DD 7E 0C            			LD			 A, (IX + ESTRUCTURA_ENEMIGO.pasos)
     177:  00:6203  CD F2 42            			CALL		suma_A_HL
     178:  00:6206  7E                  			LD			 A, (HL)
     179:  00:6207  DD 77 04            			LD			(IX + ESTRUCTURA_ENEMIGO.posx), A
     180:  00:620A                      
     181:  00:620A  21 8B 60            			LD			HL, array_jefebeholder_derecha_posy
     182:  00:620D  DD 7E 0C            			LD			 A, (IX + ESTRUCTURA_ENEMIGO.pasos)
     183:  00:6210  CD F2 42            			CALL		suma_A_HL
     184:  00:6213  7E                  			LD			 A, (HL)
     185:  00:6214  DD 77 05            			LD			(IX + ESTRUCTURA_ENEMIGO.posy), A
     186:  00:6217                      
     187:  00:6217  C3 34 62            			JP			.fin_direccion
     188:  00:621A                      .direccion_izquierda:
     189:  00:621A  21 C3 60            			LD			HL, array_jefebeholder_izquierda_posx
     190:  00:621D  DD 7E 0C            			LD			 A, (IX + ESTRUCTURA_ENEMIGO.pasos)
     191:  00:6220  CD F2 42            			CALL		suma_A_HL
     192:  00:6223  7E                  			LD			 A, (HL)
     193:  00:6224  DD 77 04            			LD			(IX + ESTRUCTURA_ENEMIGO.posx), A
     194:  00:6227                      
     195:  00:6227  21 FB 60            			LD			HL, array_jefebeholder_izquierda_posy
     196:  00:622A  DD 7E 0C            			LD			 A, (IX + ESTRUCTURA_ENEMIGO.pasos)
     197:  00:622D  CD F2 42            			CALL		suma_A_HL
     198:  00:6230  7E                  			LD			 A, (HL)
     199:  00:6231  DD 77 05            			LD			(IX + ESTRUCTURA_ENEMIGO.posy), A
     200:  00:6234                      
     201:  00:6234                      .fin_direccion:
     202:  00:6234  DD 35 0C            		DEC			(IX + ESTRUCTURA_ENEMIGO.pasos)
     203:  00:6237                      		
     204:  00:6237  C0                  		RET			NZ
     205:  00:6238                      		
     206:  00:6238  DD 36 0C 37         			LD			(IX + ESTRUCTURA_ENEMIGO.pasos), JEFEBEHOLDER_PASOS
     207:  00:623C                      			
     208:  00:623C                      			;para darle un poco de aleatoriedad al movimiento puede que continue la elipse o la reinicie
     209:  00:623C  ED 5F               			LD			 A, R
     210:  00:623E  CB 47               			BIT			 0, A
     211:  00:6240  C0                  			RET			NZ
     212:  00:6241                      			
     213:  00:6241                      			;implica que se han terminado los pasos y hay que cambiar de sentido
     214:  00:6241  DD 7E 0A            			LD			 A, (IX + ESTRUCTURA_ENEMIGO.direccionx)
     215:  00:6244  EE 01               			XOR			00000001b
     216:  00:6246  DD 77 0A            			LD			(IX + ESTRUCTURA_ENEMIGO.direccionx), A
     217:  00:6249                      fin_calcula_jefebeholder_incrementoxy:
     218:  00:6249  C9                  		RET
      26.  00:624A                      include "subr_enemigo_dracula.asm"
       1:  00:624A                      ;;=====================================================
       2:  00:624A                      ;;COSNTANTES DRACULA
       3:  00:624A                      ;;=====================================================		
       4:  00:624A                      datos_dracula:
       5:  00:624A  16                  			DB		TIPODRACULA	;(activo_tipo) si inactivo = 0 si <> 0 es el tipo de enemigo
       6:  00:624B  00                  			DB		0		;(escena) sprite a mostrar 1/2
       7:  00:624C  10                  			DB		00010000b		;(cont_sig_escena) retardo_explosion ;contador para ver cuando cambiar de sprite (y retardo_explosión irá hasta cero antes de que desaparezca la explosión)
       8:  00:624D  80                  			DB		128		;(energia) energía del enemigo antes de morir
       9:  00:624E  5F                  			DB		DRACULA_X2		;(posx) pos x para mover y punto central del sprite para revisar disparo
      10:  00:624F  40                  			DB		DRACULA_Y		;(posy) pos y para mover y punto central del sprite para revisar disparo
      11:  00:6250  08                  			DB		8		;(radiox) radio x del enemigo para cuando se dispare encima
      12:  00:6251  08                  			DB		8		;(radioy) radio y del enemigo para cuando se dispare encima
      13:  00:6252  00                  			DB		0		;(incx) incremento x para mover
      14:  00:6253  00                  			DB		0		;(inxy) incremento y para mover
      15:  00:6254  01                  			DB		DIRIZQUIERDA	;(direccionx) 0 derecha <> 0 izquierda // 0 abajo <> 0 arriba
      16:  00:6255  00                  			DB		0		;(direcciony) 0 derecha <> 0 izquierda // 0 abajo <> 0 arriba
      17:  00:6256  64                  			DB		DRACULA_PASOS	;(pasos) pasos para no comprobar los límites de pentalla, sólo si pasos ha llegado a 0
      18:  00:6257  01                  			DB		1		;pocavida 0 y 1 para indicar cuando le queda poca vida al enemigo
      19:  00:6258  67 62               			DW		mover_dracula	;(ptr_mover) puntero a subrutina que moverá el enemigo según el tipo de enemigo (se pasa al inicializar)
      20:  00:625A  F0                  			DB		DRACULA_SPRITE1A	;izq arriba
      21:  00:625B  F4                  			DB		DRACULA_SPRITE1B	;der_arriba
      22:  00:625C  F8                  			DB		DRACULA_SPRITE2A	;izq abajo
      23:  00:625D  FC                  			DB		DRACULA_SPRITE2B	;der_abajo
      24:  00:625E                      
      25:  00:625E                      
      26:  00:625E                      ;;=====================================================
      27:  00:625E                      ;;SUBRUTINAS MANEJO DE DRACULA
      28:  00:625E                      ;;=====================================================	
      29:  00:625E                      
      30:  00:625E                      
      31:  00:625E                      ;;=====================================================
      32:  00:625E                      ;;ANADE_ENEMIGO_DRACULA
      33:  00:625E                      ;;=====================================================	
      34:  00:625E                      ; función: 	mete en memoria la plantilla de datos base del dracula en el enemigo que se le pase por DE
      35:  00:625E                      ; entrada:	DE (enemigo en concreto al que poner los datos, por ejemplo, enemigo1)
      36:  00:625E                      ; salida: 	-
      37:  00:625E                      ; toca:		-
      38:  00:625E                      anade_enemigo_dracula:
      39:  00:625E  21 4A 62            		LD			HL, datos_dracula
      40:  00:6261  01 14 00            		LD			BC, ESTRUCTURA_ENEMIGO
      41:  00:6264  ED B0               		LDIR
      42:  00:6266                      fin_anade_enemigo_dracula:
      43:  00:6266  C9                  		RET
      44:  00:6267                      
      45:  00:6267                      
      46:  00:6267                      ;;=====================================================
      47:  00:6267                      ;;ACTUALIZA_VALORES_DRACULA
      48:  00:6267                      ;;=====================================================	
      49:  00:6267                      ; función: 	inicializa valores aleatorios del dracula
      50:  00:6267                      ; entrada:	IX que equivaldrá a qué nº de enemigo estamos inicializando (por ejemplo enemigo1)
      51:  00:6267                      ; toca:		-
      52:  00:6267                      actualiza_valores_dracula:
      53:  00:6267                      fin_actualiza_valores_dracula:
      54:  00:6267                      
      55:  00:6267                      		
      56:  00:6267                      ;;=====================================================
      57:  00:6267                      ;;MOVER_DRACULA
      58:  00:6267                      ;;=====================================================	
      59:  00:6267                      ; función: hace todo lo que haga falta de acciones cada vez que le toca al programa enfocarse en el dracula: su ataque, su sptrite, etc...
      60:  00:6267                      ; entrada: IX (enemigo en concreto al que poner los datos, por ejemplo, enemigo1)
      61:  00:6267                      ; salida: 	-
      62:  00:6267                      ; toca:		-
      63:  00:6267                      mover_dracula:
      64:  00:6267  CD D3 62            		CALL		calcula_dracula_incrementoxy
      65:  00:626A  DD 7E 05            		LD			 A, (IX + ESTRUCTURA_ENEMIGO.posy)
      66:  00:626D  FD 77 00            		LD			(IY), A
      67:  00:6270  C6 10               		ADD			16
      68:  00:6272  FD 77 04            		LD			(IY + 4), A
      69:  00:6275                      		
      70:  00:6275  DD 7E 04            		LD			 A, (IX + ESTRUCTURA_ENEMIGO.posx)
      71:  00:6278  FD 77 01            		LD			(IY + 1), A
      72:  00:627B  FD 77 05            		LD			(IY + 5), A
      73:  00:627E                      		
      74:  00:627E  CD AC 62            		CALL		calcula_dracula_escena		
      75:  00:6281  DD 7E 10            		LD			 A, (IX + ESTRUCTURA_ENEMIGO.sprite_a)
      76:  00:6284  FD 77 02            		LD			(IY + 2), A
      77:  00:6287  C6 04               		ADD			 4
      78:  00:6289  FD 77 06            		LD			(IY + 6), A
      79:  00:628C                      		
      80:  00:628C                      		;colorea dracula
      81:  00:628C  DD 7E 0D            		LD			 A, (IX + ESTRUCTURA_ENEMIGO.pocavida)
      82:  00:628F  B7                  		OR			 A
      83:  00:6290  CA A3 62            		JP			 Z, .nointercambiacolor
      84:  00:6293  DD 7E 01            			LD			 A, (IX + ESTRUCTURA_ENEMIGO.escena)
      85:  00:6296  B7                  			OR			 A
      86:  00:6297  CA A3 62            			JP			 Z, .nointercambiacolor	
      87:  00:629A  FD 36 03 08         				LD			(IY + 3),  COLROJO
      88:  00:629E  FD 36 07 08         				LD			(IY + 7),  COLROJO
      89:  00:62A2  C9                  				RET
      90:  00:62A3                      .nointercambiacolor:
      91:  00:62A3  FD 36 03 01         		LD			(IY + 3), DRACULA_COLOR
      92:  00:62A7  FD 36 07 01         		LD			(IY + 7), DRACULA_COLOR
      93:  00:62AB                      fin_mover_dracula:
      94:  00:62AB  C9                  		RET
      95:  00:62AC                      
      96:  00:62AC                      
      97:  00:62AC                      ;;=====================================================
      98:  00:62AC                      ;;CALCULA_DRACULA_ESCENA
      99:  00:62AC                      ;;=====================================================	
     100:  00:62AC                      calcula_dracula_escena:
     101:  00:62AC  3A 54 C0            		LD			 A, (heartbeat_general)
     102:  00:62AF  E6 10               		AND			DRACULA_VELESCENA
     103:  00:62B1  C8                  		RET			 Z   	; IF TENGO QUE CAMBIAR DE ESCENA THEN
     104:  00:62B2                      			;reseteo el cambio de escena de dracula
     105:  00:62B2  AF                  			XOR			 A
     106:  00:62B3  32 54 C0            			LD			(heartbeat_general), A
     107:  00:62B6                      			
     108:  00:62B6                      			; cambio de escena
     109:  00:62B6  DD 7E 01            			LD			 A, (IX + ESTRUCTURA_ENEMIGO.escena)
     110:  00:62B9  EE 01               			XOR			00000001b
     111:  00:62BB  DD 77 01            			LD			(IX + ESTRUCTURA_ENEMIGO.escena), A
     112:  00:62BE                      			
     113:  00:62BE  CA CA 62            			JP			 Z, .enemigo1_poner_escena2			; IF ESCENA 1 THEN
     114:  00:62C1  DD 36 10 F0         				LD			(IX + ESTRUCTURA_ENEMIGO.sprite_a), DRACULA_SPRITE1A
     115:  00:62C5  DD 36 11 F4         				LD			(IX + ESTRUCTURA_ENEMIGO.sprite_b), DRACULA_SPRITE1B
     116:  00:62C9  C9                  				RET
     117:  00:62CA                      .enemigo1_poner_escena2:									; ELSE
     118:  00:62CA  DD 36 10 F8         				LD			(IX + ESTRUCTURA_ENEMIGO.sprite_a), DRACULA_SPRITE2A
     119:  00:62CE  DD 36 11 FC         				LD			(IX + ESTRUCTURA_ENEMIGO.sprite_b), DRACULA_SPRITE2B
     120:  00:62D2  C9                  				RET
     121:  00:62D3                      fin_calcula_dracula_escena:
     122:  00:62D3                      
     123:  00:62D3                      
     124:  00:62D3                      ;;=====================================================
     125:  00:62D3                      ;;CALCULA_DRACULA_INCREMENTOXY
     126:  00:62D3                      ;;=====================================================	
     127:  00:62D3                      calcula_dracula_incrementoxy:
     128:  00:62D3  DD 35 0C            		DEC			(IX + ESTRUCTURA_ENEMIGO.pasos)
     129:  00:62D6  C0                  		RET			NZ
     130:  00:62D7                      		
     131:  00:62D7  DD 36 0C 64         		LD			(IX + ESTRUCTURA_ENEMIGO.pasos), DRACULA_PASOS
     132:  00:62DB  ED 5F               		LD			 A, R
     133:  00:62DD                      .mira_posicion0:
     134:  00:62DD  CB 47               		BIT			 0, A
     135:  00:62DF  28 09               		JR			 Z, .mira_posicion1
     136:  00:62E1  DD 36 05 40         		LD			(IX + ESTRUCTURA_ENEMIGO.posy), DRACULA_Y
     137:  00:62E5  DD 36 04 5F         		LD			(IX + ESTRUCTURA_ENEMIGO.posx), DRACULA_X2
     138:  00:62E9  C9                  		RET
     139:  00:62EA                      		
     140:  00:62EA                      .mira_posicion1:
     141:  00:62EA  CB 4F               		BIT			 1, A
     142:  00:62EC  28 09               		JR			 Z, .mira_posicion2
     143:  00:62EE  DD 36 05 40         		LD			(IX + ESTRUCTURA_ENEMIGO.posy), DRACULA_Y
     144:  00:62F2  DD 36 04 8F         		LD			(IX + ESTRUCTURA_ENEMIGO.posx), DRACULA_X3
     145:  00:62F6  C9                  		RET
     146:  00:62F7                      		
     147:  00:62F7                      .mira_posicion2:
     148:  00:62F7  CB 57               		BIT			 2, A
     149:  00:62F9  28 09               		JR			 Z, .mira_posicion3
     150:  00:62FB  DD 36 05 40         		LD			(IX + ESTRUCTURA_ENEMIGO.posy), DRACULA_Y
     151:  00:62FF  DD 36 04 2F         		LD			(IX + ESTRUCTURA_ENEMIGO.posx), DRACULA_X1
     152:  00:6303  C9                  		RET
     153:  00:6304                      		
     154:  00:6304                      .mira_posicion3:
     155:  00:6304  DD 36 05 40         		LD			(IX + ESTRUCTURA_ENEMIGO.posy), DRACULA_Y
     156:  00:6308  DD 36 04 BF         		LD			(IX + ESTRUCTURA_ENEMIGO.posx), DRACULA_X4
     157:  00:630C  C9                  		RET
     158:  00:630D                      fin_calcula_dracula_incrementoxy:
     159:  00:630D                      
      27.  00:630D                      include "subr_enemigo_manod.asm"
       1:  00:630D                      ;;=====================================================
       2:  00:630D                      ;;CONTANTES MANO DERECHA
       3:  00:630D                      ;;=====================================================
       4:  00:630D                      datos_manod:
       5:  00:630D  14                  			DB		TIPOMANODERECHA	;(activo_tipo) si inactivo = 0 si <> 0 es el tipo de enemigo
       6:  00:630E  00                  			DB		0		;(escena) sprite a mostrar 1/2
       7:  00:630F  10                  			DB		00010000b		;(cont_sig_escena) retardo_explosion ;contador para ver cuando cambiar de sprite (y retardo_explosión irá hasta cero antes de que desaparezca la explosión)
       8:  00:6310  80                  			DB		128		;(energia) energía del enemigo antes de morir
       9:  00:6311  2F                  			DB		MANOD_POSX		;(posx) pos x para mover y punto central del sprite para revisar disparo
      10:  00:6312  40                  			DB		MANOD_POSY		;(posy) pos y para mover y punto central del sprite para revisar disparo
      11:  00:6313  08                  			DB		8		;(radiox) radio x del enemigo para cuando se dispare encima
      12:  00:6314  08                  			DB		8		;(radioy) radio y del enemigo para cuando se dispare encima
      13:  00:6315  05                  			DB		MANOD_INCREMENTO;(incx) incremento x para mover
      14:  00:6316  00                  			DB		0		;(inxy) incremento y para mover
      15:  00:6317  01                  			DB		DIRIZQUIERDA	;(direccionx) 0 derecha <> 0 izquierda // 0 abajo <> 0 arriba
      16:  00:6318  00                  			DB		0		;(direcciony) 0 derecha <> 0 izquierda // 0 abajo <> 0 arriba
      17:  00:6319  23                  			DB		MANOD_PASOS		;(pasos) pasos para no comprobar los límites de pentalla, sólo si pasos ha llegado a 0
      18:  00:631A  01                  			DB		1		;pocavida 0 y 1 para indicar cuando le queda poca vida al enemigo
      19:  00:631B  74 63               			DW		mover_manod		;(ptr_mover) puntero a subrutina que moverá el enemigo según el tipo de enemigo (se pasa al inicializar)
      20:  00:631D  00                  			DB		0	;izq arriba
      21:  00:631E  00                  			DB		0	;der_arriba
      22:  00:631F  00                  			DB		0	;izq abajo
      23:  00:6320  00                  			DB		0	;der_abajo
      24:  00:6321                      
      25:  00:6321                      array_manod_derecha_posx:
      26:  00:6321                      			DB		143,145,148,151,153,156,159,161,164,167,169,172,175,177,180,183,185,188,191,193,196,199,201,204,207,209,212,215,218,220,223,225,228,231,233,236,239
      26:  00:6321  8F 91 94 97 99 9C 9F A1 A4 A7 A9 AC AF B1 B4 B7 
      26:  00:6331  B9 BC BF C1 C4 C7 C9 CC CF D1 D4 D7 DA DC DF E1 
      26:  00:6341  E4 E7 E9 EC EF 
      27:  00:6346                      
      28:  00:6346                      array_manod_izquierda_posx:
      29:  00:6346                      			DB		239,236,233,231,228,225,223,220,218,215,212,209,207,204,201,199,196,193,191,188,185,183,180,177,175,172,169,167,164,161,159,156,153,151,148,145,143
      29:  00:6346  EF EC E9 E7 E4 E1 DF DC DA D7 D4 D1 CF CC C9 C7 
      29:  00:6356  C4 C1 BF BC B9 B7 B4 B1 AF AC A9 A7 A4 A1 9F 9C 
      29:  00:6366  99 97 94 91 8F 
      30:  00:636B                      
      31:  00:636B                      ;Esta variable es igual en ambas manos, no merece la pena repetirla. Está de forma real en mano izquierda
      32:  00:636B                      ;~ array_mano_derecha_posy:
      33:  00:636B                      			;~ DB		55,40,32,24,18,14,12,10,8,6,4,3,3,2,2,1,0,0,0,0,0,1,2,2,3,3,4,6,8,10,12,14,18,24,32,40,55
      34:  00:636B                      ;~ array_mano_izquierda_posy:
      35:  00:636B                      			;~ DB		55,71,79,87,90,96,98,100,102,104,106,107,108,109,109,110,110,111,111,111,110,110,109,109,108,107,106,104,102,100,98,96,90,87,79,71,55
      36:  00:636B                      			
      37:  00:636B                      			
      38:  00:636B                      ;;=====================================================
      39:  00:636B                      ;;SUBRUTINAS MANEJO DE MANO DERECHA
      40:  00:636B                      ;;=====================================================	
      41:  00:636B                      
      42:  00:636B                      
      43:  00:636B                      ;;=====================================================
      44:  00:636B                      ;;ANADE_ENEMIGO_MANO DERECHA
      45:  00:636B                      ;;=====================================================	
      46:  00:636B                      ; función: 	mete en memoria la plantilla de datos base de la mano derecha en el enemigo que se le pase por DE
      47:  00:636B                      ; entrada:	DE (enemigo en concreto al que poner los datos, por ejemplo, enemigo1)
      48:  00:636B                      ; salida: 	-
      49:  00:636B                      ; toca:		-
      50:  00:636B                      anade_enemigo_manod:
      51:  00:636B  21 0D 63            		LD			HL, datos_manod
      52:  00:636E  01 14 00            		LD			BC, ESTRUCTURA_ENEMIGO
      53:  00:6371  ED B0               		LDIR
      54:  00:6373                      fin_anade_enemigo_manod:
      55:  00:6373  C9                  		RET
      56:  00:6374                      
      57:  00:6374                      
      58:  00:6374                      ;;=====================================================
      59:  00:6374                      ;;ACTUALIZA_VALORES_MANO DERECHA
      60:  00:6374                      ;;=====================================================	
      61:  00:6374                      ; función: 	inicializa valores aleatorios de la mano derecha
      62:  00:6374                      ; entrada:	IX que equivaldrá a qué nº de enemigo estamos inicializando (por ejemplo enemigo1)
      63:  00:6374                      ; salida: 	posicion_anterior_arana
      64:  00:6374                      ; toca:		-
      65:  00:6374                      actualiza_valores_manod:
      66:  00:6374                      fin_actualiza_valores_manod:
      67:  00:6374                      		
      68:  00:6374                      		
      69:  00:6374                      ;;=====================================================
      70:  00:6374                      ;;MOVER_MANO DERECHA
      71:  00:6374                      ;;=====================================================	
      72:  00:6374                      ; función: hace todo lo que haga falta de acciones cada vez que le toca al programa enfocarse en la mano derecha: su ataque, su sptrite, etc...
      73:  00:6374                      ; entrada: IX (enemigo en concreto al que poner los datos, por ejemplo, enemigo1)
      74:  00:6374                      ; salida: 	-
      75:  00:6374                      ; toca:		-
      76:  00:6374                      mover_manod:
      77:  00:6374  DD 35 08            		DEC			(IX + ESTRUCTURA_ENEMIGO.incx)
      78:  00:6377  C0                  		RET			NZ
      79:  00:6378                      		
      80:  00:6378  DD 36 08 05         		LD			(IX + ESTRUCTURA_ENEMIGO.incx), MANOD_INCREMENTO
      81:  00:637C                      		
      82:  00:637C  CD CC 63            		CALL		calcula_manod_incrementoxy
      83:  00:637F  DD 7E 05            		LD			 A, (IX + ESTRUCTURA_ENEMIGO.posy)
      84:  00:6382  FD 77 00            		LD			(IY), A
      85:  00:6385                      		
      86:  00:6385  DD 7E 04            		LD			 A, (IX + ESTRUCTURA_ENEMIGO.posx)
      87:  00:6388  FD 77 01            		LD			(IY + 1), A
      88:  00:638B                      		
      89:  00:638B  CD AC 63            		CALL		calcula_manod_escena
      90:  00:638E  DD 7E 10            		LD			 A, (IX + ESTRUCTURA_ENEMIGO.sprite_a)
      91:  00:6391  FD 77 02            		LD			(IY + 2), A
      92:  00:6394                      		
      93:  00:6394                      		;colorea mano DERECHA
      94:  00:6394  DD 7E 0D            		LD			 A, (IX + ESTRUCTURA_ENEMIGO.pocavida)
      95:  00:6397  B7                  		OR			 A
      96:  00:6398  CA A7 63            		JP			 Z, .nointercambiacolor
      97:  00:639B  DD 7E 01            			LD			 A, (IX + ESTRUCTURA_ENEMIGO.escena)
      98:  00:639E  B7                  			OR			 A
      99:  00:639F  CA A7 63            			JP			 Z, .nointercambiacolor	
     100:  00:63A2  FD 36 03 08         				LD			(IY + 3),  COLROJO
     101:  00:63A6  C9                  				RET
     102:  00:63A7                      .nointercambiacolor:
     103:  00:63A7  FD 36 03 01         		LD			(IY + 3), MANOD_COLOR
     104:  00:63AB                      fin_mover_manod:
     105:  00:63AB  C9                  		RET
     106:  00:63AC                      
     107:  00:63AC                      
     108:  00:63AC                      ;;=====================================================
     109:  00:63AC                      ;;CALCULA_MANO DERECHA_ESCENA
     110:  00:63AC                      ;;=====================================================	
     111:  00:63AC                      calcula_manod_escena:
     112:  00:63AC  3A 54 C0            		LD			 A, (heartbeat_general)
     113:  00:63AF  E6 10               		AND			MANOD_VELESCENA
     114:  00:63B1  C8                  		RET			 Z   	; IF TENGO QUE CAMBIAR DE ESCENA THEN
     115:  00:63B2                      			;reseteo el cambio de escena de la mano derecha
     116:  00:63B2  AF                  			XOR			 A
     117:  00:63B3  32 54 C0            			LD			(heartbeat_general), A
     118:  00:63B6                      			
     119:  00:63B6                      			;THEN cambia escena
     120:  00:63B6  DD 7E 01            			LD			 A, (IX + ESTRUCTURA_ENEMIGO.escena)
     121:  00:63B9  EE 01               			XOR			00000001b
     122:  00:63BB  DD 77 01            			LD			(IX + ESTRUCTURA_ENEMIGO.escena), A
     123:  00:63BE                      			
     124:  00:63BE  B7                  			OR			 A
     125:  00:63BF  CA C7 63            			JP			 Z, .escena2
     126:  00:63C2                      .escena1:
     127:  00:63C2  DD 36 10 E8         				LD			(IX + ESTRUCTURA_ENEMIGO.sprite_a), MANOD_SPRITE1A
     128:  00:63C6  C9                  				RET
     129:  00:63C7                      .escena2:
     130:  00:63C7  DD 36 10 EC         				LD			(IX + ESTRUCTURA_ENEMIGO.sprite_a), MANOD_SPRITE1B
     131:  00:63CB  C9                  				RET	
     132:  00:63CC                      fin_calcula_manod_escena:
     133:  00:63CC                      		
     134:  00:63CC                      
     135:  00:63CC                      ;;=====================================================
     136:  00:63CC                      ;;CALCULA_MANO DERECHA_INCREMENTOXY
     137:  00:63CC                      ;;=====================================================	
     138:  00:63CC                      calcula_manod_incrementoxy:
     139:  00:63CC  DD CB 0A 46         		BIT			 0, (IX + ESTRUCTURA_ENEMIGO.direccionx)
     140:  00:63D0  C2 F0 63            		JP			NZ, .direccion_izquierda
     141:  00:63D3                      		
     142:  00:63D3                      .direccion_derecha:		
     143:  00:63D3  21 21 63            			LD			HL, array_manod_derecha_posx
     144:  00:63D6  DD 7E 0C            			LD			 A, (IX + ESTRUCTURA_ENEMIGO.pasos)
     145:  00:63D9  CD F2 42            			CALL		suma_A_HL
     146:  00:63DC  7E                  			LD			 A, (HL)
     147:  00:63DD  DD 77 04            			LD			(IX + ESTRUCTURA_ENEMIGO.posx), A
     148:  00:63E0                      
     149:  00:63E0  21 54 64            			LD			HL, array_mano_derecha_posy
     150:  00:63E3  DD 7E 0C            			LD			 A, (IX + ESTRUCTURA_ENEMIGO.pasos)
     151:  00:63E6  CD F2 42            			CALL		suma_A_HL
     152:  00:63E9  7E                  			LD			 A, (HL)
     153:  00:63EA  DD 77 05            			LD			(IX + ESTRUCTURA_ENEMIGO.posy), A
     154:  00:63ED                      
     155:  00:63ED  C3 0A 64            			JP			.fin_direccion
     156:  00:63F0                      .direccion_izquierda:
     157:  00:63F0  21 46 63            			LD			HL, array_manod_izquierda_posx
     158:  00:63F3  DD 7E 0C            			LD			 A, (IX + ESTRUCTURA_ENEMIGO.pasos)
     159:  00:63F6  CD F2 42            			CALL		suma_A_HL
     160:  00:63F9  7E                  			LD			 A, (HL)
     161:  00:63FA  DD 77 04            			LD			(IX + ESTRUCTURA_ENEMIGO.posx), A
     162:  00:63FD                      
     163:  00:63FD  21 9E 64            			LD			HL, array_mano_izquierda_posy
     164:  00:6400  DD 7E 0C            			LD			 A, (IX + ESTRUCTURA_ENEMIGO.pasos)
     165:  00:6403  CD F2 42            			CALL		suma_A_HL
     166:  00:6406  7E                  			LD			 A, (HL)
     167:  00:6407  DD 77 05            			LD			(IX + ESTRUCTURA_ENEMIGO.posy), A
     168:  00:640A                      
     169:  00:640A                      .fin_direccion:
     170:  00:640A  DD 35 0C            		DEC			(IX + ESTRUCTURA_ENEMIGO.pasos)
     171:  00:640D  C0                  		RET			NZ
     172:  00:640E                      			;implica que se han terminado los pasos y hay que cambiar de sentido
     173:  00:640E  DD 7E 0A            			LD			 A, (IX + ESTRUCTURA_ENEMIGO.direccionx)
     174:  00:6411  EE 01               			XOR			00000001b
     175:  00:6413  DD 77 0A            			LD			(IX + ESTRUCTURA_ENEMIGO.direccionx), A
     176:  00:6416  DD 36 0C 23         			LD			(IX + ESTRUCTURA_ENEMIGO.pasos), MANOD_PASOS
     177:  00:641A                      fin_calcula_manod_incrementoxy:
     178:  00:641A  C9                  		RET
      28.  00:641B                      include "subr_enemigo_manoi.asm"
       1:  00:641B                      ;;=====================================================
       2:  00:641B                      ;;CONTANTES MANO IZQUIERDA
       3:  00:641B                      ;;=====================================================
       4:  00:641B                      datos_manoi:
       5:  00:641B  15                  			DB		TIPOMANOIZQUIERDA	;(activo_tipo) si inactivo = 0 si <> 0 es el tipo de enemigo
       6:  00:641C  00                  			DB		0		;(escena) sprite a mostrar 1/2
       7:  00:641D  10                  			DB		00010000b		;(cont_sig_escena) retardo_explosion ;contador para ver cuando cambiar de sprite (y retardo_explosión irá hasta cero antes de que desaparezca la explosión)
       8:  00:641E  80                  			DB		128		;(energia) energía del enemigo antes de morir
       9:  00:641F  2F                  			DB		MANOI_POSX		;(posx) pos x para mover y punto central del sprite para revisar disparo
      10:  00:6420  40                  			DB		MANOI_POSY		;(posy) pos y para mover y punto central del sprite para revisar disparo
      11:  00:6421  08                  			DB		8		;(radiox) radio x del enemigo para cuando se dispare encima
      12:  00:6422  08                  			DB		8		;(radioy) radio y del enemigo para cuando se dispare encima
      13:  00:6423  05                  			DB		MANOI_INCREMENTO;(incx) incremento x para mover
      14:  00:6424  00                  			DB		0		;(inxy) incremento y para mover
      15:  00:6425  00                  			DB		DIRDERECHA		;(direccionx) 0 derecha <> 0 izquierda // 0 abajo <> 0 arriba
      16:  00:6426  00                  			DB		0		;(direcciony) 0 derecha <> 0 izquierda // 0 abajo <> 0 arriba
      17:  00:6427  23                  			DB		MANOI_PASOS		;(pasos) pasos para no comprobar los límites de pentalla, sólo si pasos ha llegado a 0
      18:  00:6428  01                  			DB		1		;pocavida 0 y 1 para indicar cuando le queda poca vida al enemigo
      19:  00:6429  CC 64               			DW		mover_manoi		;(ptr_mover) puntero a subrutina que moverá el enemigo según el tipo de enemigo (se pasa al inicializar)
      20:  00:642B  E0                  			DB		MANOI_SPRITE1A	;izq arriba
      21:  00:642C  E4                  			DB		MANOI_SPRITE1B	;der_arriba
      22:  00:642D  E0                  			DB		MANOI_SPRITE1A	;izq abajo
      23:  00:642E  E4                  			DB		MANOI_SPRITE1B	;der_abajo
      24:  00:642F                      
      25:  00:642F                      array_manoi_derecha_posx:
      26:  00:642F                      			DB		0,3,6,8,11,14,16,19,21,24,27,30,32,35,38,40,43,46,48,51,54,56,59,62,64,67,70,72,75,78,80,83,86,88,91,94,96
      26:  00:642F  00 03 06 08 0B 0E 10 13 15 18 1B 1E 20 23 26 28 
      26:  00:643F  2B 2E 30 33 36 38 3B 3E 40 43 46 48 4B 4E 50 53 
      26:  00:644F  56 58 5B 5E 60 
      27:  00:6454                      
      28:  00:6454                      array_mano_derecha_posy:
      29:  00:6454                      			DB		55,40,32,24,18,14,12,10,8,6,4,3,3,2,2,1,0,0,0,0,0,1,2,2,3,3,4,6,8,10,12,14,18,24,32,40,55
      29:  00:6454  37 28 20 18 12 0E 0C 0A 08 06 04 03 03 02 02 01 
      29:  00:6464  00 00 00 00 00 01 02 02 03 03 04 06 08 0A 0C 0E 
      29:  00:6474  12 18 20 28 37 
      30:  00:6479                      
      31:  00:6479                      array_manoi_izquierda_posx:
      32:  00:6479                      			DB		96,94,91,88,86,83,80,78,75,72,70,67,64,62,59,56,54,51,48,46,43,40,38,35,32,30,27,24,21,19,16,14,11,8,6,3,0
      32:  00:6479  60 5E 5B 58 56 53 50 4E 4B 48 46 43 40 3E 3B 38 
      32:  00:6489  36 33 30 2E 2B 28 26 23 20 1E 1B 18 15 13 10 0E 
      32:  00:6499  0B 08 06 03 00 
      33:  00:649E                      			
      34:  00:649E                      array_mano_izquierda_posy:
      35:  00:649E                      			DB		55,71,79,87,90,96,98,100,102,104,106,107,108,109,109,110,110,111,111,111,110,110,109,109,108,107,106,104,102,100,98,96,90,87,79,71,55
      35:  00:649E  37 47 4F 57 5A 60 62 64 66 68 6A 6B 6C 6D 6D 6E 
      35:  00:64AE  6E 6F 6F 6F 6E 6E 6D 6D 6C 6B 6A 68 66 64 62 60 
      35:  00:64BE  5A 57 4F 47 37 
      36:  00:64C3                      			
      37:  00:64C3                      			
      38:  00:64C3                      ;;=====================================================
      39:  00:64C3                      ;;SUBRUTINAS MANEJO DE MANO IZQUIERDA
      40:  00:64C3                      ;;=====================================================	
      41:  00:64C3                      
      42:  00:64C3                      
      43:  00:64C3                      ;;=====================================================
      44:  00:64C3                      ;;ANADE_ENEMIGO_MANO IZQUIERDA
      45:  00:64C3                      ;;=====================================================	
      46:  00:64C3                      ; función: 	mete en memoria la plantilla de datos base de la mano izquierda en el enemigo que se le pase por DE
      47:  00:64C3                      ; entrada:	DE (enemigo en concreto al que poner los datos, por ejemplo, enemigo1)
      48:  00:64C3                      ; salida: 	-
      49:  00:64C3                      ; toca:		-
      50:  00:64C3                      anade_enemigo_manoi:
      51:  00:64C3  21 1B 64            		LD			HL, datos_manoi
      52:  00:64C6  01 14 00            		LD			BC, ESTRUCTURA_ENEMIGO
      53:  00:64C9  ED B0               		LDIR
      54:  00:64CB                      fin_anade_enemigo_manoi:
      55:  00:64CB  C9                  		RET
      56:  00:64CC                      
      57:  00:64CC                      
      58:  00:64CC                      ;;=====================================================
      59:  00:64CC                      ;;ACTUALIZA_VALORES_MANO IZQUIERDA
      60:  00:64CC                      ;;=====================================================	
      61:  00:64CC                      ; función: 	inicializa valores aleatorios de la mano izquierda
      62:  00:64CC                      ; entrada:	IX que equivaldrá a qué nº de enemigo estamos inicializando (por ejemplo enemigo1)
      63:  00:64CC                      ; salida: 	posicion_anterior_arana
      64:  00:64CC                      ; toca:		-
      65:  00:64CC                      actualiza_valores_manoi:
      66:  00:64CC                      fin_actualiza_valores_manoi:
      67:  00:64CC                      		
      68:  00:64CC                      		
      69:  00:64CC                      ;;=====================================================
      70:  00:64CC                      ;;MOVER_MANO IZQUIERDA
      71:  00:64CC                      ;;=====================================================	
      72:  00:64CC                      ; función: hace todo lo que haga falta de acciones cada vez que le toca al programa enfocarse en la mano izquierda: su ataque, su sptrite, etc...
      73:  00:64CC                      ; entrada: IX (enemigo en concreto al que poner los datos, por ejemplo, enemigo1)
      74:  00:64CC                      ; salida: 	-
      75:  00:64CC                      ; toca:		-
      76:  00:64CC                      mover_manoi:
      77:  00:64CC  DD 35 08            		DEC			(IX + ESTRUCTURA_ENEMIGO.incx)
      78:  00:64CF  C0                  		RET			NZ
      79:  00:64D0                      		
      80:  00:64D0  DD 36 08 05         		LD			(IX + ESTRUCTURA_ENEMIGO.incx), MANOI_INCREMENTO
      81:  00:64D4                      		
      82:  00:64D4  CD 24 65            		CALL		calcula_manoi_incrementoxy
      83:  00:64D7  DD 7E 05            		LD			 A, (IX + ESTRUCTURA_ENEMIGO.posy)
      84:  00:64DA  FD 77 00            		LD			(IY), A
      85:  00:64DD                      		
      86:  00:64DD  DD 7E 04            		LD			 A, (IX + ESTRUCTURA_ENEMIGO.posx)
      87:  00:64E0  FD 77 01            		LD			(IY + 1), A
      88:  00:64E3                      		
      89:  00:64E3  CD 04 65            		CALL		calcula_manoi_escena
      90:  00:64E6  DD 7E 10            		LD			 A, (IX + ESTRUCTURA_ENEMIGO.sprite_a)
      91:  00:64E9  FD 77 02            		LD			(IY + 2), A
      92:  00:64EC                      		
      93:  00:64EC                      		;colorea mano izquierda
      94:  00:64EC  DD 7E 0D            		LD			 A, (IX + ESTRUCTURA_ENEMIGO.pocavida)
      95:  00:64EF  B7                  		OR			 A
      96:  00:64F0  CA FF 64            		JP			 Z, .nointercambiacolor
      97:  00:64F3  DD 7E 01            			LD			 A, (IX + ESTRUCTURA_ENEMIGO.escena)
      98:  00:64F6  B7                  			OR			 A
      99:  00:64F7  CA FF 64            			JP			 Z, .nointercambiacolor	
     100:  00:64FA  FD 36 03 08         				LD			(IY + 3),  COLROJO
     101:  00:64FE  C9                  				RET
     102:  00:64FF                      .nointercambiacolor:
     103:  00:64FF  FD 36 03 01         		LD			(IY + 3), MANOI_COLOR
     104:  00:6503                      fin_mover_manoi:
     105:  00:6503  C9                  		RET
     106:  00:6504                      
     107:  00:6504                      
     108:  00:6504                      ;;=====================================================
     109:  00:6504                      ;;CALCULA_MANO IZQUIERDA_ESCENA
     110:  00:6504                      ;;=====================================================	
     111:  00:6504                      calcula_manoi_escena:
     112:  00:6504  3A 54 C0            		LD			 A, (heartbeat_general)
     113:  00:6507  E6 10               		AND			MANOI_VELESCENA
     114:  00:6509  C8                  		RET			 Z   	; IF TENGO QUE CAMBIAR DE ESCENA THEN
     115:  00:650A                      			;reseteo el cambio de escena de la mano izquierda
     116:  00:650A  AF                  			XOR			 A
     117:  00:650B  32 54 C0            			LD			(heartbeat_general), A
     118:  00:650E                      			
     119:  00:650E                      			;THEN cambia escena
     120:  00:650E  DD 7E 01            			LD			 A, (IX + ESTRUCTURA_ENEMIGO.escena)
     121:  00:6511  EE 01               			XOR			00000001b
     122:  00:6513  DD 77 01            			LD			(IX + ESTRUCTURA_ENEMIGO.escena), A
     123:  00:6516                      			
     124:  00:6516  B7                  			OR			 A
     125:  00:6517  CA 1F 65            			JP			 Z, .escena2
     126:  00:651A                      .escena1:
     127:  00:651A  DD 36 10 E0         				LD			(IX + ESTRUCTURA_ENEMIGO.sprite_a), MANOI_SPRITE1A
     128:  00:651E  C9                  				RET
     129:  00:651F                      .escena2:
     130:  00:651F  DD 36 10 E4         				LD			(IX + ESTRUCTURA_ENEMIGO.sprite_a), MANOI_SPRITE1B
     131:  00:6523  C9                  				RET	
     132:  00:6524                      fin_calcula_manoi_escena:
     133:  00:6524                      		
     134:  00:6524                      
     135:  00:6524                      ;;=====================================================
     136:  00:6524                      ;;CALCULA_MANO IZQUIERDA_INCREMENTOXY
     137:  00:6524                      ;;=====================================================	
     138:  00:6524                      calcula_manoi_incrementoxy:
     139:  00:6524  DD CB 0A 46         		BIT			 0, (IX + ESTRUCTURA_ENEMIGO.direccionx)
     140:  00:6528  C2 48 65            		JP			NZ, .direccion_izquierda
     141:  00:652B                      		
     142:  00:652B                      .direccion_derecha:		
     143:  00:652B  21 2F 64            			LD			HL, array_manoi_derecha_posx
     144:  00:652E  DD 7E 0C            			LD			 A, (IX + ESTRUCTURA_ENEMIGO.pasos)
     145:  00:6531  CD F2 42            			CALL		suma_A_HL
     146:  00:6534  7E                  			LD			 A, (HL)
     147:  00:6535  DD 77 04            			LD			(IX + ESTRUCTURA_ENEMIGO.posx), A
     148:  00:6538                      
     149:  00:6538  21 54 64            			LD			HL, array_mano_derecha_posy
     150:  00:653B  DD 7E 0C            			LD			 A, (IX + ESTRUCTURA_ENEMIGO.pasos)
     151:  00:653E  CD F2 42            			CALL		suma_A_HL
     152:  00:6541  7E                  			LD			 A, (HL)
     153:  00:6542  DD 77 05            			LD			(IX + ESTRUCTURA_ENEMIGO.posy), A
     154:  00:6545                      
     155:  00:6545  C3 62 65            			JP			.fin_direccion
     156:  00:6548                      .direccion_izquierda:
     157:  00:6548  21 79 64            			LD			HL, array_manoi_izquierda_posx
     158:  00:654B  DD 7E 0C            			LD			 A, (IX + ESTRUCTURA_ENEMIGO.pasos)
     159:  00:654E  CD F2 42            			CALL		suma_A_HL
     160:  00:6551  7E                  			LD			 A, (HL)
     161:  00:6552  DD 77 04            			LD			(IX + ESTRUCTURA_ENEMIGO.posx), A
     162:  00:6555                      
     163:  00:6555  21 9E 64            			LD			HL, array_mano_izquierda_posy
     164:  00:6558  DD 7E 0C            			LD			 A, (IX + ESTRUCTURA_ENEMIGO.pasos)
     165:  00:655B  CD F2 42            			CALL		suma_A_HL
     166:  00:655E  7E                  			LD			 A, (HL)
     167:  00:655F  DD 77 05            			LD			(IX + ESTRUCTURA_ENEMIGO.posy), A
     168:  00:6562                      
     169:  00:6562                      .fin_direccion:
     170:  00:6562  DD 35 0C            		DEC			(IX + ESTRUCTURA_ENEMIGO.pasos)
     171:  00:6565  C0                  		RET			NZ
     172:  00:6566                      			;implica que se han terminado los pasos y hay que cambiar de sentido
     173:  00:6566  DD 7E 0A            			LD			 A, (IX + ESTRUCTURA_ENEMIGO.direccionx)
     174:  00:6569  EE 01               			XOR			00000001b
     175:  00:656B  DD 77 0A            			LD			(IX + ESTRUCTURA_ENEMIGO.direccionx), A
     176:  00:656E  DD 36 0C 23         			LD			(IX + ESTRUCTURA_ENEMIGO.pasos), MANOI_PASOS
     177:  00:6572                      fin_calcula_manoi_incrementoxy:
     178:  00:6572  C9                  		RET
      29.  00:6573                      		
      30.  00:6573                      		
      31.  00:6573                      ;;=====================================================
      32.  00:6573                      ;;SUBRUTINAS
      33.  00:6573                      ;;=====================================================
      34.  00:6573                      
      35.  00:6573                      
      36.  00:6573                      ;;=====================================================
      37.  00:6573                      ;;RESETEA_ENEMIGOS
      38.  00:6573                      ;;=====================================================	
      39.  00:6573                      ; función: 	inicializa todos los enemigos a tipo 0 (muerto) ... incluso los que no van a salir porque se verifican todos
      40.  00:6573                      ;			también los oculta sacándolos de pantalla (y = 208)
      41.  00:6573                      ; entrada:	-
      42.  00:6573                      ; salida: 	-
      43.  00:6573                      ; toca:		-
      44.  00:6573                      resetea_enemigos:
      45.  00:6573                      ;resetea tipo (no activo)
      46.  00:6573  AF                  		XOR			 A	; 0 es inactivo
      47.  00:6574  DD 21 55 C0         		LD			IX, enemigo1
      48.  00:6578  DD 77 00            		LD			(IX), A
      49.  00:657B  DD 21 69 C0         		LD			IX, enemigo2
      50.  00:657F  DD 77 00            		LD			(IX), A
      51.  00:6582  DD 21 7D C0         		LD			IX, enemigo3
      52.  00:6586  DD 77 00            		LD			(IX), A
      53.  00:6589  DD 21 91 C0         		LD			IX, enemigo4
      54.  00:658D  DD 77 00            		LD			(IX), A
      55.  00:6590  DD 21 A5 C0         		LD			IX, enemigo5
      56.  00:6594  DD 77 00            		LD			(IX), A
      57.  00:6597  DD 21 B9 C0         		LD			IX, enemigo6
      58.  00:659B  DD 77 00            		LD			(IX), A
      59.  00:659E  DD 21 CD C0         		LD			IX, enemigo7
      60.  00:65A2  DD 77 00            		LD			(IX), A
      61.  00:65A5                      
      62.  00:65A5                      ;ocultar sprites		
      63.  00:65A5  06 7F               		LD			 B, 127
      64.  00:65A7  21 E1 C0            		LD			HL, array_sprites
      65.  00:65AA                      .loop:
      66.  00:65AA  77                  		LD			(HL), A
      67.  00:65AB  23                  		INC			HL
      68.  00:65AC  10 FC               		DJNZ		.loop
      69.  00:65AE                      		
      70.  00:65AE                      ;actualiza vector de sprites
      71.  00:65AE  CD 84 4D            		CALL		render_sprites
      72.  00:65B1                      fin_resetea_enemigos:
      73.  00:65B1  C9                  		RET
      74.  00:65B2                      
      75.  00:65B2                      
      76.  00:65B2                      ;;=====================================================
      77.  00:65B2                      ;;INICIALIZA_ENEMIGOS_FASE 0
      78.  00:65B2                      ;;=====================================================	
      79.  00:65B2                      ; función: 	inicializa las variables que serán usadas en el array en la fase
      80.  00:65B2                      ; entrada:	-
      81.  00:65B2                      ; salida: 	-
      82.  00:65B2                      ; toca:		-
      83.  00:65B2                      inicializa_enemigos_fase0:	;; para no poner más complejo se hace uno por fase que se actualiza al pasar por escaleras o puerta inferior
      84.  00:65B2  3A 04 C0            		LD			 A, (prota_pos_mapy)
      85.  00:65B5  B7                  		OR			 A
      86.  00:65B6                      .nivel0:
      87.  00:65B6  C2 BD 65            		JP			NZ, .nivel1
      88.  00:65B9  CD 31 67            		CALL		inicializa_enemigos_fase0_nivel0
      89.  00:65BC  C9                  		RET
      90.  00:65BD                      .nivel1:
      91.  00:65BD  3D                  		DEC			 A
      92.  00:65BE  C2 C5 65            		JP			NZ, .nivel2
      93.  00:65C1  CD 3E 67            		CALL		inicializa_enemigos_fase0_nivel1
      94.  00:65C4  C9                  		RET
      95.  00:65C5                      .nivel2:
      96.  00:65C5  3D                  		DEC			 A
      97.  00:65C6  C2 CD 65            		JP			NZ, .nivel3
      98.  00:65C9  CD 58 67            		CALL		inicializa_enemigos_fase0_nivel2
      99.  00:65CC  C9                  		RET
     100.  00:65CD                      .nivel3:
     101.  00:65CD  3D                  		DEC			 A
     102.  00:65CE  C2 D5 65            		JP			NZ, .nivel4
     103.  00:65D1  CD 7D 67            		CALL		inicializa_enemigos_fase0_nivel3
     104.  00:65D4  C9                  		RET
     105.  00:65D5                      .nivel4:
     106.  00:65D5  3D                  		DEC			 A
     107.  00:65D6  C2 DD 65            		JP			NZ, .nivel5
     108.  00:65D9  CD AC 67            		CALL		inicializa_enemigos_fase0_nivel4
     109.  00:65DC  C9                  		RET
     110.  00:65DD                      .nivel5:
     111.  00:65DD  3D                  		DEC			 A
     112.  00:65DE  C2 E5 65            		JP			NZ, .nivel6
     113.  00:65E1  CD E5 67            		CALL		inicializa_enemigos_fase0_nivel5
     114.  00:65E4  C9                  		RET
     115.  00:65E5                      .nivel6:
     116.  00:65E5  C3 1E 68            		JP			inicializa_enemigos_fase0_niveljefe
     117.  00:65E8                      fin_inicializa_enemigos_fase0:
     118.  00:65E8                      
     119.  00:65E8                      
     120.  00:65E8                      ;;=====================================================
     121.  00:65E8                      ;;INICIALIZA_ENEMIGOS_FASE 1
     122.  00:65E8                      ;;=====================================================	
     123.  00:65E8                      ; función: 	inicializa las variables que serán usadas en el array en la fase
     124.  00:65E8                      ; entrada:	-
     125.  00:65E8                      ; salida: 	-
     126.  00:65E8                      ; toca:		-
     127.  00:65E8                      inicializa_enemigos_fase1:	;; para no poner más complejo se hace uno por fase que se actualiza al pasar por escaleras o puerta inferior
     128.  00:65E8  3A 04 C0            		LD			 A, (prota_pos_mapy)
     129.  00:65EB  B7                  		OR			 A
     130.  00:65EC                      .nivel0:
     131.  00:65EC  C2 F3 65            		JP			NZ, .nivel1
     132.  00:65EF  CD 29 68            		CALL		inicializa_enemigos_fase1_nivel0
     133.  00:65F2  C9                  		RET
     134.  00:65F3                      .nivel1:
     135.  00:65F3  3D                  		DEC			 A
     136.  00:65F4  C2 FB 65            		JP			NZ, .nivel2
     137.  00:65F7  CD 34 68            		CALL		inicializa_enemigos_fase1_nivel1
     138.  00:65FA  C9                  		RET
     139.  00:65FB                      .nivel2:
     140.  00:65FB  3D                  		DEC			 A
     141.  00:65FC  C2 03 66            		JP			NZ, .nivel3
     142.  00:65FF  CD 4B 68            		CALL		inicializa_enemigos_fase1_nivel2
     143.  00:6602  C9                  		RET
     144.  00:6603                      .nivel3:
     145.  00:6603  3D                  		DEC			 A
     146.  00:6604  C2 0B 66            		JP			NZ, .nivel4
     147.  00:6607  CD 6D 68            		CALL		inicializa_enemigos_fase1_nivel3
     148.  00:660A  C9                  		RET
     149.  00:660B                      .nivel4:
     150.  00:660B  3D                  		DEC			 A
     151.  00:660C  C2 13 66            		JP			NZ, .nivel5
     152.  00:660F  CD 99 68            		CALL		inicializa_enemigos_fase1_nivel4
     153.  00:6612  C9                  		RET
     154.  00:6613                      .nivel5:
     155.  00:6613  3D                  		DEC			 A
     156.  00:6614  C2 1B 66            		JP			NZ, .nivel6
     157.  00:6617  CD CF 68            		CALL		inicializa_enemigos_fase1_nivel5
     158.  00:661A  C9                  		RET
     159.  00:661B                      .nivel6:
     160.  00:661B  C3 0F 69            		JP			inicializa_enemigos_fase1_niveljefe
     161.  00:661E                      fin_inicializa_enemigos_fase1:
     162.  00:661E                      		
     163.  00:661E                      
     164.  00:661E                      
     165.  00:661E                      ;;=====================================================
     166.  00:661E                      ;;INICIALIZA_ENEMIGOS_FASE 2
     167.  00:661E                      ;;=====================================================	
     168.  00:661E                      ; función: 	inicializa las variables que serán usadas en el array en la fase
     169.  00:661E                      ; entrada:	-
     170.  00:661E                      ; salida: 	-
     171.  00:661E                      ; toca:		-
     172.  00:661E                      inicializa_enemigos_fase2:	;; para no poner más complejo se hace uno por fase que se actualiza al pasar por escaleras o puerta inferior
     173.  00:661E  3A 04 C0            		LD			 A, (prota_pos_mapy)
     174.  00:6621  B7                  		OR			 A
     175.  00:6622                      .nivel0:
     176.  00:6622  C2 29 66            		JP			NZ, .nivel1
     177.  00:6625  CD 1C 69            		CALL		inicializa_enemigos_fase2_nivel0
     178.  00:6628  C9                  		RET
     179.  00:6629                      .nivel1:
     180.  00:6629  3D                  		DEC			 A
     181.  00:662A  C2 31 66            		JP			NZ, .nivel2
     182.  00:662D  CD 27 69            		CALL		inicializa_enemigos_fase2_nivel1
     183.  00:6630  C9                  		RET
     184.  00:6631                      .nivel2:
     185.  00:6631  3D                  		DEC			 A
     186.  00:6632  C2 39 66            		JP			NZ, .nivel3
     187.  00:6635  CD 3C 69            		CALL		inicializa_enemigos_fase2_nivel2
     188.  00:6638  C9                  		RET
     189.  00:6639                      .nivel3:
     190.  00:6639  3D                  		DEC			 A
     191.  00:663A  C2 41 66            		JP			NZ, .nivel4
     192.  00:663D  CD 5B 69            		CALL		inicializa_enemigos_fase2_nivel3
     193.  00:6640  C9                  		RET
     194.  00:6641                      .nivel4:
     195.  00:6641  3D                  		DEC			 A
     196.  00:6642  C2 49 66            		JP			NZ, .nivel5
     197.  00:6645  CD 84 69            		CALL		inicializa_enemigos_fase2_nivel4
     198.  00:6648  C9                  		RET
     199.  00:6649                      .nivel5:
     200.  00:6649  3D                  		DEC			 A
     201.  00:664A  C2 51 66            		JP			NZ, .nivel6
     202.  00:664D  CD B7 69            		CALL		inicializa_enemigos_fase2_nivel5
     203.  00:6650  C9                  		RET
     204.  00:6651                      .nivel6:
     205.  00:6651  C3 EA 69            		JP			inicializa_enemigos_fase2_niveljefe
     206.  00:6654                      fin_inicializa_enemigos_fase2:
     207.  00:6654                      
     208.  00:6654                      
     209.  00:6654                      ;;=====================================================
     210.  00:6654                      ;;INICIALIZA_ENEMIGOS_FASE 3
     211.  00:6654                      ;;=====================================================	
     212.  00:6654                      ; función: 	inicializa las variables que serán usadas en el array en la fase
     213.  00:6654                      ; entrada:	-
     214.  00:6654                      ; salida: 	-
     215.  00:6654                      ; toca:		-
     216.  00:6654                      inicializa_enemigos_fase3:	;; para no poner más complejo se hace uno por fase que se actualiza al pasar por escaleras o puerta inferior
     217.  00:6654  3A 04 C0            		LD			 A, (prota_pos_mapy)
     218.  00:6657  B7                  		OR			 A
     219.  00:6658                      .nivel0:
     220.  00:6658  C2 5F 66            		JP			NZ, .nivel1
     221.  00:665B  CD F5 69            		CALL		inicializa_enemigos_fase3_nivel0
     222.  00:665E  C9                  		RET
     223.  00:665F                      .nivel1:
     224.  00:665F  3D                  		DEC			 A
     225.  00:6660  C2 67 66            		JP			NZ, .nivel2
     226.  00:6663  CD 00 6A            		CALL		inicializa_enemigos_fase3_nivel1
     227.  00:6666  C9                  		RET
     228.  00:6667                      .nivel2:
     229.  00:6667  3D                  		DEC			 A
     230.  00:6668  C2 6F 66            		JP			NZ, .nivel3
     231.  00:666B  CD 17 6A            		CALL		inicializa_enemigos_fase3_nivel2
     232.  00:666E  C9                  		RET
     233.  00:666F                      .nivel3:
     234.  00:666F  3D                  		DEC			 A
     235.  00:6670  C2 77 66            		JP			NZ, .nivel4
     236.  00:6673  CD 39 6A            		CALL		inicializa_enemigos_fase3_nivel3
     237.  00:6676  C9                  		RET
     238.  00:6677                      .nivel4:
     239.  00:6677  3D                  		DEC			 A
     240.  00:6678  C2 7F 66            		JP			NZ, .nivel5
     241.  00:667B  CD 65 6A            		CALL		inicializa_enemigos_fase3_nivel4
     242.  00:667E  C9                  		RET
     243.  00:667F                      .nivel5:
     244.  00:667F  3D                  		DEC			 A
     245.  00:6680  C2 87 66            		JP			NZ, .nivel6
     246.  00:6683  CD 9B 6A            		CALL		inicializa_enemigos_fase3_nivel5
     247.  00:6686  C9                  		RET
     248.  00:6687                      .nivel6:
     249.  00:6687  C3 D1 6A            		JP			inicializa_enemigos_fase3_niveljefe
     250.  00:668A                      fin_inicializa_enemigos_fase3:
     251.  00:668A                      
     252.  00:668A                      		
     253.  00:668A                      ;;=====================================================
     254.  00:668A                      ;;INICIALIZA_ENEMIGOS_FASE 4
     255.  00:668A                      ;;=====================================================	
     256.  00:668A                      ; función: 	inicializa las variables que serán usadas en el array en la fase
     257.  00:668A                      ; entrada:	-
     258.  00:668A                      ; salida: 	-
     259.  00:668A                      ; toca:		-
     260.  00:668A                      inicializa_enemigos_fase4:	;; para no poner más complejo se hace uno por fase que se actualiza al pasar por escaleras o puerta inferior
     261.  00:668A  3A 04 C0            		LD			 A, (prota_pos_mapy)
     262.  00:668D  B7                  		OR			 A
     263.  00:668E                      .nivel0:
     264.  00:668E  C2 95 66            		JP			NZ, .nivel1
     265.  00:6691  CD DC 6A            		CALL		inicializa_enemigos_fase4_nivel0
     266.  00:6694  C9                  		RET
     267.  00:6695                      .nivel1:
     268.  00:6695  3D                  		DEC			 A
     269.  00:6696  C2 9D 66            		JP			NZ, .nivel2
     270.  00:6699  CD E7 6A            		CALL		inicializa_enemigos_fase4_nivel1
     271.  00:669C  C9                  		RET
     272.  00:669D                      .nivel2:
     273.  00:669D  3D                  		DEC			 A
     274.  00:669E  C2 A5 66            		JP			NZ, .nivel3
     275.  00:66A1  CD FC 6A            		CALL		inicializa_enemigos_fase4_nivel2
     276.  00:66A4  C9                  		RET
     277.  00:66A5                      .nivel3:
     278.  00:66A5  3D                  		DEC			 A
     279.  00:66A6  C2 AD 66            		JP			NZ, .nivel4
     280.  00:66A9  CD 1B 6B            		CALL		inicializa_enemigos_fase4_nivel3
     281.  00:66AC  C9                  		RET
     282.  00:66AD                      .nivel4:
     283.  00:66AD  3D                  		DEC			 A
     284.  00:66AE  C2 B5 66            		JP			NZ, .nivel5
     285.  00:66B1  CD 44 6B            		CALL		inicializa_enemigos_fase4_nivel4
     286.  00:66B4  C9                  		RET
     287.  00:66B5                      .nivel5:
     288.  00:66B5  3D                  		DEC			 A
     289.  00:66B6  C2 BD 66            		JP			NZ, .nivel6
     290.  00:66B9  CD 77 6B            		CALL		inicializa_enemigos_fase4_nivel5
     291.  00:66BC  C9                  		RET
     292.  00:66BD                      .nivel6:
     293.  00:66BD  C3 B4 6B            		JP			inicializa_enemigos_fase4_niveljefe
     294.  00:66C0                      fin_inicializa_enemigos_fase4:
     295.  00:66C0                      
     296.  00:66C0                      
     297.  00:66C0                      ;;=====================================================
     298.  00:66C0                      ;;INICIALIZA_ENEMIGOS_FASE 5
     299.  00:66C0                      ;;=====================================================	
     300.  00:66C0                      ; función: 	inicializa las variables que serán usadas en el array en la fase
     301.  00:66C0                      ; entrada:	-
     302.  00:66C0                      ; salida: 	-
     303.  00:66C0                      ; toca:		-
     304.  00:66C0                      inicializa_enemigos_fase5:	;; para no poner más complejo se hace uno por fase que se actualiza al pasar por escaleras o puerta inferior
     305.  00:66C0  3A 04 C0            		LD			 A, (prota_pos_mapy)
     306.  00:66C3  B7                  		OR			 A
     307.  00:66C4                      .nivel0:
     308.  00:66C4  C2 CB 66            		JP			NZ, .nivel1
     309.  00:66C7  CD C1 6B            		CALL		inicializa_enemigos_fase5_nivel0
     310.  00:66CA  C9                  		RET
     311.  00:66CB                      .nivel1:
     312.  00:66CB  3D                  		DEC			 A
     313.  00:66CC  C2 D3 66            		JP			NZ, .nivel2
     314.  00:66CF  CD CC 6B            		CALL		inicializa_enemigos_fase5_nivel1
     315.  00:66D2  C9                  		RET
     316.  00:66D3                      .nivel2:
     317.  00:66D3  3D                  		DEC			 A
     318.  00:66D4  C2 DB 66            		JP			NZ, .nivel3
     319.  00:66D7  CD E1 6B            		CALL		inicializa_enemigos_fase5_nivel2
     320.  00:66DA  C9                  		RET
     321.  00:66DB                      .nivel3:
     322.  00:66DB  3D                  		DEC			 A
     323.  00:66DC  C2 E3 66            		JP			NZ, .nivel4
     324.  00:66DF  CD 00 6C            		CALL		inicializa_enemigos_fase5_nivel3
     325.  00:66E2  C9                  		RET
     326.  00:66E3                      .nivel4:
     327.  00:66E3  3D                  		DEC			 A
     328.  00:66E4  C2 EB 66            		JP			NZ, .nivel5
     329.  00:66E7  CD 29 6C            		CALL		inicializa_enemigos_fase5_nivel4
     330.  00:66EA  C9                  		RET
     331.  00:66EB                      .nivel5:
     332.  00:66EB  3D                  		DEC			 A
     333.  00:66EC  C2 F3 66            		JP			NZ, .nivel6
     334.  00:66EF  CD 5C 6C            		CALL		inicializa_enemigos_fase5_nivel5
     335.  00:66F2  C9                  		RET
     336.  00:66F3                      .nivel6:
     337.  00:66F3  C3 99 6C            		JP			inicializa_enemigos_fase5_niveljefe
     338.  00:66F6                      fin_inicializa_enemigos_fase5:
     339.  00:66F6                      
     340.  00:66F6                      
     341.  00:66F6                      ;;=====================================================
     342.  00:66F6                      ;;INICIALIZA_ENEMIGOS_FASE 6
     343.  00:66F6                      ;;=====================================================	
     344.  00:66F6                      ; función: 	inicializa las variables que serán usadas en el array en la fase
     345.  00:66F6                      ; entrada:	-
     346.  00:66F6                      ; salida: 	-
     347.  00:66F6                      ; toca:		-
     348.  00:66F6                      inicializa_enemigos_fase6:	;; para no poner más complejo se hace uno por fase que se actualiza al pasar por escaleras o puerta inferior
     349.  00:66F6  3A 04 C0            		LD			 A, (prota_pos_mapy)
     350.  00:66F9  B7                  		OR			 A
     351.  00:66FA                      .nivel0:
     352.  00:66FA  C2 01 67            		JP			NZ, .nivel1
     353.  00:66FD  CD A4 6C            		CALL		inicializa_enemigos_fase6_nivel0
     354.  00:6700  C9                  		RET
     355.  00:6701                      .nivel1:
     356.  00:6701  3D                  		DEC			 A
     357.  00:6702  B7                  		OR			 A
     358.  00:6703  C2 0A 67            		JP			NZ, .nivel2
     359.  00:6706  CD B4 6C            		CALL		inicializa_enemigos_fase6_nivel1
     360.  00:6709  C9                  		RET
     361.  00:670A                      .nivel2:
     362.  00:670A  3D                  		DEC			 A
     363.  00:670B  B7                  		OR			 A
     364.  00:670C  C2 13 67            		JP			NZ, .nivel3
     365.  00:670F  CD C4 6C            		CALL		inicializa_enemigos_fase6_nivel2
     366.  00:6712  C9                  		RET
     367.  00:6713                      .nivel3:
     368.  00:6713  3D                  		DEC			 A
     369.  00:6714  B7                  		OR			 A
     370.  00:6715  C2 1C 67            		JP			NZ, .nivel4
     371.  00:6718  CD D4 6C            		CALL		inicializa_enemigos_fase6_nivel3
     372.  00:671B  C9                  		RET
     373.  00:671C                      .nivel4:
     374.  00:671C  3D                  		DEC			 A
     375.  00:671D  B7                  		OR			 A
     376.  00:671E  C2 25 67            		JP			NZ, .nivel5
     377.  00:6721  CD E4 6C            		CALL		inicializa_enemigos_fase6_nivel4
     378.  00:6724  C9                  		RET
     379.  00:6725                      .nivel5:
     380.  00:6725  3D                  		DEC			 A
     381.  00:6726  B7                  		OR			 A
     382.  00:6727  C2 2E 67            		JP			NZ, .nivel6
     383.  00:672A  CD F4 6C            		CALL		inicializa_enemigos_fase6_nivel5
     384.  00:672D  C9                  		RET
     385.  00:672E                      .nivel6:
     386.  00:672E  C3 04 6D            		JP			inicializa_enemigos_fase6_nivel6
     387.  00:6731                      fin_inicializa_enemigos_fase6:
     388.  00:6731                      
     389.  00:6731                      
     390.  00:6731                      ;;=====================================================
     391.  00:6731                      ;;INICIALIZA_ENEMIGOS_FASE0_NIVELX
     392.  00:6731                      ;;=====================================================	
     393.  00:6731                      inicializa_enemigos_fase0_nivel0:
     394.  00:6731  11 55 C0            		LD			DE, enemigo1
     395.  00:6734  CD 36 52            		CALL		anade_enemigo_cienpies
     396.  00:6737  DD 21 55 C0         		LD			IX, enemigo1
     397.  00:673B  C3 3F 52            		JP			actualiza_valores_cienpies
     398.  00:673E                      fin_inicializa_enemigos_fase0_nivel0:
     399.  00:673E                      
     400.  00:673E                      inicializa_enemigos_fase0_nivel1:
     401.  00:673E  11 55 C0            		LD			DE, enemigo1
     402.  00:6741  CD 36 52            		CALL		anade_enemigo_cienpies
     403.  00:6744  DD 21 55 C0         		LD			IX, enemigo1
     404.  00:6748  CD 3F 52            		CALL		actualiza_valores_cienpies
     405.  00:674B                      		
     406.  00:674B  11 69 C0            		LD			DE, enemigo2
     407.  00:674E  CD B8 52            		CALL		anade_enemigo_arana
     408.  00:6751  DD 21 69 C0         		LD			IX, enemigo2
     409.  00:6755  C3 C1 52            		JP			actualiza_valores_arana
     410.  00:6758                      fin_inicializa_enemigos_fase0_nivel1:
     411.  00:6758                      
     412.  00:6758                      inicializa_enemigos_fase0_nivel2:
     413.  00:6758  11 55 C0            		LD			DE, enemigo1
     414.  00:675B  CD 36 52            		CALL		anade_enemigo_cienpies
     415.  00:675E  DD 21 55 C0         		LD			IX, enemigo1
     416.  00:6762  CD 3F 52            		CALL		actualiza_valores_cienpies
     417.  00:6765                      		
     418.  00:6765  11 69 C0            		LD			DE, enemigo2
     419.  00:6768  CD B8 52            		CALL		anade_enemigo_arana
     420.  00:676B  DD 21 69 C0         		LD			IX, enemigo2
     421.  00:676F  CD C1 52            		CALL		actualiza_valores_arana
     422.  00:6772                      		
     423.  00:6772  11 7D C0            		LD			DE, enemigo3
     424.  00:6775  CD ED 53            		CALL		anade_enemigo_serpiente
     425.  00:6778  DD 21 7D C0         		LD			IX, enemigo3
     426.  00:677C                      fin_inicializa_enemigos_fase0_nivel2:
     427.  00:677C  C9                  		RET
     428.  00:677D                      
     429.  00:677D                      inicializa_enemigos_fase0_nivel3:
     430.  00:677D  11 55 C0            		LD			DE, enemigo1
     431.  00:6780  CD 36 52            		CALL		anade_enemigo_cienpies
     432.  00:6783  DD 21 55 C0         		LD			IX, enemigo1
     433.  00:6787  CD 3F 52            		CALL		actualiza_valores_cienpies
     434.  00:678A                      		
     435.  00:678A  11 69 C0            		LD			DE, enemigo2
     436.  00:678D  CD B8 52            		CALL		anade_enemigo_arana
     437.  00:6790  DD 21 69 C0         		LD			IX, enemigo2
     438.  00:6794  CD C1 52            		CALL		actualiza_valores_arana
     439.  00:6797                      		
     440.  00:6797  11 7D C0            		LD			DE, enemigo3
     441.  00:679A  CD ED 53            		CALL		anade_enemigo_serpiente
     442.  00:679D  DD 21 7D C0         		LD			IX, enemigo3
     443.  00:67A1                      		
     444.  00:67A1  11 91 C0            		LD			DE, enemigo4
     445.  00:67A4  CD 47 53            		CALL		anade_enemigo_murcielago
     446.  00:67A7  DD 21 91 C0         		LD			IX, enemigo4
     447.  00:67AB                      fin_inicializa_enemigos_fase0_nivel3:
     448.  00:67AB  C9                  		RET
     449.  00:67AC                      
     450.  00:67AC                      inicializa_enemigos_fase0_nivel4:
     451.  00:67AC  11 55 C0            		LD			DE, enemigo1
     452.  00:67AF  CD 36 52            		CALL		anade_enemigo_cienpies
     453.  00:67B2  DD 21 55 C0         		LD			IX, enemigo1
     454.  00:67B6  CD 3F 52            		CALL		actualiza_valores_cienpies
     455.  00:67B9                      		
     456.  00:67B9  11 69 C0            		LD			DE, enemigo2
     457.  00:67BC  CD B8 52            		CALL		anade_enemigo_arana
     458.  00:67BF  DD 21 69 C0         		LD			IX, enemigo2
     459.  00:67C3  CD C1 52            		CALL		actualiza_valores_arana
     460.  00:67C6                      		
     461.  00:67C6  11 7D C0            		LD			DE, enemigo3
     462.  00:67C9  CD ED 53            		CALL		anade_enemigo_serpiente
     463.  00:67CC  DD 21 7D C0         		LD			IX, enemigo3
     464.  00:67D0                      		
     465.  00:67D0  11 91 C0            		LD			DE, enemigo4
     466.  00:67D3  CD 47 53            		CALL		anade_enemigo_murcielago
     467.  00:67D6  DD 21 91 C0         		LD			IX, enemigo4
     468.  00:67DA                      		
     469.  00:67DA  11 A5 C0            		LD			DE, enemigo5
     470.  00:67DD  CD 8B 54            		CALL		anade_enemigo_lobo
     471.  00:67E0  DD 21 A5 C0         		LD			IX, enemigo5
     472.  00:67E4                      fin_inicializa_enemigos_fase0_nivel4:
     473.  00:67E4  C9                  		RET
     474.  00:67E5                      
     475.  00:67E5                      inicializa_enemigos_fase0_nivel5:
     476.  00:67E5  11 55 C0            		LD			DE, enemigo1
     477.  00:67E8  CD 36 52            		CALL		anade_enemigo_cienpies
     478.  00:67EB  DD 21 55 C0         		LD			IX, enemigo1
     479.  00:67EF  CD 3F 52            		CALL		actualiza_valores_cienpies
     480.  00:67F2                      		
     481.  00:67F2  11 69 C0            		LD			DE, enemigo2
     482.  00:67F5  CD B8 52            		CALL		anade_enemigo_arana
     483.  00:67F8  DD 21 69 C0         		LD			IX, enemigo2
     484.  00:67FC  CD C1 52            		CALL		actualiza_valores_arana
     485.  00:67FF                      		
     486.  00:67FF  11 7D C0            		LD			DE, enemigo3
     487.  00:6802  CD ED 53            		CALL		anade_enemigo_serpiente
     488.  00:6805  DD 21 7D C0         		LD			IX, enemigo3
     489.  00:6809                      		
     490.  00:6809  11 91 C0            		LD			DE, enemigo4
     491.  00:680C  CD 47 53            		CALL		anade_enemigo_murcielago
     492.  00:680F  DD 21 91 C0         		LD			IX, enemigo4
     493.  00:6813                      		
     494.  00:6813  11 A5 C0            		LD			DE, enemigo5
     495.  00:6816  CD 8B 54            		CALL		anade_enemigo_lobo
     496.  00:6819  DD 21 A5 C0         		LD			IX, enemigo5
     497.  00:681D                      fin_inicializa_enemigos_fase0_nivel5:
     498.  00:681D  C9                  		RET
     499.  00:681E                      
     500.  00:681E                      inicializa_enemigos_fase0_niveljefe:	
     501.  00:681E  11 B9 C0            		LD			DE, enemigo6
     502.  00:6821  CD 34 55            		CALL		anade_enemigo_jefelobo
     503.  00:6824  DD 21 B9 C0         		LD			IX, enemigo6
     504.  00:6828                      fin_inicializa_enemigos_fase0_niveljefe:
     505.  00:6828  C9                  		RET
     506.  00:6829                      	
     507.  00:6829                      
     508.  00:6829                      ;;=====================================================
     509.  00:6829                      ;;INICIALIZA_ENEMIGOS_FASE1_NIVELX
     510.  00:6829                      ;;=====================================================	
     511.  00:6829                      inicializa_enemigos_fase1_nivel0:
     512.  00:6829  11 55 C0            		LD			DE, enemigo1
     513.  00:682C  CD ED 53            		CALL		anade_enemigo_serpiente
     514.  00:682F  DD 21 55 C0         		LD			IX, enemigo1
     515.  00:6833                      fin_inicializa_enemigos_fase1_nivel0:
     516.  00:6833  C9                  		RET
     517.  00:6834                      
     518.  00:6834                      inicializa_enemigos_fase1_nivel1:
     519.  00:6834  11 55 C0            		LD			DE, enemigo1
     520.  00:6837  CD ED 53            		CALL		anade_enemigo_serpiente
     521.  00:683A  DD 21 55 C0         		LD			IX, enemigo1
     522.  00:683E                      		
     523.  00:683E  11 69 C0            		LD			DE, enemigo2
     524.  00:6841  CD B8 52            		CALL		anade_enemigo_arana
     525.  00:6844  DD 21 69 C0         		LD			IX, enemigo2
     526.  00:6848  C3 C1 52            		JP			actualiza_valores_arana
     527.  00:684B                      fin_inicializa_enemigos_fase1_nivel1:
     528.  00:684B                      
     529.  00:684B                      inicializa_enemigos_fase1_nivel2:
     530.  00:684B  11 55 C0            		LD			DE, enemigo1
     531.  00:684E  CD ED 53            		CALL		anade_enemigo_serpiente
     532.  00:6851  DD 21 55 C0         		LD			IX, enemigo1
     533.  00:6855                      		
     534.  00:6855  11 69 C0            		LD			DE, enemigo2
     535.  00:6858  CD B8 52            		CALL		anade_enemigo_arana
     536.  00:685B  DD 21 69 C0         		LD			IX, enemigo2
     537.  00:685F  CD C1 52            		CALL		actualiza_valores_arana
     538.  00:6862                      		
     539.  00:6862  11 7D C0            		LD			DE, enemigo3
     540.  00:6865  CD 47 53            		CALL		anade_enemigo_murcielago
     541.  00:6868  DD 21 7D C0         		LD			IX, enemigo3
     542.  00:686C                      fin_inicializa_enemigos_fase1_nivel2:
     543.  00:686C  C9                  		RET
     544.  00:686D                      
     545.  00:686D                      inicializa_enemigos_fase1_nivel3:
     546.  00:686D  11 55 C0            		LD			DE, enemigo1
     547.  00:6870  CD ED 53            		CALL		anade_enemigo_serpiente
     548.  00:6873  DD 21 55 C0         		LD			IX, enemigo1
     549.  00:6877                      		
     550.  00:6877  11 69 C0            		LD			DE, enemigo2
     551.  00:687A  CD B8 52            		CALL		anade_enemigo_arana
     552.  00:687D  DD 21 69 C0         		LD			IX, enemigo2
     553.  00:6881  CD C1 52            		CALL		actualiza_valores_arana
     554.  00:6884                      		
     555.  00:6884  11 7D C0            		LD			DE, enemigo3
     556.  00:6887  CD 47 53            		CALL		anade_enemigo_murcielago
     557.  00:688A  DD 21 7D C0         		LD			IX, enemigo3
     558.  00:688E                      		
     559.  00:688E  11 91 C0            		LD			DE, enemigo4
     560.  00:6891  CD 8B 54            		CALL		anade_enemigo_lobo
     561.  00:6894  DD 21 91 C0         		LD			IX, enemigo4
     562.  00:6898                      fin_inicializa_enemigos_fase1_nivel3:
     563.  00:6898  C9                  		RET
     564.  00:6899                      
     565.  00:6899                      inicializa_enemigos_fase1_nivel4:
     566.  00:6899  11 55 C0            		LD			DE, enemigo1
     567.  00:689C  CD ED 53            		CALL		anade_enemigo_serpiente
     568.  00:689F  DD 21 55 C0         		LD			IX, enemigo1
     569.  00:68A3                      		
     570.  00:68A3  11 69 C0            		LD			DE, enemigo2
     571.  00:68A6  CD B8 52            		CALL		anade_enemigo_arana
     572.  00:68A9  DD 21 69 C0         		LD			IX, enemigo2
     573.  00:68AD  CD C1 52            		CALL		actualiza_valores_arana
     574.  00:68B0                      		
     575.  00:68B0  11 7D C0            		LD			DE, enemigo3
     576.  00:68B3  CD 47 53            		CALL		anade_enemigo_murcielago
     577.  00:68B6  DD 21 7D C0         		LD			IX, enemigo3
     578.  00:68BA                      		
     579.  00:68BA  11 91 C0            		LD			DE, enemigo4
     580.  00:68BD  CD 8B 54            		CALL		anade_enemigo_lobo
     581.  00:68C0  DD 21 91 C0         		LD			IX, enemigo4
     582.  00:68C4                      		
     583.  00:68C4  11 A5 C0            		LD			DE, enemigo5
     584.  00:68C7  CD AC 56            		CALL		anade_enemigo_esqueleto
     585.  00:68CA  DD 21 A5 C0         		LD			IX, enemigo5
     586.  00:68CE                      fin_inicializa_enemigos_fase1_nivel4:
     587.  00:68CE  C9                  		RET
     588.  00:68CF                      
     589.  00:68CF                      inicializa_enemigos_fase1_nivel5: 						
     590.  00:68CF  11 55 C0            		LD			DE, enemigo1
     591.  00:68D2  CD ED 53            		CALL		anade_enemigo_serpiente
     592.  00:68D5  DD 21 55 C0         		LD			IX, enemigo1
     593.  00:68D9                      		
     594.  00:68D9  11 69 C0            		LD			DE, enemigo2
     595.  00:68DC  CD B8 52            		CALL		anade_enemigo_arana
     596.  00:68DF  DD 21 69 C0         		LD			IX, enemigo2
     597.  00:68E3  CD C1 52            		CALL		actualiza_valores_arana
     598.  00:68E6                      		
     599.  00:68E6  11 7D C0            		LD			DE, enemigo3
     600.  00:68E9  CD 47 53            		CALL		anade_enemigo_murcielago
     601.  00:68EC  DD 21 7D C0         		LD			IX, enemigo3
     602.  00:68F0                      		
     603.  00:68F0  11 91 C0            		LD			DE, enemigo4
     604.  00:68F3  CD 8B 54            		CALL		anade_enemigo_lobo
     605.  00:68F6  DD 21 91 C0         		LD			IX, enemigo4
     606.  00:68FA                      		
     607.  00:68FA  11 A5 C0            		LD			DE, enemigo5
     608.  00:68FD  CD AC 56            		CALL		anade_enemigo_esqueleto
     609.  00:6900  DD 21 A5 C0         		LD			IX, enemigo5
     610.  00:6904                      		
     611.  00:6904  11 B9 C0            		LD			DE, enemigo6
     612.  00:6907  CD 34 57            		CALL		anade_enemigo_zombi
     613.  00:690A  DD 21 B9 C0         		LD			IX, enemigo6
     614.  00:690E  C9                  		RET
     615.  00:690F                      fin_inicializa_enemigos_fase1_nivel5:
     616.  00:690F                      
     617.  00:690F                      inicializa_enemigos_fase1_niveljefe:	
     618.  00:690F  11 CD C0            		LD			DE, enemigo7
     619.  00:6912  CD 02 58            		CALL		anade_enemigo_jefemurcielago
     620.  00:6915  DD 21 CD C0         		LD			IX, enemigo7
     621.  00:6919  C3 0B 58            		JP			actualiza_valores_jefemurcielago
     622.  00:691C                      fin_inicializa_enemigos_fase1_niveljefe:
     623.  00:691C                      
     624.  00:691C                      
     625.  00:691C                      ;;=====================================================
     626.  00:691C                      ;;INICIALIZA_ENEMIGOS_FASE2_NIVELX
     627.  00:691C                      ;;=====================================================	
     628.  00:691C                      inicializa_enemigos_fase2_nivel0:
     629.  00:691C  11 55 C0            		LD			DE, enemigo1
     630.  00:691F  CD ED 53            		CALL		anade_enemigo_serpiente
     631.  00:6922  DD 21 55 C0         		LD			IX, enemigo1
     632.  00:6926                      fin_inicializa_enemigos_fase2_nivel0:
     633.  00:6926  C9                  		RET
     634.  00:6927                      
     635.  00:6927                      inicializa_enemigos_fase2_nivel1:
     636.  00:6927  11 55 C0            		LD			DE, enemigo1
     637.  00:692A  CD ED 53            		CALL		anade_enemigo_serpiente
     638.  00:692D  DD 21 55 C0         		LD			IX, enemigo1
     639.  00:6931                      		
     640.  00:6931  11 69 C0            		LD			DE, enemigo2
     641.  00:6934  CD 47 53            		CALL		anade_enemigo_murcielago
     642.  00:6937  DD 21 69 C0         		LD			IX, enemigo2
     643.  00:693B                      fin_inicializa_enemigos_fase2_nivel1:
     644.  00:693B  C9                  		RET
     645.  00:693C                      
     646.  00:693C                      inicializa_enemigos_fase2_nivel2:
     647.  00:693C  11 55 C0            		LD			DE, enemigo1
     648.  00:693F  CD ED 53            		CALL		anade_enemigo_serpiente
     649.  00:6942  DD 21 55 C0         		LD			IX, enemigo1
     650.  00:6946                      		
     651.  00:6946  11 69 C0            		LD			DE, enemigo2
     652.  00:6949  CD 47 53            		CALL		anade_enemigo_murcielago
     653.  00:694C  DD 21 69 C0         		LD			IX, enemigo2
     654.  00:6950                      		
     655.  00:6950  11 7D C0            		LD			DE, enemigo3
     656.  00:6953  CD 8B 54            		CALL		anade_enemigo_lobo
     657.  00:6956  DD 21 7D C0         		LD			IX, enemigo3
     658.  00:695A                      fin_inicializa_enemigos_fase2_nivel2:
     659.  00:695A  C9                  		RET
     660.  00:695B                      
     661.  00:695B                      inicializa_enemigos_fase2_nivel3:
     662.  00:695B  11 55 C0            		LD			DE, enemigo1
     663.  00:695E  CD ED 53            		CALL		anade_enemigo_serpiente
     664.  00:6961  DD 21 55 C0         		LD			IX, enemigo1
     665.  00:6965                      		
     666.  00:6965  11 69 C0            		LD			DE, enemigo2
     667.  00:6968  CD 47 53            		CALL		anade_enemigo_murcielago
     668.  00:696B  DD 21 69 C0         		LD			IX, enemigo2
     669.  00:696F                      		
     670.  00:696F  11 7D C0            		LD			DE, enemigo3
     671.  00:6972  CD 8B 54            		CALL		anade_enemigo_lobo
     672.  00:6975  DD 21 7D C0         		LD			IX, enemigo3
     673.  00:6979                      		
     674.  00:6979  11 91 C0            		LD			DE, enemigo4
     675.  00:697C  CD AC 56            		CALL		anade_enemigo_esqueleto
     676.  00:697F  DD 21 91 C0         		LD			IX, enemigo4
     677.  00:6983                      fin_inicializa_enemigos_fase2_nivel3:
     678.  00:6983  C9                  		RET
     679.  00:6984                      
     680.  00:6984                      inicializa_enemigos_fase2_nivel4:
     681.  00:6984  11 55 C0            		LD			DE, enemigo1
     682.  00:6987  CD ED 53            		CALL		anade_enemigo_serpiente
     683.  00:698A  DD 21 55 C0         		LD			IX, enemigo1
     684.  00:698E                      		
     685.  00:698E  11 69 C0            		LD			DE, enemigo2
     686.  00:6991  CD 47 53            		CALL		anade_enemigo_murcielago
     687.  00:6994  DD 21 69 C0         		LD			IX, enemigo2
     688.  00:6998                      		
     689.  00:6998  11 7D C0            		LD			DE, enemigo3
     690.  00:699B  CD 8B 54            		CALL		anade_enemigo_lobo
     691.  00:699E  DD 21 7D C0         		LD			IX, enemigo3
     692.  00:69A2                      		
     693.  00:69A2  11 91 C0            		LD			DE, enemigo4
     694.  00:69A5  CD AC 56            		CALL		anade_enemigo_esqueleto
     695.  00:69A8  DD 21 91 C0         		LD			IX, enemigo4
     696.  00:69AC                      		
     697.  00:69AC  11 A5 C0            		LD			DE, enemigo5
     698.  00:69AF  CD 34 57            		CALL		anade_enemigo_zombi
     699.  00:69B2  DD 21 A5 C0         		LD			IX, enemigo5
     700.  00:69B6                      fin_inicializa_enemigos_fase2_nivel4:
     701.  00:69B6  C9                  		RET
     702.  00:69B7                      
     703.  00:69B7                      inicializa_enemigos_fase2_nivel5: 							
     704.  00:69B7  11 55 C0            		LD			DE, enemigo1
     705.  00:69BA  CD 47 53            		CALL		anade_enemigo_murcielago
     706.  00:69BD  DD 21 55 C0         		LD			IX, enemigo1
     707.  00:69C1                      		
     708.  00:69C1  11 69 C0            		LD			DE, enemigo2
     709.  00:69C4  CD 8B 54            		CALL		anade_enemigo_lobo
     710.  00:69C7  DD 21 69 C0         		LD			IX, enemigo2
     711.  00:69CB                      		
     712.  00:69CB  11 7D C0            		LD			DE, enemigo3
     713.  00:69CE  CD AC 56            		CALL		anade_enemigo_esqueleto
     714.  00:69D1  DD 21 7D C0         		LD			IX, enemigo3
     715.  00:69D5                      		
     716.  00:69D5  11 91 C0            		LD			DE, enemigo4
     717.  00:69D8  CD 34 57            		CALL		anade_enemigo_zombi
     718.  00:69DB  DD 21 91 C0         		LD			IX, enemigo4
     719.  00:69DF                      		
     720.  00:69DF  11 A5 C0            		LD			DE, enemigo5
     721.  00:69E2  CD 23 59            		CALL		anade_enemigo_fantasma
     722.  00:69E5  DD 21 A5 C0         		LD			IX, enemigo5
     723.  00:69E9                      fin_inicializa_enemigos_fase2_nivel5:
     724.  00:69E9  C9                  		RET
     725.  00:69EA                      
     726.  00:69EA                      inicializa_enemigos_fase2_niveljefe:	
     727.  00:69EA  11 CD C0            		LD			DE, enemigo7
     728.  00:69ED  CD E5 59            		CALL		anade_enemigo_jefefantasma
     729.  00:69F0  DD 21 CD C0         		LD			IX, enemigo7
     730.  00:69F4                      fin_inicializa_enemigos_fase2_niveljefe:
     731.  00:69F4  C9                  		RET
     732.  00:69F5                      
     733.  00:69F5                      
     734.  00:69F5                      ;;=====================================================
     735.  00:69F5                      ;;INICIALIZA_ENEMIGOS_FASE3_NIVELX
     736.  00:69F5                      ;;=====================================================	
     737.  00:69F5                      inicializa_enemigos_fase3_nivel0:
     738.  00:69F5  11 55 C0            		LD			DE, enemigo1
     739.  00:69F8  CD ED 53            		CALL		anade_enemigo_serpiente
     740.  00:69FB  DD 21 55 C0         		LD			IX, enemigo1
     741.  00:69FF                      fin_inicializa_enemigos_fase3_nivel0:
     742.  00:69FF  C9                  		RET
     743.  00:6A00                      
     744.  00:6A00                      inicializa_enemigos_fase3_nivel1:
     745.  00:6A00  11 55 C0            		LD			DE, enemigo1
     746.  00:6A03  CD ED 53            		CALL		anade_enemigo_serpiente
     747.  00:6A06  DD 21 55 C0         		LD			IX, enemigo1
     748.  00:6A0A                      		
     749.  00:6A0A  11 69 C0            		LD			DE, enemigo2
     750.  00:6A0D  CD B8 52            		CALL		anade_enemigo_arana
     751.  00:6A10  DD 21 69 C0         		LD			IX, enemigo2
     752.  00:6A14  C3 C1 52            		JP			actualiza_valores_arana
     753.  00:6A17                      fin_inicializa_enemigos_fase3_nivel1:
     754.  00:6A17                      
     755.  00:6A17                      inicializa_enemigos_fase3_nivel2:
     756.  00:6A17  11 55 C0            		LD			DE, enemigo1
     757.  00:6A1A  CD ED 53            		CALL		anade_enemigo_serpiente
     758.  00:6A1D  DD 21 55 C0         		LD			IX, enemigo1
     759.  00:6A21                      		
     760.  00:6A21  11 69 C0            		LD			DE, enemigo2
     761.  00:6A24  CD B8 52            		CALL		anade_enemigo_arana
     762.  00:6A27  DD 21 69 C0         		LD			IX, enemigo2
     763.  00:6A2B  CD C1 52            		CALL		actualiza_valores_arana
     764.  00:6A2E                      		
     765.  00:6A2E  11 7D C0            		LD			DE, enemigo3
     766.  00:6A31  CD 38 5B            		CALL		anade_enemigo_caballero
     767.  00:6A34  DD 21 7D C0         		LD			IX, enemigo3
     768.  00:6A38                      fin_inicializa_enemigos_fase3_nivel2:
     769.  00:6A38  C9                  		RET
     770.  00:6A39                      
     771.  00:6A39                      inicializa_enemigos_fase3_nivel3:
     772.  00:6A39  11 55 C0            		LD			DE, enemigo1
     773.  00:6A3C  CD ED 53            		CALL		anade_enemigo_serpiente
     774.  00:6A3F  DD 21 55 C0         		LD			IX, enemigo1
     775.  00:6A43                      		
     776.  00:6A43  11 69 C0            		LD			DE, enemigo2
     777.  00:6A46  CD B8 52            		CALL		anade_enemigo_arana
     778.  00:6A49  DD 21 69 C0         		LD			IX, enemigo2
     779.  00:6A4D  CD C1 52            		CALL		actualiza_valores_arana
     780.  00:6A50                      		
     781.  00:6A50  11 7D C0            		LD			DE, enemigo3
     782.  00:6A53  CD 38 5B            		CALL		anade_enemigo_caballero
     783.  00:6A56  DD 21 7D C0         		LD			IX, enemigo3
     784.  00:6A5A                      		
     785.  00:6A5A  11 91 C0            		LD			DE, enemigo4
     786.  00:6A5D  CD AC 56            		CALL		anade_enemigo_esqueleto
     787.  00:6A60  DD 21 91 C0         		LD			IX, enemigo4
     788.  00:6A64                      fin_inicializa_enemigos_fase3_nivel3:
     789.  00:6A64  C9                  		RET
     790.  00:6A65                      
     791.  00:6A65                      inicializa_enemigos_fase3_nivel4:
     792.  00:6A65  11 55 C0            		LD			DE, enemigo1
     793.  00:6A68  CD ED 53            		CALL		anade_enemigo_serpiente
     794.  00:6A6B  DD 21 55 C0         		LD			IX, enemigo1
     795.  00:6A6F                      		
     796.  00:6A6F  11 69 C0            		LD			DE, enemigo2
     797.  00:6A72  CD B8 52            		CALL		anade_enemigo_arana
     798.  00:6A75  DD 21 69 C0         		LD			IX, enemigo2
     799.  00:6A79  CD C1 52            		CALL		actualiza_valores_arana
     800.  00:6A7C                      		
     801.  00:6A7C  11 7D C0            		LD			DE, enemigo3
     802.  00:6A7F  CD 38 5B            		CALL		anade_enemigo_caballero
     803.  00:6A82  DD 21 7D C0         		LD			IX, enemigo3
     804.  00:6A86                      		
     805.  00:6A86  11 91 C0            		LD			DE, enemigo4
     806.  00:6A89  CD AC 56            		CALL		anade_enemigo_esqueleto
     807.  00:6A8C  DD 21 91 C0         		LD			IX, enemigo4
     808.  00:6A90                      		
     809.  00:6A90  11 A5 C0            		LD			DE, enemigo5
     810.  00:6A93  CD 34 57            		CALL		anade_enemigo_zombi
     811.  00:6A96  DD 21 A5 C0         		LD			IX, enemigo5
     812.  00:6A9A                      fin_inicializa_enemigos_fase3_nivel4:
     813.  00:6A9A  C9                  		RET
     814.  00:6A9B                      
     815.  00:6A9B                      inicializa_enemigos_fase3_nivel5: 							
     816.  00:6A9B  11 55 C0            		LD			DE, enemigo1
     817.  00:6A9E  CD ED 53            		CALL		anade_enemigo_serpiente
     818.  00:6AA1  DD 21 55 C0         		LD			IX, enemigo1
     819.  00:6AA5                      		
     820.  00:6AA5  11 69 C0            		LD			DE, enemigo2
     821.  00:6AA8  CD B8 52            		CALL		anade_enemigo_arana
     822.  00:6AAB  DD 21 69 C0         		LD			IX, enemigo2
     823.  00:6AAF  CD C1 52            		CALL		actualiza_valores_arana
     824.  00:6AB2                      		
     825.  00:6AB2  11 7D C0            		LD			DE, enemigo3
     826.  00:6AB5  CD 38 5B            		CALL		anade_enemigo_caballero
     827.  00:6AB8  DD 21 7D C0         		LD			IX, enemigo3
     828.  00:6ABC                      		
     829.  00:6ABC  11 91 C0            		LD			DE, enemigo4
     830.  00:6ABF  CD 34 57            		CALL		anade_enemigo_zombi
     831.  00:6AC2  DD 21 91 C0         		LD			IX, enemigo4
     832.  00:6AC6                      		
     833.  00:6AC6  11 A5 C0            		LD			DE, enemigo5
     834.  00:6AC9  CD 23 59            		CALL		anade_enemigo_fantasma
     835.  00:6ACC  DD 21 A5 C0         		LD			IX, enemigo5
     836.  00:6AD0                      fin_inicializa_enemigos_fase3_nivel5:
     837.  00:6AD0  C9                  		RET
     838.  00:6AD1                      
     839.  00:6AD1                      inicializa_enemigos_fase3_niveljefe:	
     840.  00:6AD1  11 CD C0            		LD			DE, enemigo7
     841.  00:6AD4  CD E1 5B            		CALL		anade_enemigo_jefezombi
     842.  00:6AD7  DD 21 CD C0         		LD			IX, enemigo7
     843.  00:6ADB                      fin_inicializa_enemigos_fase3_niveljefe:
     844.  00:6ADB  C9                  		RET
     845.  00:6ADC                      
     846.  00:6ADC                      
     847.  00:6ADC                      ;;=====================================================
     848.  00:6ADC                      ;;INICIALIZA_ENEMIGOS_FASE4_NIVELX
     849.  00:6ADC                      ;;=====================================================	
     850.  00:6ADC                      inicializa_enemigos_fase4_nivel0:
     851.  00:6ADC  11 55 C0            		LD			DE, enemigo1
     852.  00:6ADF  CD 47 53            		CALL		anade_enemigo_murcielago
     853.  00:6AE2  DD 21 55 C0         		LD			IX, enemigo1
     854.  00:6AE6                      fin_inicializa_enemigos_fase4_nivel0:
     855.  00:6AE6  C9                  		RET
     856.  00:6AE7                      
     857.  00:6AE7                      inicializa_enemigos_fase4_nivel1:
     858.  00:6AE7  11 55 C0            		LD			DE, enemigo1
     859.  00:6AEA  CD 47 53            		CALL		anade_enemigo_murcielago
     860.  00:6AED  DD 21 55 C0         		LD			IX, enemigo1
     861.  00:6AF1                      		
     862.  00:6AF1  11 69 C0            		LD			DE, enemigo2
     863.  00:6AF4  CD 38 5B            		CALL		anade_enemigo_caballero
     864.  00:6AF7  DD 21 69 C0         		LD			IX, enemigo2
     865.  00:6AFB                      fin_inicializa_enemigos_fase4_nivel1:
     866.  00:6AFB  C9                  		RET
     867.  00:6AFC                      
     868.  00:6AFC                      inicializa_enemigos_fase4_nivel2:
     869.  00:6AFC  11 55 C0            		LD			DE, enemigo1
     870.  00:6AFF  CD 47 53            		CALL		anade_enemigo_murcielago
     871.  00:6B02  DD 21 55 C0         		LD			IX, enemigo1
     872.  00:6B06                      		
     873.  00:6B06  11 69 C0            		LD			DE, enemigo2
     874.  00:6B09  CD 38 5B            		CALL		anade_enemigo_caballero
     875.  00:6B0C  DD 21 69 C0         		LD			IX, enemigo2
     876.  00:6B10                      		
     877.  00:6B10  11 7D C0            		LD			DE, enemigo3
     878.  00:6B13  CD AC 56            		CALL		anade_enemigo_esqueleto
     879.  00:6B16  DD 21 7D C0         		LD			IX, enemigo3
     880.  00:6B1A                      fin_inicializa_enemigos_fase4_nivel2:
     881.  00:6B1A  C9                  		RET
     882.  00:6B1B                      
     883.  00:6B1B                      inicializa_enemigos_fase4_nivel3:
     884.  00:6B1B  11 55 C0            		LD			DE, enemigo1
     885.  00:6B1E  CD 47 53            		CALL		anade_enemigo_murcielago
     886.  00:6B21  DD 21 55 C0         		LD			IX, enemigo1
     887.  00:6B25                      		
     888.  00:6B25  11 69 C0            		LD			DE, enemigo2
     889.  00:6B28  CD 38 5B            		CALL		anade_enemigo_caballero
     890.  00:6B2B  DD 21 69 C0         		LD			IX, enemigo2
     891.  00:6B2F                      		
     892.  00:6B2F  11 7D C0            		LD			DE, enemigo3
     893.  00:6B32  CD AC 56            		CALL		anade_enemigo_esqueleto
     894.  00:6B35  DD 21 7D C0         		LD			IX, enemigo3
     895.  00:6B39                      		
     896.  00:6B39  11 91 C0            		LD			DE, enemigo4
     897.  00:6B3C  CD 34 57            		CALL		anade_enemigo_zombi
     898.  00:6B3F  DD 21 91 C0         		LD			IX, enemigo4
     899.  00:6B43                      fin_inicializa_enemigos_fase4_nivel3:
     900.  00:6B43  C9                  		RET
     901.  00:6B44                      
     902.  00:6B44                      inicializa_enemigos_fase4_nivel4:
     903.  00:6B44  11 55 C0            		LD			DE, enemigo1
     904.  00:6B47  CD 47 53            		CALL		anade_enemigo_murcielago
     905.  00:6B4A  DD 21 55 C0         		LD			IX, enemigo1
     906.  00:6B4E                      		
     907.  00:6B4E  11 69 C0            		LD			DE, enemigo2
     908.  00:6B51  CD 38 5B            		CALL		anade_enemigo_caballero
     909.  00:6B54  DD 21 69 C0         		LD			IX, enemigo2
     910.  00:6B58                      		
     911.  00:6B58  11 7D C0            		LD			DE, enemigo3
     912.  00:6B5B  CD AC 56            		CALL		anade_enemigo_esqueleto
     913.  00:6B5E  DD 21 7D C0         		LD			IX, enemigo3
     914.  00:6B62                      		
     915.  00:6B62  11 91 C0            		LD			DE, enemigo4
     916.  00:6B65  CD 34 57            		CALL		anade_enemigo_zombi
     917.  00:6B68  DD 21 91 C0         		LD			IX, enemigo4
     918.  00:6B6C                      		
     919.  00:6B6C  11 A5 C0            		LD			DE, enemigo5
     920.  00:6B6F  CD 23 59            		CALL		anade_enemigo_fantasma
     921.  00:6B72  DD 21 A5 C0         		LD			IX, enemigo5
     922.  00:6B76                      fin_inicializa_enemigos_fase4_nivel4:
     923.  00:6B76  C9                  		RET
     924.  00:6B77                      
     925.  00:6B77                      inicializa_enemigos_fase4_nivel5: 							
     926.  00:6B77  11 55 C0            		LD			DE, enemigo1
     927.  00:6B7A  CD 47 53            		CALL		anade_enemigo_murcielago
     928.  00:6B7D  DD 21 55 C0         		LD			IX, enemigo1
     929.  00:6B81                      		
     930.  00:6B81  11 69 C0            		LD			DE, enemigo2
     931.  00:6B84  CD 38 5B            		CALL		anade_enemigo_caballero
     932.  00:6B87  DD 21 69 C0         		LD			IX, enemigo2
     933.  00:6B8B                      		
     934.  00:6B8B  11 7D C0            		LD			DE, enemigo3
     935.  00:6B8E  CD AC 56            		CALL		anade_enemigo_esqueleto
     936.  00:6B91  DD 21 7D C0         		LD			IX, enemigo3
     937.  00:6B95                      		
     938.  00:6B95  11 91 C0            		LD			DE, enemigo4
     939.  00:6B98  CD 34 57            		CALL		anade_enemigo_zombi
     940.  00:6B9B  DD 21 91 C0         		LD			IX, enemigo4
     941.  00:6B9F                      		
     942.  00:6B9F  11 A5 C0            		LD			DE, enemigo5
     943.  00:6BA2  CD 23 59            		CALL		anade_enemigo_fantasma
     944.  00:6BA5  DD 21 A5 C0         		LD			IX, enemigo5
     945.  00:6BA9                      		
     946.  00:6BA9  11 B9 C0            		LD			DE, enemigo6
     947.  00:6BAC  CD E7 5C            		CALL		anade_enemigo_fuego
     948.  00:6BAF  DD 21 B9 C0         		LD			IX, enemigo6
     949.  00:6BB3                      fin_inicializa_enemigos_fase4_nivel5:
     950.  00:6BB3  C9                  		RET
     951.  00:6BB4                      
     952.  00:6BB4                      inicializa_enemigos_fase4_niveljefe:	
     953.  00:6BB4  11 CD C0            		LD			DE, enemigo7
     954.  00:6BB7  CD B6 5D            		CALL		anade_enemigo_jefecaballero
     955.  00:6BBA  DD 21 CD C0         		LD			IX, enemigo7
     956.  00:6BBE  C3 BF 5D            		JP		actualiza_valores_jefecaballero
     957.  00:6BC1                      fin_inicializa_enemigos_fase4_niveljefe:
     958.  00:6BC1                      
     959.  00:6BC1                      
     960.  00:6BC1                      ;;=====================================================
     961.  00:6BC1                      ;;INICIALIZA_ENEMIGOS_FASE5_NIVELX
     962.  00:6BC1                      ;;=====================================================	
     963.  00:6BC1                      inicializa_enemigos_fase5_nivel0:
     964.  00:6BC1  11 55 C0            		LD			DE, enemigo1
     965.  00:6BC4  CD 91 5F            		CALL		anade_enemigo_magia
     966.  00:6BC7  DD 21 55 C0         		LD			IX, enemigo1
     967.  00:6BCB                      fin_inicializa_enemigos_fase5_nivel0:
     968.  00:6BCB  C9                  		RET
     969.  00:6BCC                      
     970.  00:6BCC                      inicializa_enemigos_fase5_nivel1:
     971.  00:6BCC  11 55 C0            		LD			DE, enemigo1
     972.  00:6BCF  CD 91 5F            		CALL		anade_enemigo_magia
     973.  00:6BD2  DD 21 55 C0         		LD			IX, enemigo1
     974.  00:6BD6                      		
     975.  00:6BD6  11 69 C0            		LD			DE, enemigo2
     976.  00:6BD9  CD 38 5B            		CALL		anade_enemigo_caballero
     977.  00:6BDC  DD 21 69 C0         		LD			IX, enemigo2
     978.  00:6BE0                      fin_inicializa_enemigos_fase5_nivel1:
     979.  00:6BE0  C9                  		RET
     980.  00:6BE1                      
     981.  00:6BE1                      inicializa_enemigos_fase5_nivel2:
     982.  00:6BE1  11 55 C0            		LD			DE, enemigo1
     983.  00:6BE4  CD 91 5F            		CALL		anade_enemigo_magia
     984.  00:6BE7  DD 21 55 C0         		LD			IX, enemigo1
     985.  00:6BEB                      		
     986.  00:6BEB  11 69 C0            		LD			DE, enemigo2
     987.  00:6BEE  CD 38 5B            		CALL		anade_enemigo_caballero
     988.  00:6BF1  DD 21 69 C0         		LD			IX, enemigo2
     989.  00:6BF5                      		
     990.  00:6BF5  11 7D C0            		LD			DE, enemigo3
     991.  00:6BF8  CD AC 56            		CALL		anade_enemigo_esqueleto
     992.  00:6BFB  DD 21 7D C0         		LD			IX, enemigo3
     993.  00:6BFF                      fin_inicializa_enemigos_fase5_nivel2:
     994.  00:6BFF  C9                  		RET
     995.  00:6C00                      
     996.  00:6C00                      inicializa_enemigos_fase5_nivel3:
     997.  00:6C00  11 55 C0            		LD			DE, enemigo1
     998.  00:6C03  CD 91 5F            		CALL		anade_enemigo_magia
     999.  00:6C06  DD 21 55 C0         		LD			IX, enemigo1
    1000.  00:6C0A                      		
    1001.  00:6C0A  11 69 C0            		LD			DE, enemigo2
    1002.  00:6C0D  CD 38 5B            		CALL		anade_enemigo_caballero
    1003.  00:6C10  DD 21 69 C0         		LD			IX, enemigo2
    1004.  00:6C14                      		
    1005.  00:6C14  11 7D C0            		LD			DE, enemigo3
    1006.  00:6C17  CD AC 56            		CALL		anade_enemigo_esqueleto
    1007.  00:6C1A  DD 21 7D C0         		LD			IX, enemigo3
    1008.  00:6C1E                      		
    1009.  00:6C1E  11 91 C0            		LD			DE, enemigo4
    1010.  00:6C21  CD 34 57            		CALL		anade_enemigo_zombi
    1011.  00:6C24  DD 21 91 C0         		LD			IX, enemigo4
    1012.  00:6C28                      fin_inicializa_enemigos_fase5_nivel3:
    1013.  00:6C28  C9                  		RET
    1014.  00:6C29                      
    1015.  00:6C29                      inicializa_enemigos_fase5_nivel4:
    1016.  00:6C29  11 55 C0            		LD			DE, enemigo1
    1017.  00:6C2C  CD 91 5F            		CALL		anade_enemigo_magia
    1018.  00:6C2F  DD 21 55 C0         		LD			IX, enemigo1
    1019.  00:6C33                      		
    1020.  00:6C33  11 69 C0            		LD			DE, enemigo2
    1021.  00:6C36  CD 38 5B            		CALL		anade_enemigo_caballero
    1022.  00:6C39  DD 21 69 C0         		LD			IX, enemigo2
    1023.  00:6C3D                      		
    1024.  00:6C3D  11 7D C0            		LD			DE, enemigo3
    1025.  00:6C40  CD AC 56            		CALL		anade_enemigo_esqueleto
    1026.  00:6C43  DD 21 7D C0         		LD			IX, enemigo3
    1027.  00:6C47                      		
    1028.  00:6C47  11 91 C0            		LD			DE, enemigo4
    1029.  00:6C4A  CD 34 57            		CALL		anade_enemigo_zombi
    1030.  00:6C4D  DD 21 91 C0         		LD			IX, enemigo4
    1031.  00:6C51                      		
    1032.  00:6C51  11 A5 C0            		LD			DE, enemigo5
    1033.  00:6C54  CD 23 59            		CALL		anade_enemigo_fantasma
    1034.  00:6C57  DD 21 A5 C0         		LD			IX, enemigo5
    1035.  00:6C5B                      fin_inicializa_enemigos_fase5_nivel4:
    1036.  00:6C5B  C9                  		RET
    1037.  00:6C5C                      
    1038.  00:6C5C                      inicializa_enemigos_fase5_nivel5: 							
    1039.  00:6C5C  11 55 C0            		LD			DE, enemigo1
    1040.  00:6C5F  CD 91 5F            		CALL		anade_enemigo_magia
    1041.  00:6C62  DD 21 55 C0         		LD			IX, enemigo1
    1042.  00:6C66                      		
    1043.  00:6C66  11 69 C0            		LD			DE, enemigo2
    1044.  00:6C69  CD 38 5B            		CALL		anade_enemigo_caballero
    1045.  00:6C6C  DD 21 69 C0         		LD			IX, enemigo2
    1046.  00:6C70                      		
    1047.  00:6C70  11 7D C0            		LD			DE, enemigo3
    1048.  00:6C73  CD AC 56            		CALL		anade_enemigo_esqueleto
    1049.  00:6C76  DD 21 7D C0         		LD			IX, enemigo3
    1050.  00:6C7A                      		
    1051.  00:6C7A  11 91 C0            		LD			DE, enemigo4
    1052.  00:6C7D  CD 34 57            		CALL		anade_enemigo_zombi
    1053.  00:6C80  DD 21 91 C0         		LD			IX, enemigo4
    1054.  00:6C84                      		
    1055.  00:6C84  11 A5 C0            		LD			DE, enemigo5
    1056.  00:6C87  CD 23 59            		CALL		anade_enemigo_fantasma
    1057.  00:6C8A  DD 21 A5 C0         		LD			IX, enemigo5
    1058.  00:6C8E                      		
    1059.  00:6C8E  11 B9 C0            		LD			DE, enemigo6
    1060.  00:6C91  CD E7 5C            		CALL		anade_enemigo_fuego
    1061.  00:6C94  DD 21 B9 C0         		LD			IX, enemigo6
    1062.  00:6C98                      fin_inicializa_enemigos_fase5_nivel5:
    1063.  00:6C98  C9                  		RET
    1064.  00:6C99                      
    1065.  00:6C99                      inicializa_enemigos_fase5_niveljefe:	
    1066.  00:6C99  11 CD C0            		LD			DE, enemigo7
    1067.  00:6C9C  CD 33 61            		CALL		anade_enemigo_jefebeholder
    1068.  00:6C9F  DD 21 CD C0         		LD			IX, enemigo7
    1069.  00:6CA3                      fin_inicializa_enemigos_fase5_niveljefe:
    1070.  00:6CA3  C9                  		RET
    1071.  00:6CA4                      
    1072.  00:6CA4                      
    1073.  00:6CA4                      ;;=====================================================
    1074.  00:6CA4                      ;;INICIALIZA_ENEMIGOS_FASE6_NIVELX
    1075.  00:6CA4                      ;;=====================================================	
    1076.  00:6CA4                      inicializa_enemigos_fase6_nivel0:
    1077.  00:6CA4  CD 6F 4D            		CALL		carga_patrones_sprites_nivel6_nivel0
    1078.  00:6CA7  11 55 C0            		LD			DE, enemigo1
    1079.  00:6CAA  CD 34 55            		CALL		anade_enemigo_jefelobo
    1080.  00:6CAD  DD 21 55 C0         		LD			IX, enemigo1
    1081.  00:6CB1  C3 3D 55            		JP			actualiza_valores_jefelobo_BR
    1082.  00:6CB4                      fin_inicializa_enemigos_fase6_nivel0:
    1083.  00:6CB4                      
    1084.  00:6CB4                      
    1085.  00:6CB4                      inicializa_enemigos_fase6_nivel1:
    1086.  00:6CB4  CD 72 4D            		CALL		carga_patrones_sprites_nivel6_nivel1
    1087.  00:6CB7  11 55 C0            		LD			DE, enemigo1
    1088.  00:6CBA  CD 02 58            		CALL		anade_enemigo_jefemurcielago
    1089.  00:6CBD  DD 21 55 C0         		LD			IX, enemigo1
    1090.  00:6CC1  C3 0B 58            		JP			actualiza_valores_jefemurcielago
    1091.  00:6CC4                      fin_inicializa_enemigos_fase6_nivel1:
    1092.  00:6CC4                      
    1093.  00:6CC4                      inicializa_enemigos_fase6_nivel2:
    1094.  00:6CC4  CD 75 4D            		CALL		carga_patrones_sprites_nivel6_nivel2
    1095.  00:6CC7  11 55 C0            		LD			DE, enemigo1
    1096.  00:6CCA  CD E5 59            		CALL		anade_enemigo_jefefantasma
    1097.  00:6CCD  DD 21 55 C0         		LD			IX, enemigo1
    1098.  00:6CD1  C3 EE 59            		JP			actualiza_valores_jefefantasma_BR
    1099.  00:6CD4                      fin_inicializa_enemigos_fase6_nivel2:
    1100.  00:6CD4                      
    1101.  00:6CD4                      inicializa_enemigos_fase6_nivel3:
    1102.  00:6CD4  CD 78 4D            		CALL		carga_patrones_sprites_nivel6_nivel3
    1103.  00:6CD7  11 55 C0            		LD			DE, enemigo1
    1104.  00:6CDA  CD E1 5B            		CALL		anade_enemigo_jefezombi
    1105.  00:6CDD  DD 21 55 C0         		LD			IX, enemigo1
    1106.  00:6CE1  C3 EA 5B            		JP			actualiza_valores_jefezombi_BR
    1107.  00:6CE4                      fin_inicializa_enemigos_fase6_nivel3:
    1108.  00:6CE4                      
    1109.  00:6CE4                      inicializa_enemigos_fase6_nivel4:
    1110.  00:6CE4  CD 7B 4D            		CALL		carga_patrones_sprites_nivel6_nivel4
    1111.  00:6CE7  11 55 C0            		LD			DE, enemigo1
    1112.  00:6CEA  CD B6 5D            		CALL		anade_enemigo_jefecaballero
    1113.  00:6CED  DD 21 55 C0         		LD			IX, enemigo1
    1114.  00:6CF1  C3 BF 5D            		JP			actualiza_valores_jefecaballero
    1115.  00:6CF4                      fin_inicializa_enemigos_fase6_nivel4:
    1116.  00:6CF4                      
    1117.  00:6CF4                      inicializa_enemigos_fase6_nivel5: 						
    1118.  00:6CF4  CD 7E 4D            		CALL		carga_patrones_sprites_nivel6_nivel5
    1119.  00:6CF7  11 55 C0            		LD			DE, enemigo1
    1120.  00:6CFA  CD 33 61            		CALL		anade_enemigo_jefebeholder
    1121.  00:6CFD  DD 21 55 C0         		LD			IX, enemigo1
    1122.  00:6D01  C3 3C 61            		JP			actualiza_valores_jefebeholder_BR
    1123.  00:6D04                      fin_inicializa_enemigos_fase6_nivel5:
    1124.  00:6D04                      
    1125.  00:6D04                      inicializa_enemigos_fase6_nivel6:
    1126.  00:6D04  CD 81 4D            		CALL		carga_patrones_sprites_nivel6_nivel6
    1127.  00:6D07                      		
    1128.  00:6D07  11 55 C0            		LD			DE, enemigo1
    1129.  00:6D0A  CD 5E 62            		CALL		anade_enemigo_dracula
    1130.  00:6D0D  DD 21 55 C0         		LD			IX, enemigo1
    1131.  00:6D11                      		
    1132.  00:6D11  11 69 C0            		LD			DE, enemigo2
    1133.  00:6D14  CD C3 64            		CALL		anade_enemigo_manoi
    1134.  00:6D17  DD 21 69 C0         		LD			IX, enemigo2
    1135.  00:6D1B                      		
    1136.  00:6D1B  11 7D C0            		LD			DE, enemigo3
    1137.  00:6D1E  CD 6B 63            		CALL		anade_enemigo_manod
    1138.  00:6D21  DD 21 7D C0         		LD			IX, enemigo3
    1139.  00:6D25                      fin_inicializa_enemigos_fase6_nivel6:
    1140.  00:6D25  C9                  		RET
    1141.  00:6D26                      
    1142.  00:6D26                      
    1143.  00:6D26                      ;;=====================================================
    1144.  00:6D26                      ;;CHECK_ENEMIGOS
    1145.  00:6D26                      ;;=====================================================	
    1146.  00:6D26                      check_enemigos:
    1147.  00:6D26  3A 00 C0            		LD			 A, (prota_nivel)
    1148.  00:6D29                      .mira_nivel0		
    1149.  00:6D29  B7                  		OR			 A
    1150.  00:6D2A  C2 31 6D            		JP			NZ, .mira_nivel1
    1151.  00:6D2D  CD 5C 6D            		CALL		check_enemigos_fase0
    1152.  00:6D30  C9                  		RET
    1153.  00:6D31                      .mira_nivel1:
    1154.  00:6D31  3D                  		DEC			 A
    1155.  00:6D32  C2 39 6D            		JP			NZ, .mira_nivel2
    1156.  00:6D35  CD C7 6D            		CALL		check_enemigos_fase1
    1157.  00:6D38  C9                  		RET		
    1158.  00:6D39                      .mira_nivel2:
    1159.  00:6D39  3D                  		DEC			 A
    1160.  00:6D3A  C2 41 6D            		JP			NZ, .mira_nivel3
    1161.  00:6D3D  CD 44 6E            		CALL		check_enemigos_fase2
    1162.  00:6D40  C9                  		RET	
    1163.  00:6D41                      .mira_nivel3:
    1164.  00:6D41  3D                  		DEC			 A
    1165.  00:6D42  C2 49 6D            		JP			NZ, .mira_nivel4
    1166.  00:6D45  CD C1 6E            		CALL		check_enemigos_fase3
    1167.  00:6D48  C9                  		RET	
    1168.  00:6D49                      .mira_nivel4:
    1169.  00:6D49  3D                  		DEC			 A
    1170.  00:6D4A  C2 51 6D            		JP			NZ, .mira_nivel5
    1171.  00:6D4D  CD 3E 6F            		CALL		check_enemigos_fase4
    1172.  00:6D50  C9                  		RET	
    1173.  00:6D51                      .mira_nivel5:
    1174.  00:6D51  3D                  		DEC			 A
    1175.  00:6D52  C2 59 6D            		JP			NZ, .mira_nivel6
    1176.  00:6D55  CD BB 6F            		CALL		check_enemigos_fase5
    1177.  00:6D58  C9                  		RET	
    1178.  00:6D59                      .mira_nivel6:
    1179.  00:6D59  C3 38 70            		JP		check_enemigos_fase6
    1180.  00:6D5C                      fin_check_enemigos:
    1181.  00:6D5C                      
    1182.  00:6D5C                      
    1183.  00:6D5C                      
    1184.  00:6D5C                      ;;=====================================================
    1185.  00:6D5C                      ;;CHECK_ENEMIGOS_FASE0
    1186.  00:6D5C                      ;;=====================================================	
    1187.  00:6D5C                      check_enemigos_fase0: ;; aquí se ponen los valores de enemigos (si están activos) en el array de sprites para renderizar
    1188.  00:6D5C                      .check_enemigo1:
    1189.  00:6D5C  DD 21 55 C0         		LD			IX, enemigo1
    1190.  00:6D60  DD 7E 00            		LD			 A, (IX)
    1191.  00:6D63  B7                  		OR			 A
    1192.  00:6D64  CA 6E 6D            		JP			 Z, .check_enemigo2
    1193.  00:6D67                      		
    1194.  00:6D67  FD 21 E9 C0         		LD			IY, array_sprites_enem
    1195.  00:6D6B                      		
    1196.  00:6D6B  CD 6D 70            		CALL 		mueve_enemigo
    1197.  00:6D6E                      		;acciones enemigos
    1198.  00:6D6E                      .check_enemigo2:
    1199.  00:6D6E  DD 21 69 C0         		LD			IX, enemigo2
    1200.  00:6D72  DD 7E 00            		LD			 A, (IX)
    1201.  00:6D75  B7                  		OR			 A
    1202.  00:6D76  CA 80 6D            		JP			 Z, .check_enemigo3
    1203.  00:6D79                      		
    1204.  00:6D79  FD 21 ED C0         		LD			IY, array_sprites_enem + 4
    1205.  00:6D7D                      		
    1206.  00:6D7D  CD 6D 70            		CALL 		mueve_enemigo
    1207.  00:6D80                      		;acciones enemigos
    1208.  00:6D80                      .check_enemigo3:
    1209.  00:6D80  DD 21 7D C0         		LD			IX, enemigo3
    1210.  00:6D84  DD 7E 00            		LD			 A, (IX)
    1211.  00:6D87  B7                  		OR			 A
    1212.  00:6D88  CA 92 6D            		JP			 Z, .check_enemigo4
    1213.  00:6D8B                      		
    1214.  00:6D8B  FD 21 F1 C0         		LD			IY, array_sprites_enem + 8
    1215.  00:6D8F                      		
    1216.  00:6D8F  CD 6D 70            		CALL 		mueve_enemigo
    1217.  00:6D92                      		;acciones enemigos
    1218.  00:6D92                      .check_enemigo4:
    1219.  00:6D92  DD 21 91 C0         		LD			IX, enemigo4
    1220.  00:6D96  DD 7E 00            		LD			 A, (IX)
    1221.  00:6D99  B7                  		OR			 A
    1222.  00:6D9A  CA A4 6D            		JP			 Z, .check_enemigo5
    1223.  00:6D9D                      		
    1224.  00:6D9D  FD 21 F9 C0         		LD			IY, array_sprites_enem + 16
    1225.  00:6DA1                      
    1226.  00:6DA1  CD 6D 70            		CALL 		mueve_enemigo
    1227.  00:6DA4                      		;acciones enemigos
    1228.  00:6DA4                      .check_enemigo5:
    1229.  00:6DA4  DD 21 A5 C0         		LD			IX, enemigo5
    1230.  00:6DA8  DD 7E 00            		LD			 A, (IX)
    1231.  00:6DAB  B7                  		OR			 A
    1232.  00:6DAC  CA B6 6D            		JP			 Z, .check_enemigo6
    1233.  00:6DAF                      		
    1234.  00:6DAF  FD 21 FD C0         		LD			IY, array_sprites_enem + 20
    1235.  00:6DB3                      
    1236.  00:6DB3  CD 6D 70            		CALL 		mueve_enemigo
    1237.  00:6DB6                      		;acciones enemigos
    1238.  00:6DB6                      .check_enemigo6:
    1239.  00:6DB6  DD 21 B9 C0         		LD			IX, enemigo6
    1240.  00:6DBA  DD 7E 00            		LD			 A, (IX)
    1241.  00:6DBD  B7                  		OR			 A
    1242.  00:6DBE  C8                  		RET			 Z
    1243.  00:6DBF                      		
    1244.  00:6DBF  FD 21 01 C1         		LD			IY, array_sprites_enem + 24
    1245.  00:6DC3                      		
    1246.  00:6DC3  CD 6D 70            		CALL 		mueve_enemigo
    1247.  00:6DC6                      		;acciones enemigos
    1248.  00:6DC6                      fin_check_enemigos_fase0:
    1249.  00:6DC6  C9                  		RET			
    1250.  00:6DC7                      
    1251.  00:6DC7                      
    1252.  00:6DC7                      ;;=====================================================
    1253.  00:6DC7                      ;;CHECK_ENEMIGOS_FASE1
    1254.  00:6DC7                      ;;=====================================================	
    1255.  00:6DC7                      check_enemigos_fase1: ;; aquí se ponen los valores de enemigos (si están activos) en el array de sprites para renderizar
    1256.  00:6DC7                      .check_enemigo1:
    1257.  00:6DC7  DD 21 55 C0         		LD			IX, enemigo1
    1258.  00:6DCB  DD 7E 00            		LD			 A, (IX)
    1259.  00:6DCE  B7                  		OR			 A
    1260.  00:6DCF  CA D9 6D            		JP			 Z, .check_enemigo2
    1261.  00:6DD2                      		
    1262.  00:6DD2  FD 21 E9 C0         		LD			IY, array_sprites_enem
    1263.  00:6DD6                      		
    1264.  00:6DD6  CD 6D 70            		CALL 		mueve_enemigo
    1265.  00:6DD9                      		;acciones enemigos
    1266.  00:6DD9                      .check_enemigo2:
    1267.  00:6DD9  DD 21 69 C0         		LD			IX, enemigo2
    1268.  00:6DDD  DD 7E 00            		LD			 A, (IX)
    1269.  00:6DE0  B7                  		OR			 A
    1270.  00:6DE1  CA EB 6D            		JP			 Z, .check_enemigo3
    1271.  00:6DE4                      		
    1272.  00:6DE4  FD 21 ED C0         		LD			IY, array_sprites_enem + 4
    1273.  00:6DE8                      		
    1274.  00:6DE8  CD 6D 70            		CALL 		mueve_enemigo
    1275.  00:6DEB                      		;acciones enemigos
    1276.  00:6DEB                      .check_enemigo3:
    1277.  00:6DEB  DD 21 7D C0         		LD			IX, enemigo3
    1278.  00:6DEF  DD 7E 00            		LD			 A, (IX)
    1279.  00:6DF2  B7                  		OR			 A
    1280.  00:6DF3  CA FD 6D            		JP			 Z, .check_enemigo4
    1281.  00:6DF6                      		
    1282.  00:6DF6  FD 21 F1 C0         		LD			IY, array_sprites_enem + 8
    1283.  00:6DFA                      		
    1284.  00:6DFA  CD 6D 70            		CALL 		mueve_enemigo
    1285.  00:6DFD                      		;acciones enemigos
    1286.  00:6DFD                      .check_enemigo4:
    1287.  00:6DFD  DD 21 91 C0         		LD			IX, enemigo4
    1288.  00:6E01  DD 7E 00            		LD			 A, (IX)
    1289.  00:6E04  B7                  		OR			 A
    1290.  00:6E05  CA 0F 6E            		JP			 Z, .check_enemigo5
    1291.  00:6E08                      		
    1292.  00:6E08  FD 21 F9 C0         		LD			IY, array_sprites_enem + 16
    1293.  00:6E0C                      		
    1294.  00:6E0C  CD 6D 70            		CALL 		mueve_enemigo
    1295.  00:6E0F                      		;acciones enemigos
    1296.  00:6E0F                      .check_enemigo5:
    1297.  00:6E0F  DD 21 A5 C0         		LD			IX, enemigo5
    1298.  00:6E13  DD 7E 00            		LD			 A, (IX)
    1299.  00:6E16  B7                  		OR			 A
    1300.  00:6E17  CA 21 6E            		JP			 Z, .check_enemigo6
    1301.  00:6E1A                      		
    1302.  00:6E1A  FD 21 01 C1         		LD			IY, array_sprites_enem + 24
    1303.  00:6E1E                      		
    1304.  00:6E1E  CD 6D 70            		CALL 		mueve_enemigo
    1305.  00:6E21                      		;acciones enemigos
    1306.  00:6E21                      .check_enemigo6:
    1307.  00:6E21  DD 21 B9 C0         		LD			IX, enemigo6   														
    1308.  00:6E25  DD 7E 00            		LD			 A, (IX)
    1309.  00:6E28  B7                  		OR			 A
    1310.  00:6E29  CA 33 6E            		JP			 Z, .check_enemigo7
    1311.  00:6E2C                      		
    1312.  00:6E2C  FD 21 09 C1         		LD			IY, array_sprites_enem + 32
    1313.  00:6E30                      		
    1314.  00:6E30  CD 6D 70            		CALL 		mueve_enemigo
    1315.  00:6E33                      		;acciones enemigos
    1316.  00:6E33                      .check_enemigo7:
    1317.  00:6E33  DD 21 CD C0         		LD			IX, enemigo7
    1318.  00:6E37  DD 7E 00            		LD			 A, (IX)
    1319.  00:6E3A  B7                  		OR			 A
    1320.  00:6E3B  C8                  		RET			 Z
    1321.  00:6E3C                      		
    1322.  00:6E3C  FD 21 ED C0         		LD			IY, array_sprites_enem + 4
    1323.  00:6E40                      		
    1324.  00:6E40  CD 6D 70            		CALL 		mueve_enemigo
    1325.  00:6E43                      		;acciones enemigos
    1326.  00:6E43                      fin_check_enemigos_fase1:
    1327.  00:6E43  C9                  		RET	
    1328.  00:6E44                      
    1329.  00:6E44                      
    1330.  00:6E44                      ;;=====================================================
    1331.  00:6E44                      ;;CHECK_ENEMIGOS_FASE2
    1332.  00:6E44                      ;;=====================================================	
    1333.  00:6E44                      check_enemigos_fase2: ;; aquí se ponen los valores de enemigos (si están activos) en el array de sprites para renderizar
    1334.  00:6E44                      .check_enemigo1:;SERPIENTE
    1335.  00:6E44  DD 21 55 C0         		LD			IX, enemigo1
    1336.  00:6E48  DD 7E 00            		LD			 A, (IX)
    1337.  00:6E4B  B7                  		OR			 A
    1338.  00:6E4C  CA 56 6E            		JP			 Z, .check_enemigo2
    1339.  00:6E4F                      		
    1340.  00:6E4F  FD 21 E9 C0         		LD			IY, array_sprites_enem
    1341.  00:6E53                      		
    1342.  00:6E53  CD 6D 70            		CALL 		mueve_enemigo
    1343.  00:6E56                      		;acciones enemigos
    1344.  00:6E56                      .check_enemigo2:;ARAÑA
    1345.  00:6E56  DD 21 69 C0         		LD			IX, enemigo2
    1346.  00:6E5A  DD 7E 00            		LD			 A, (IX)
    1347.  00:6E5D  B7                  		OR			 A
    1348.  00:6E5E  CA 68 6E            		JP			 Z, .check_enemigo3
    1349.  00:6E61                      		
    1350.  00:6E61  FD 21 ED C0         		LD			IY, array_sprites_enem + 4
    1351.  00:6E65                      		
    1352.  00:6E65  CD 6D 70            		CALL 		mueve_enemigo
    1353.  00:6E68                      		;acciones enemigos
    1354.  00:6E68                      .check_enemigo3:;CABALLERO
    1355.  00:6E68  DD 21 7D C0         		LD			IX, enemigo3
    1356.  00:6E6C  DD 7E 00            		LD			 A, (IX)
    1357.  00:6E6F  B7                  		OR			 A
    1358.  00:6E70  CA 7A 6E            		JP			 Z, .check_enemigo4
    1359.  00:6E73                      		
    1360.  00:6E73  FD 21 F5 C0         		LD			IY, array_sprites_enem + 12
    1361.  00:6E77                      		
    1362.  00:6E77  CD 6D 70            		CALL 		mueve_enemigo
    1363.  00:6E7A                      		;acciones enemigos
    1364.  00:6E7A                      .check_enemigo4:
    1365.  00:6E7A  DD 21 91 C0         		LD			IX, enemigo4
    1366.  00:6E7E  DD 7E 00            		LD			 A, (IX)
    1367.  00:6E81  B7                  		OR			 A
    1368.  00:6E82  CA 8C 6E            		JP			 Z, .check_enemigo5
    1369.  00:6E85                      		
    1370.  00:6E85  FD 21 FD C0         		LD			IY, array_sprites_enem + 20
    1371.  00:6E89                      		
    1372.  00:6E89  CD 6D 70            		CALL 		mueve_enemigo
    1373.  00:6E8C                      		;acciones enemigos
    1374.  00:6E8C                      .check_enemigo5:
    1375.  00:6E8C  DD 21 A5 C0         		LD			IX, enemigo5
    1376.  00:6E90  DD 7E 00            		LD			 A, (IX)
    1377.  00:6E93  B7                  		OR			 A
    1378.  00:6E94  CA 9E 6E            		JP			 Z, .check_enemigo6
    1379.  00:6E97                      		
    1380.  00:6E97  FD 21 0D C1         		LD			IY, array_sprites_enem + 36
    1381.  00:6E9B                      		
    1382.  00:6E9B  CD 6D 70            		CALL 		mueve_enemigo
    1383.  00:6E9E                      		;acciones enemigos
    1384.  00:6E9E                      .check_enemigo6:
    1385.  00:6E9E  DD 21 B9 C0         		LD			IX, enemigo6   														
    1386.  00:6EA2  DD 7E 00            		LD			 A, (IX)
    1387.  00:6EA5  B7                  		OR			 A
    1388.  00:6EA6  CA B0 6E            		JP			 Z, .check_enemigo7
    1389.  00:6EA9                      		
    1390.  00:6EA9  FD 21 1D C1         		LD			IY, array_sprites_enem + 52
    1391.  00:6EAD                      		
    1392.  00:6EAD  CD 6D 70            		CALL 		mueve_enemigo
    1393.  00:6EB0                      		;acciones enemigos	
    1394.  00:6EB0                      .check_enemigo7:
    1395.  00:6EB0  DD 21 CD C0         		LD			IX, enemigo7
    1396.  00:6EB4  DD 7E 00            		LD			 A, (IX)
    1397.  00:6EB7  B7                  		OR			 A
    1398.  00:6EB8  C8                  		RET			 Z
    1399.  00:6EB9                      		
    1400.  00:6EB9  FD 21 ED C0         		LD			IY, array_sprites_enem + 4
    1401.  00:6EBD                      		
    1402.  00:6EBD  CD 6D 70            		CALL 		mueve_enemigo
    1403.  00:6EC0                      		;acciones enemigos
    1404.  00:6EC0                      fin_check_enemigos_fase2:
    1405.  00:6EC0  C9                  		RET	
    1406.  00:6EC1                      
    1407.  00:6EC1                      
    1408.  00:6EC1                      ;;=====================================================
    1409.  00:6EC1                      ;;CHECK_ENEMIGOS_FASE3
    1410.  00:6EC1                      ;;=====================================================	
    1411.  00:6EC1                      check_enemigos_fase3: ;; aquí se ponen los valores de enemigos (si están activos) en el array de sprites para renderizar
    1412.  00:6EC1                      .check_enemigo1:
    1413.  00:6EC1  DD 21 55 C0         		LD			IX, enemigo1
    1414.  00:6EC5  DD 7E 00            		LD			 A, (IX)
    1415.  00:6EC8  B7                  		OR			 A
    1416.  00:6EC9  CA D3 6E            		JP			 Z, .check_enemigo2
    1417.  00:6ECC                      		
    1418.  00:6ECC  FD 21 E9 C0         		LD			IY, array_sprites_enem
    1419.  00:6ED0                      		
    1420.  00:6ED0  CD 6D 70            		CALL 		mueve_enemigo
    1421.  00:6ED3                      		;acciones enemigos
    1422.  00:6ED3                      .check_enemigo2:
    1423.  00:6ED3  DD 21 69 C0         		LD			IX, enemigo2
    1424.  00:6ED7  DD 7E 00            		LD			 A, (IX)
    1425.  00:6EDA  B7                  		OR			 A
    1426.  00:6EDB  CA E5 6E            		JP			 Z, .check_enemigo3
    1427.  00:6EDE                      		
    1428.  00:6EDE  FD 21 ED C0         		LD			IY, array_sprites_enem + 4
    1429.  00:6EE2                      		
    1430.  00:6EE2  CD 6D 70            		CALL 		mueve_enemigo
    1431.  00:6EE5                      		;acciones enemigos
    1432.  00:6EE5                      .check_enemigo3:
    1433.  00:6EE5  DD 21 7D C0         		LD			IX, enemigo3
    1434.  00:6EE9  DD 7E 00            		LD			 A, (IX)
    1435.  00:6EEC  B7                  		OR			 A
    1436.  00:6EED  CA F7 6E            		JP			 Z, .check_enemigo4
    1437.  00:6EF0                      		
    1438.  00:6EF0  FD 21 F5 C0         		LD			IY, array_sprites_enem + 12
    1439.  00:6EF4                      		
    1440.  00:6EF4  CD 6D 70            		CALL 		mueve_enemigo
    1441.  00:6EF7                      		;acciones enemigos
    1442.  00:6EF7                      .check_enemigo4:
    1443.  00:6EF7  DD 21 91 C0         		LD			IX, enemigo4
    1444.  00:6EFB  DD 7E 00            		LD			 A, (IX)
    1445.  00:6EFE  B7                  		OR			 A
    1446.  00:6EFF  CA 09 6F            		JP			 Z, .check_enemigo5
    1447.  00:6F02                      		
    1448.  00:6F02  FD 21 FD C0         		LD			IY, array_sprites_enem + 20
    1449.  00:6F06                      		
    1450.  00:6F06  CD 6D 70            		CALL 		mueve_enemigo
    1451.  00:6F09                      		;acciones enemigos
    1452.  00:6F09                      .check_enemigo5:
    1453.  00:6F09  DD 21 A5 C0         		LD			IX, enemigo5
    1454.  00:6F0D  DD 7E 00            		LD			 A, (IX)
    1455.  00:6F10  B7                  		OR			 A
    1456.  00:6F11  CA 1B 6F            		JP			 Z, .check_enemigo6
    1457.  00:6F14                      		
    1458.  00:6F14  FD 21 0D C1         		LD			IY, array_sprites_enem + 36
    1459.  00:6F18                      		
    1460.  00:6F18  CD 6D 70            		CALL 		mueve_enemigo
    1461.  00:6F1B                      		;acciones enemigos
    1462.  00:6F1B                      .check_enemigo6:
    1463.  00:6F1B  DD 21 B9 C0         		LD			IX, enemigo6   														
    1464.  00:6F1F  DD 7E 00            		LD			 A, (IX)
    1465.  00:6F22  B7                  		OR			 A
    1466.  00:6F23  CA 2D 6F            		JP			 Z, .check_enemigo7
    1467.  00:6F26                      		
    1468.  00:6F26  FD 21 1D C1         		LD			IY, array_sprites_enem + 52
    1469.  00:6F2A                      		
    1470.  00:6F2A  CD 6D 70            		CALL 		mueve_enemigo
    1471.  00:6F2D                      		;acciones enemigos	
    1472.  00:6F2D                      .check_enemigo7:
    1473.  00:6F2D  DD 21 CD C0         		LD			IX, enemigo7
    1474.  00:6F31  DD 7E 00            		LD			 A, (IX)
    1475.  00:6F34  B7                  		OR			 A
    1476.  00:6F35  C8                  		RET			 Z
    1477.  00:6F36                      		
    1478.  00:6F36  FD 21 ED C0         		LD			IY, array_sprites_enem + 4
    1479.  00:6F3A                      		
    1480.  00:6F3A  CD 6D 70            		CALL 		mueve_enemigo
    1481.  00:6F3D                      		;acciones enemigos
    1482.  00:6F3D                      fin_check_enemigos_fase3:
    1483.  00:6F3D  C9                  		RET	
    1484.  00:6F3E                      
    1485.  00:6F3E                      
    1486.  00:6F3E                      ;;=====================================================
    1487.  00:6F3E                      ;;CHECK_ENEMIGOS_FASE4
    1488.  00:6F3E                      ;;=====================================================	
    1489.  00:6F3E                      check_enemigos_fase4: ;; aquí se ponen los valores de enemigos (si están activos) en el array de sprites para renderizar
    1490.  00:6F3E                      .check_enemigo1:	;MURCIELAGO
    1491.  00:6F3E  DD 21 55 C0         		LD			IX, enemigo1
    1492.  00:6F42  DD 7E 00            		LD			 A, (IX)
    1493.  00:6F45  B7                  		OR			 A
    1494.  00:6F46  CA 50 6F            		JP			 Z, .check_enemigo2
    1495.  00:6F49                      		
    1496.  00:6F49  FD 21 E9 C0         		LD			IY, array_sprites_enem
    1497.  00:6F4D                      		
    1498.  00:6F4D  CD 6D 70            		CALL 		mueve_enemigo
    1499.  00:6F50                      		;acciones enemigos
    1500.  00:6F50                      .check_enemigo2:	;CABALLERO
    1501.  00:6F50  DD 21 69 C0         		LD			IX, enemigo2
    1502.  00:6F54  DD 7E 00            		LD			 A, (IX)
    1503.  00:6F57  B7                  		OR			 A
    1504.  00:6F58  CA 62 6F            		JP			 Z, .check_enemigo3
    1505.  00:6F5B                      		
    1506.  00:6F5B  FD 21 ED C0         		LD			IY, array_sprites_enem + 4
    1507.  00:6F5F                      		
    1508.  00:6F5F  CD 6D 70            		CALL 		mueve_enemigo
    1509.  00:6F62                      		;acciones enemigos
    1510.  00:6F62                      .check_enemigo3:	;ESQUELETO
    1511.  00:6F62  DD 21 7D C0         		LD			IX, enemigo3
    1512.  00:6F66  DD 7E 00            		LD			 A, (IX)
    1513.  00:6F69  B7                  		OR			 A
    1514.  00:6F6A  CA 74 6F            		JP			 Z, .check_enemigo4
    1515.  00:6F6D                      		
    1516.  00:6F6D  FD 21 F5 C0         		LD			IY, array_sprites_enem + 12
    1517.  00:6F71                      		
    1518.  00:6F71  CD 6D 70            		CALL 		mueve_enemigo
    1519.  00:6F74                      		;acciones enemigos
    1520.  00:6F74                      .check_enemigo4:	;ZOMBI
    1521.  00:6F74  DD 21 91 C0         		LD			IX, enemigo4
    1522.  00:6F78  DD 7E 00            		LD			 A, (IX)
    1523.  00:6F7B  B7                  		OR			 A
    1524.  00:6F7C  CA 86 6F            		JP			 Z, .check_enemigo5
    1525.  00:6F7F                      		
    1526.  00:6F7F  FD 21 FD C0         		LD			IY, array_sprites_enem + 20
    1527.  00:6F83                      		
    1528.  00:6F83  CD 6D 70            		CALL 		mueve_enemigo
    1529.  00:6F86                      		;acciones enemigos
    1530.  00:6F86                      .check_enemigo5:	;FANTASMA
    1531.  00:6F86  DD 21 A5 C0         		LD			IX, enemigo5
    1532.  00:6F8A  DD 7E 00            		LD			 A, (IX)
    1533.  00:6F8D  B7                  		OR			 A
    1534.  00:6F8E  CA 98 6F            		JP			 Z, .check_enemigo6
    1535.  00:6F91                      		
    1536.  00:6F91  FD 21 05 C1         		LD			IY, array_sprites_enem + 28
    1537.  00:6F95                      		
    1538.  00:6F95  CD 6D 70            		CALL 		mueve_enemigo
    1539.  00:6F98                      		;acciones enemigos
    1540.  00:6F98                      .check_enemigo6:	;FUEGO
    1541.  00:6F98  DD 21 B9 C0         		LD			IX, enemigo6   														
    1542.  00:6F9C  DD 7E 00            		LD			 A, (IX)
    1543.  00:6F9F  B7                  		OR			 A
    1544.  00:6FA0  CA AA 6F            		JP			 Z, .check_enemigo7
    1545.  00:6FA3                      		
    1546.  00:6FA3  FD 21 0D C1         		LD			IY, array_sprites_enem + 36
    1547.  00:6FA7                      		
    1548.  00:6FA7  CD 6D 70            		CALL 		mueve_enemigo
    1549.  00:6FAA                      		;acciones enemigos	
    1550.  00:6FAA                      .check_enemigo7:	;JEFECABALLERO
    1551.  00:6FAA  DD 21 CD C0         		LD			IX, enemigo7
    1552.  00:6FAE  DD 7E 00            		LD			 A, (IX)
    1553.  00:6FB1  B7                  		OR			 A
    1554.  00:6FB2  C8                  		RET			 Z
    1555.  00:6FB3                      		
    1556.  00:6FB3  FD 21 ED C0         		LD			IY, array_sprites_enem + 4
    1557.  00:6FB7                      		
    1558.  00:6FB7  CD 6D 70            		CALL 		mueve_enemigo
    1559.  00:6FBA                      		;acciones enemigos
    1560.  00:6FBA                      fin_check_enemigos_fase4:
    1561.  00:6FBA  C9                  		RET	
    1562.  00:6FBB                      		
    1563.  00:6FBB                      
    1564.  00:6FBB                      ;;=====================================================
    1565.  00:6FBB                      ;;CHECK_ENEMIGOS_FASE5
    1566.  00:6FBB                      ;;=====================================================	
    1567.  00:6FBB                      check_enemigos_fase5: ;; aquí se ponen los valores de enemigos (si están activos) en el array de sprites para renderizar
    1568.  00:6FBB                      .check_enemigo1:	;MAGIA
    1569.  00:6FBB  DD 21 55 C0         		LD			IX, enemigo1
    1570.  00:6FBF  DD 7E 00            		LD			 A, (IX)
    1571.  00:6FC2  B7                  		OR			 A
    1572.  00:6FC3  CA CD 6F            		JP			 Z, .check_enemigo2
    1573.  00:6FC6                      		
    1574.  00:6FC6  FD 21 E9 C0         		LD			IY, array_sprites_enem
    1575.  00:6FCA                      		
    1576.  00:6FCA  CD 6D 70            		CALL 		mueve_enemigo
    1577.  00:6FCD                      		;acciones enemigos
    1578.  00:6FCD                      .check_enemigo2:	;CABALLERO
    1579.  00:6FCD  DD 21 69 C0         		LD			IX, enemigo2
    1580.  00:6FD1  DD 7E 00            		LD			 A, (IX)
    1581.  00:6FD4  B7                  		OR			 A
    1582.  00:6FD5  CA DF 6F            		JP			 Z, .check_enemigo3
    1583.  00:6FD8                      		
    1584.  00:6FD8  FD 21 F1 C0         		LD			IY, array_sprites_enem + 8
    1585.  00:6FDC                      		
    1586.  00:6FDC  CD 6D 70            		CALL 		mueve_enemigo
    1587.  00:6FDF                      		;acciones enemigos
    1588.  00:6FDF                      .check_enemigo3:	;ESQUELETO
    1589.  00:6FDF  DD 21 7D C0         		LD			IX, enemigo3
    1590.  00:6FE3  DD 7E 00            		LD			 A, (IX)
    1591.  00:6FE6  B7                  		OR			 A
    1592.  00:6FE7  CA F1 6F            		JP			 Z, .check_enemigo4
    1593.  00:6FEA                      		
    1594.  00:6FEA  FD 21 F9 C0         		LD			IY, array_sprites_enem + 16
    1595.  00:6FEE                      		
    1596.  00:6FEE  CD 6D 70            		CALL 		mueve_enemigo
    1597.  00:6FF1                      		;acciones enemigos
    1598.  00:6FF1                      .check_enemigo4:	;ZOMBI
    1599.  00:6FF1  DD 21 91 C0         		LD			IX, enemigo4
    1600.  00:6FF5  DD 7E 00            		LD			 A, (IX)
    1601.  00:6FF8  B7                  		OR			 A
    1602.  00:6FF9  CA 03 70            		JP			 Z, .check_enemigo5
    1603.  00:6FFC                      		
    1604.  00:6FFC  FD 21 01 C1         		LD			IY, array_sprites_enem + 24
    1605.  00:7000                      		
    1606.  00:7000  CD 6D 70            		CALL 		mueve_enemigo
    1607.  00:7003                      		;acciones enemigos
    1608.  00:7003                      .check_enemigo5:	;FANTASMA
    1609.  00:7003  DD 21 A5 C0         		LD			IX, enemigo5
    1610.  00:7007  DD 7E 00            		LD			 A, (IX)
    1611.  00:700A  B7                  		OR			 A
    1612.  00:700B  CA 15 70            		JP			 Z, .check_enemigo6
    1613.  00:700E                      		
    1614.  00:700E  FD 21 09 C1         		LD			IY, array_sprites_enem + 32
    1615.  00:7012                      		
    1616.  00:7012  CD 6D 70            		CALL 		mueve_enemigo
    1617.  00:7015                      		
    1618.  00:7015                      		;acciones enemigos
    1619.  00:7015                      .check_enemigo6:	;FUEGO
    1620.  00:7015  DD 21 B9 C0         		LD			IX, enemigo6   														
    1621.  00:7019  DD 7E 00            		LD			 A, (IX)
    1622.  00:701C  B7                  		OR			 A
    1623.  00:701D  CA 27 70            		JP			 Z, .check_enemigo7
    1624.  00:7020                      		
    1625.  00:7020  FD 21 11 C1         		LD			IY, array_sprites_enem + 40
    1626.  00:7024                      		
    1627.  00:7024  CD 6D 70            		CALL 		mueve_enemigo		
    1628.  00:7027                      		;acciones enemigos	
    1629.  00:7027                      .check_enemigo7:	;JEFEBEHOLDER
    1630.  00:7027  DD 21 CD C0         		LD			IX, enemigo7
    1631.  00:702B  DD 7E 00            		LD			 A, (IX)
    1632.  00:702E  B7                  		OR			 A
    1633.  00:702F  C8                  		RET			 Z
    1634.  00:7030                      		
    1635.  00:7030  FD 21 ED C0         		LD			IY, array_sprites_enem + 4
    1636.  00:7034                      		
    1637.  00:7034  CD 6D 70            		CALL 		mueve_enemigo
    1638.  00:7037                      		;acciones enemigos
    1639.  00:7037                      fin_check_enemigos_fase5:
    1640.  00:7037  C9                  		RET	
    1641.  00:7038                      		
    1642.  00:7038                      
    1643.  00:7038                      ;;=====================================================
    1644.  00:7038                      ;;CHECK_ENEMIGOS_FASE6
    1645.  00:7038                      ;;=====================================================	
    1646.  00:7038                      check_enemigos_fase6: ;; aquí se ponen los valores de enemigos (si están activos) en el array de sprites para renderizar
    1647.  00:7038                      .check_enemigo1:	;DRACULA
    1648.  00:7038  DD 21 55 C0         		LD			IX, enemigo1
    1649.  00:703C  DD 7E 00            		LD			 A, (IX)
    1650.  00:703F  B7                  		OR			 A
    1651.  00:7040  CA 4A 70            		JP			 Z, .check_enemigo2
    1652.  00:7043                      		
    1653.  00:7043  FD 21 E9 C0         		LD			IY, array_sprites_enem
    1654.  00:7047                      		
    1655.  00:7047  CD 6D 70            		CALL 		mueve_enemigo
    1656.  00:704A                      		;acciones enemigos
    1657.  00:704A                      .check_enemigo2:	
    1658.  00:704A  DD 21 69 C0         		LD			IX, enemigo2
    1659.  00:704E  DD 7E 00            		LD			 A, (IX)
    1660.  00:7051  B7                  		OR			 A
    1661.  00:7052  CA 5C 70            		JP			 Z, .check_enemigo3
    1662.  00:7055                      		
    1663.  00:7055  FD 21 F1 C0         		LD			IY, array_sprites_enem + 8
    1664.  00:7059                      		
    1665.  00:7059  CD 6D 70            		CALL 		mueve_enemigo
    1666.  00:705C                      		;acciones enemigos
    1667.  00:705C                      .check_enemigo3:	
    1668.  00:705C  DD 21 7D C0         		LD			IX, enemigo3
    1669.  00:7060  DD 7E 00            		LD			 A, (IX)
    1670.  00:7063  B7                  		OR			 A
    1671.  00:7064  C8                  		RET			 Z
    1672.  00:7065                      		
    1673.  00:7065  FD 21 F9 C0         		LD			IY, array_sprites_enem + 16
    1674.  00:7069                      		
    1675.  00:7069  CD 6D 70            		CALL 		mueve_enemigo
    1676.  00:706C                      		;acciones enemigos
    1677.  00:706C                      fin_check_enemigos_fase6:
    1678.  00:706C  C9                  		RET	
    1679.  00:706D                      
    1680.  00:706D                      
    1681.  00:706D                      ;;=====================================================
    1682.  00:706D                      ;;MUEVE_ENEMIGO
    1683.  00:706D                      ;;=====================================================	
    1684.  00:706D                      mueve_enemigo:
    1685.  00:706D  DD 6E 0E            		LD			 L, (IX + ESTRUCTURA_ENEMIGO.ptr_mover)
    1686.  00:7070  DD 66 0F            		LD			 H, (IX + ESTRUCTURA_ENEMIGO.ptr_mover + 1)
    1687.  00:7073  E9                  		JP		    (HL)
    1688.  00:7074                      fin_mueve_enemigo:
    1689.  00:7074  C9                  		RET
     184   00:7075                      	
     185   00:7075                      	include "sonido/subr_sonido.asm"
       1.  00:7075                      
       2.  00:7075                      ;;=====================================================
       3.  00:7075                      ;;SUBRUTINAS PARA SONIDOS
       4.  00:7075                      ;;=====================================================	
       5.  00:7075                      
       6.  00:7075                      ;;=====================================================
       7.  00:7075                      ;;INICIALIZA_REPLAYER_EFECTOS_INTERRUPCIONES
       8.  00:7075                      ;;=====================================================	
       9.  00:7075                      ; función: 	inicializa: replayer de música, player de efectos e interrupciones
      10.  00:7075                      ; entrada: 	-
      11.  00:7075                      ; salida: 	-
      12.  00:7075                      ; toca: 	HL, A
      13.  00:7075                      inicializa_replayer_efectos_interrupciones:
      14.  00:7075  F3                  	DI
      15.  00:7076                      
      16.  00:7076                      	;inicializacion de replayer musical
      17.  00:7076  21 1E 77            	LD		HL, song-99			; hl <- initial address of module - 99
      18.  00:7079  CD B5 70            	CALL	PT3_INIT			; Inits PT3 player
      19.  00:707C                      		
      20.  00:707C                      	;inicializacion del reproductor de efectos sonoros
      21.  00:707C  21 E9 80            	LD		HL, sfx_bank
      22.  00:707F  CD A4 76            	CALL	ayFX_SETUP
      23.  00:7082                      	
      24.  00:7082                      	;Engancha nuestra rutina de servicio al gancha que deja preparado la BIOS cuando se termina de pintar la pantalla (50 o 60 veces por segundo)
      25.  00:7082  3E C3               	LD		A, #C3
      26.  00:7084  32 9F FD            	LD		[H.TIMI], A
      27.  00:7087  21 8F 70            	LD		HL, subrutina_isr
      28.  00:708A  22 A0 FD            	LD		[H.TIMI+1], HL
      29.  00:708D                      	
      30.  00:708D  FB                  	EI		;optimizacion:
      31.  00:708E                      			;piensa que las dos ultimas lineas podrian haber sido: 
      32.  00:708E                      			;ei						;primero ei
      33.  00:708E                      			;ld		[H.TIMI+1],hl	;luego este ld
      34.  00:708E                      									;PENSAR (y consultar ) PORQUE!!!!
      35.  00:708E                      fin_inicializa_replayer_efectos_interrupciones:
      36.  00:708E  C9                  	RET
      37.  00:708F                      
      38.  00:708F                      
      39.  00:708F                      
      40.  00:708F                      ;;=====================================================
      41.  00:708F                      ;;NUESTRA_ISR
      42.  00:708F                      ;;=====================================================	
      43.  00:708F                      ; función: 	envía datos al PSG + toca un trozo de música + toca trozo de 
      44.  00:708F                      ; entrada: 	-
      45.  00:708F                      ; salida: 	-
      46.  00:708F                      ; toca: 	HL, A
      47.  00:708F                      subrutina_isr:
      48.  00:708F  CD FA 75            	CALL	PT3_ROUT			;envia los datos a los registros del PSG
      49.  00:7092  CD 02 75            	CALL	PT3_PLAY			;calcula el siguiente 'trocito' de musica que sera enviado al proxima vez
      50.  00:7095  C3 EC 76            	JP		ayFX_PLAY			;calcula el siguiente 'trocito' de efecto especial de sonido que sera enviado la proxima vez
      51.  00:7098                      fin_subrutina_isr:
      52.  00:7098                      	;RET
      53.  00:7098                      
      54.  00:7098                      
      55.  00:7098                      
      56.  00:7098                      ;;=====================================================
      57.  00:7098                      ;;DEFINICIÓN DE SUBRUTINAS DE FERNANDO PARA COMPRESIÓN Y SONIDO
      58.  00:7098                      ;;=====================================================
      59.  00:7098                      subrutinas_sonido:
      60.  00:7098                      	include	"PT3-ROM_sjasm.asm"
       1:  00:7098                      		; --- PT3 REPLAYER WORKING ON ROM ---
       2:  00:7098                      		; --- Can be assembled with asMSX ---
       3:  00:7098                      		; --- ROM version: MSX-KUN        ---
       4:  00:7098                      		; --- asMSX version 2: SapphiRe   ---
       5:  00:7098                      
       6:  00:7098                      ; Based on MSX full version of PT3 by Dioniso
       7:  00:7098                      ;
       8:  00:7098                      ; This version of the replayer can be used with any note table
       9:  00:7098                      ; This version also allows the use of PT3 commands
      10:  00:7098                      ; First 99 bytes of each PT3 module should be stripped off
      11:  00:7098                      ;
      12:  00:7098                      ; PLAY and PSG WRITE routines seperated to allow independent calls
      13:  00:7098                      ;
      14:  00:7098                      ; ROM LENGTH: 1549 bytes
      15:  00:7098                      ; RAM LENGTH:  576 bytes
      16:  00:7098                      
      17:  00:7098                      
      18:  00:7098                      
      19:  00:7098                      ;SJASM version by BTV 2016
      20:  00:7098                      
      21:  00:7098                      
      22:  00:7098                      		; --- CONSTANT VALUES DEFINITION ---
      23:  00:7098                      
      24:  00:7098                      ;ChannelsVars
      25:  00:7098                      ;struc	CHNPRM
      26:  00:7098                      ;reset group
      27:  00:7098  (00:0000)           CHNPRM_PsInOr	equ 0	;RESB 1
      28:  00:7098  (00:0001)           CHNPRM_PsInSm	equ 1	;RESB 1
      29:  00:7098  (00:0002)           CHNPRM_CrAmSl	equ 2	;RESB 1
      30:  00:7098  (00:0003)           CHNPRM_CrNsSl	equ 3	;RESB 1
      31:  00:7098  (00:0004)           CHNPRM_CrEnSl	equ 4	;RESB 1
      32:  00:7098  (00:0005)           CHNPRM_TSlCnt	equ 5	;RESB 1
      33:  00:7098  (00:0006)           CHNPRM_CrTnSl	equ 6	;RESW 1
      34:  00:7098  (00:0008)           CHNPRM_TnAcc	equ 8	;RESW 1
      35:  00:7098  (00:000A)           CHNPRM_COnOff	equ 10	;RESB 1
      36:  00:7098                      ;reset group
      37:  00:7098                      
      38:  00:7098  (00:000B)           CHNPRM_OnOffD	equ 11	;RESB 1
      39:  00:7098                      
      40:  00:7098                      ;IX for PTDECOD here [+12]
      41:  00:7098  (00:000C)           CHNPRM_OffOnD	equ 12	;RESB 1
      42:  00:7098  (00:000D)           CHNPRM_OrnPtr	equ 13	;RESW 1
      43:  00:7098  (00:000F)           CHNPRM_SamPtr	equ 15	;RESW 1
      44:  00:7098  (00:0011)           CHNPRM_NNtSkp	equ 17	;RESB 1
      45:  00:7098  (00:0012)           CHNPRM_Note	equ 18	;RESB 1
      46:  00:7098  (00:0013)           CHNPRM_SlToNt	equ 19	;RESB 1
      47:  00:7098  (00:0014)           CHNPRM_Env_En	equ 20	;RESB 1
      48:  00:7098  (00:0015)           CHNPRM_Flags	equ 21	;RESB 1
      49:  00:7098                       ;Enabled - 0,SimpleGliss - 2
      50:  00:7098  (00:0016)           CHNPRM_TnSlDl	equ 22	;RESB 1
      51:  00:7098  (00:0017)           CHNPRM_TSlStp	equ 23	;RESW 1
      52:  00:7098  (00:0019)           CHNPRM_TnDelt	equ 25	;RESW 1
      53:  00:7098  (00:001B)           CHNPRM_NtSkCn	equ 27	;RESB 1
      54:  00:7098  (00:001C)           CHNPRM_Volume	equ 28	;RESB 1
      55:  00:7098  (00:001D)           CHNPRM_Size	equ 29	;RESB 1
      56:  00:7098                      ;endstruc
      57:  00:7098                      
      58:  00:7098                      ;struc	AR
      59:  00:7098  (00:0000)           AR_TonA		equ 0	;RESW 1
      60:  00:7098  (00:0002)           AR_TonB		equ 2	;RESW 1
      61:  00:7098  (00:0004)           AR_TonC		equ 4	;RESW 1
      62:  00:7098  (00:0006)           AR_Noise	equ 6	;RESB 1
      63:  00:7098  (00:0007)           AR_Mixer	equ 7	;RESB 1
      64:  00:7098  (00:0008)           AR_AmplA	equ 8	;RESB 1
      65:  00:7098  (00:0009)           AR_AmplB	equ 9	;RESB 1
      66:  00:7098  (00:000A)           AR_AmplC	equ 10	;RESB 1
      67:  00:7098  (00:000B)           AR_Env		equ 11	;RESW 1
      68:  00:7098  (00:000D)           AR_EnvTp	equ 13	;RESB 1
      69:  00:7098                      ;endstruc
      70:  00:7098                      
      71:  00:7098                      		; --- CODE STARTS HERE ---
      72:  00:7098                      
      73:  00:7098  21 00 F0            CHECKLP:	LD	HL,PT3_SETUP
      74:  00:709B  CB FE               		SET	7,[HL]
      75:  00:709D  CB 46               		BIT	0,[HL]
      76:  00:709F  C8                  		RET	Z
      77:  00:70A0  E1                  		POP	HL
      78:  00:70A1  21 7A F0            		LD	HL,DelyCnt
      79:  00:70A4  34                  		INC	[HL]
      80:  00:70A5  21 3E F0            		LD	HL,ChanA+CHNPRM_NtSkCn
      81:  00:70A8  34                  		INC	[HL]
      82:  00:70A9  AF                  PT3_MUTE:	XOR	A
      83:  00:70AA  67                  		LD	H,A
      84:  00:70AB  6F                  		LD	L,A
      85:  00:70AC  32 48 F1            		LD	[AYREGS+AR_AmplA],A
      86:  00:70AF  22 49 F1            		LD	[AYREGS+AR_AmplB],HL
      87:  00:70B2  C3 FB 75            		JP	ROUT_A0
      88:  00:70B5                      
      89:  00:70B5                      PT3_INIT:	;HL - AddressOfModule - 100
      90:  00:70B5  22 01 F0            		LD [PT3_MODADDR],HL
      91:  00:70B8  E5                  		PUSH HL
      92:  00:70B9  11 64 00            		LD DE,100
      93:  00:70BC  19                  		ADD HL,DE
      94:  00:70BD  7E                  		LD A,[HL]
      95:  00:70BE  32 1C F0            		LD [PT3_Delay],A
      96:  00:70C1  E5                  		PUSH HL
      97:  00:70C2  DD E1               		POP IX
      98:  00:70C4  19                  		ADD HL,DE
      99:  00:70C5  22 03 F0            		LD [PT3_CrPsPtr],HL
     100:  00:70C8  DD 5E 02            		LD E,[IX+102-100]
     101:  00:70CB  19                  		ADD HL,DE
     102:  00:70CC  23                  		INC HL
     103:  00:70CD  22 18 F0            		LD [PT3_LPosPtr],HL
     104:  00:70D0  D1                  		POP DE
     105:  00:70D1  DD 6E 03            		LD L,[IX+103-100]
     106:  00:70D4  DD 66 04            		LD H,[IX+104-100]
     107:  00:70D7  19                  		ADD HL,DE
     108:  00:70D8  22 1A F0            		LD [PT3_PatsPtr],HL
     109:  00:70DB  21 A9 00            		LD HL,169
     110:  00:70DE  19                  		ADD HL,DE
     111:  00:70DF  22 07 F0            		LD [PT3_OrnPtrs],HL
     112:  00:70E2  21 69 00            		LD HL,105
     113:  00:70E5  19                  		ADD HL,DE
     114:  00:70E6  22 05 F0            		LD [PT3_SAMPTRS],HL
     115:  00:70E9  21 00 F0            		LD HL,PT3_SETUP
     116:  00:70EC  CB BE               		RES 7,[HL]
     117:  00:70EE                      
     118:  00:70EE                      		; --- note table data depacker ---
     119:  00:70EE                      		; Depacks first 12 tones of each tone table
     120:  00:70EE                      
     121:  00:70EE  11 6F 76            		LD DE,T_PACK
     122:  00:70F1  01 B1 F1            		LD BC,T1_+(2*49)-1
     123:  00:70F4  1A                  .TP_0:		LD A,[DE]
     124:  00:70F5  13                  		INC DE
     125:  00:70F6  FE 1E               		CP 15*2
     126:  00:70F8  30 06               		JR NC,.TP_1
     127:  00:70FA  67                  		LD H,A
     128:  00:70FB  1A                  		LD A,[DE]
     129:  00:70FC  6F                  		LD L,A
     130:  00:70FD  13                  		INC DE
     131:  00:70FE  18 07               		JR .TP_2
     132:  00:7100  D5                  .TP_1:		PUSH DE
     133:  00:7101  16 00               		LD D,0
     134:  00:7103  5F                  		LD E,A
     135:  00:7104  19                  		ADD HL,DE
     136:  00:7105  19                  		ADD HL,DE
     137:  00:7106  D1                  		POP DE
     138:  00:7107  7C                  .TP_2:		LD A,H
     139:  00:7108  02                  		LD [BC],A
     140:  00:7109  0B                  		DEC BC
     141:  00:710A  7D                  		LD A,L
     142:  00:710B  02                  		LD [BC],A
     143:  00:710C  0B                  		DEC BC
     144:  00:710D  D6 F0               		SUB $F0
     145:  00:710F  20 E3               		JR NZ,.TP_0
     146:  00:7111                      
     147:  00:7111                      		; --- INITIALIZE PT3 VARIABLES ---
     148:  00:7111  21 23 F0            		LD HL,VARS
     149:  00:7114  77                  		LD [HL],A
     150:  00:7115  11 24 F0            		LD DE,VARS+1
     151:  00:7118  01 2C 01            		LD BC,VAR0END-VARS-1
     152:  00:711B  ED B0               		LDIR
     153:  00:711D                      
     154:  00:711D  3C                  		INC A
     155:  00:711E  32 7A F0            		LD [DelyCnt],A
     156:  00:7121  21 01 F0            		LD HL,$F001 ;H - CHNPRM_Volume, L - CHNPRM_NtSkCn
     157:  00:7124  22 3E F0            		LD [ChanA+CHNPRM_NtSkCn],HL
     158:  00:7127  22 5B F0            		LD [ChanB+CHNPRM_NtSkCn],HL
     159:  00:712A  22 78 F0            		LD [ChanC+CHNPRM_NtSkCn],HL
     160:  00:712D                      
     161:  00:712D  21 6B 76            		LD HL,EMPTYSAMORN
     162:  00:7130  22 12 F0            		LD [PT3_AdInPtA],HL ;ptr to zero
     163:  00:7133  22 30 F0            		LD [ChanA+CHNPRM_OrnPtr],HL ;ornament 0 is "0,1,0"
     164:  00:7136  22 4D F0            		LD [ChanB+CHNPRM_OrnPtr],HL ;in all versions from
     165:  00:7139  22 6A F0            		LD [ChanC+CHNPRM_OrnPtr],HL ;3.xx to 3.6x and VTII
     166:  00:713C                      
     167:  00:713C  22 32 F0            		LD [ChanA+CHNPRM_SamPtr],HL ;S1 There is no default
     168:  00:713F  22 4F F0            		LD [ChanB+CHNPRM_SamPtr],HL ;S2 sample in PT3, so, you
     169:  00:7142  22 6C F0            		LD [ChanC+CHNPRM_SamPtr],HL ;S3 can comment S1,2,3; see
     170:  00:7145                      					    ;also EMPTYSAMORN comment
     171:  00:7145                      
     172:  00:7145                      		; --- NOTE TABLE CREATOR (c) Ivan Roshin, adapted by SapphiRe ---
     173:  00:7145  DD 7E FF            		LD A,[IX+99-100] ;TONE TABLE NUMBER
     174:  00:7148  17                  		RLA
     175:  00:7149  E6 07               		AND 7
     176:  00:714B  21 1B 76            		LD HL,NT_DATA
     177:  00:714E  D5                  		PUSH DE
     178:  00:714F  50                  		LD D,B		; ld d,0 (bc is 0000 after LDIR)
     179:  00:7150  87                  		ADD A,A
     180:  00:7151  5F                  		LD E,A
     181:  00:7152  19                  		ADD HL,DE	; hl -> init of correct note table data
     182:  00:7153  5E                  		LD E,[HL]
     183:  00:7154  23                  		INC HL
     184:  00:7155  CB 3B               		SRL E
     185:  00:7157  9F                  		SBC A,A
     186:  00:7158  E6 A7               		AND $A7			;$00 (NOP) or $A7 (AND A)
     187:  00:715A  32 21 F0            		LD [PT3_NTL3],A		; CORRECT INSTRUCTION, DEPENDS OF SELECTED TABLE
     188:  00:715D  3E C9               		LD A,$C9		; RET CODE
     189:  00:715F  32 22 F0            		LD [PT3_NTL3+1],A	; RET PLACED
     190:  00:7162  EB                  		EX DE,HL
     191:  00:7163  C1                  		POP BC ;BC=T1_
     192:  00:7164  09                  		ADD HL,BC
     193:  00:7165                      
     194:  00:7165  1A                  		LD A,[DE]                           
     195:  00:7166                      
     196:  00:7166  01 2B 76            		LD BC,T_
     197:  00:7169  81                  		ADD A,C
     198:  00:716A  4F                  		LD C,A
     199:  00:716B  88                  		ADC A,B
     200:  00:716C                      
     201:  00:716C  91                  		SUB C
     202:  00:716D  47                  		LD B,A
     203:  00:716E  C5                  		PUSH BC
     204:  00:716F  11 80 F0            		LD DE,NT_
     205:  00:7172  D5                  		PUSH DE
     206:  00:7173                      
     207:  00:7173  06 0C               		LD B,12
     208:  00:7175  C5                  .L1:		PUSH BC
     209:  00:7176  4E                  		LD C,[HL]
     210:  00:7177  23                  		INC HL
     211:  00:7178  E5                  		PUSH HL
     212:  00:7179  46                  		LD B,[HL]
     213:  00:717A                      
     214:  00:717A  D5                  		PUSH DE
     215:  00:717B  EB                  		EX DE,HL
     216:  00:717C  11 17 00            		LD DE,23
     217:  00:717F  DD 26 08            		db $DD,$26,$08	;LD XH,8
     218:  00:7182                      
     219:  00:7182  CB 38               .L2:		SRL B
     220:  00:7184  CB 19               		RR C
     221:  00:7186  CD 21 F0            .L3:		CALL PT3_NTL3	;AND A or NOP
     222:  00:7189  79                  		LD A,C
     223:  00:718A  8A                  		ADC A,D	;=ADC 0
     224:  00:718B  77                  		LD [HL],A
     225:  00:718C  23                  		INC HL
     226:  00:718D  78                  		LD A,B
     227:  00:718E  8A                  		ADC A,D
     228:  00:718F  77                  		LD [HL],A
     229:  00:7190  19                  		ADD HL,DE
     230:  00:7191  DD 25               		db $DD,$25	;DEC XH
     231:  00:7193  20 ED               		JR NZ,.L2
     232:  00:7195                      
     233:  00:7195  D1                  		POP DE
     234:  00:7196  13                  		INC DE
     235:  00:7197  13                  		INC DE
     236:  00:7198  E1                  		POP HL
     237:  00:7199  23                  		INC HL
     238:  00:719A  C1                  		POP BC
     239:  00:719B  10 D8               		DJNZ .L1
     240:  00:719D                      
     241:  00:719D  E1                  		POP HL
     242:  00:719E  D1                  		POP DE
     243:  00:719F                      
     244:  00:719F  7B                  		LD A,E
     245:  00:71A0  D5                  		PUSH DE
     246:  00:71A1  11 37 76            		LD DE,TCOLD_1
     247:  00:71A4  BB                  		CP E
     248:  00:71A5  D1                  		POP DE
     249:  00:71A6  20 05               		JR NZ,.CORR_1
     250:  00:71A8  3E FD               		LD A,$FD
     251:  00:71AA  32 AE F0            		LD [NT_+$2E],A
     252:  00:71AD                      
     253:  00:71AD  1A                  .CORR_1:	LD A,[DE]
     254:  00:71AE  A7                  		AND A
     255:  00:71AF  28 11               		JR Z,.TC_EXIT
     256:  00:71B1  1F                  		RRA
     257:  00:71B2  F5                  		PUSH AF
     258:  00:71B3  87                  		ADD A,A
     259:  00:71B4  4F                  		LD C,A
     260:  00:71B5  09                  		ADD HL,BC
     261:  00:71B6  F1                  		POP AF
     262:  00:71B7  30 02               		JR NC,.CORR_2
     263:  00:71B9  35                  		DEC [HL]
     264:  00:71BA  35                  		DEC [HL]
     265:  00:71BB  34                  .CORR_2:	INC [HL]
     266:  00:71BC  A7                  		AND A
     267:  00:71BD  ED 42               		SBC HL,BC
     268:  00:71BF  13                  		INC DE
     269:  00:71C0  18 EB               		JR .CORR_1
     270:  00:71C2                      
     271:  00:71C2                      .TC_EXIT:	;POP AF
     272:  00:71C2                      
     273:  00:71C2                      		; --- CREATE PT3 VOLUME TABLE (c) Ivan Roshin, adapted by SapphiRe ---
     274:  00:71C2  21 11 00            		ld	hl,$11
     275:  00:71C5  54                  		ld	d,h
     276:  00:71C6  5C                  		ld	e,h
     277:  00:71C7  DD 21 50 F1         		ld	IX,VT_+16
     278:  00:71CB  06 0F               		ld	b,15
     279:  00:71CD  E5                  .INITV1:	push	hl
     280:  00:71CE  19                  		add	hl,de
     281:  00:71CF  EB                  		ex	de,hl
     282:  00:71D0  ED 62               		sbc	hl,hl
     283:  00:71D2  48                  		ld	c,b
     284:  00:71D3  06 10               		ld	b,16
     285:  00:71D5  7D                  .INITV2:	ld	a,l
     286:  00:71D6  17                  		rla
     287:  00:71D7  7C                  		ld	a,h
     288:  00:71D8  CE 00               		adc	a,0
     289:  00:71DA  DD 77 00            		ld	[ix],a
     290:  00:71DD  DD 23               		inc	ix
     291:  00:71DF  19                  		add	hl,de
     292:  00:71E0  10 F3               		djnz	.INITV2
     293:  00:71E2  E1                  		pop	hl
     294:  00:71E3  7B                  		ld	a,e
     295:  00:71E4  FE 77               		cp	$77
     296:  00:71E6  20 01               		jr	nz,.INITV3
     297:  00:71E8  1C                  		inc	e
     298:  00:71E9  41                  .INITV3:	ld	b,c
     299:  00:71EA  10 E1               		djnz	.INITV1
     300:  00:71EC                      
     301:  00:71EC  C9                  		RET
     302:  00:71ED                      
     303:  00:71ED                      		;pattern decoder
     304:  00:71ED  DD 36 08 00         PD_OrSm:	LD [IX+(CHNPRM_Env_En-12)],0
     305:  00:71F1  CD 77 73            		CALL SETORN
     306:  00:71F4  0A                  		LD A,[BC]
     307:  00:71F5  03                  		INC BC
     308:  00:71F6  0F                  		RRCA
     309:  00:71F7                      
     310:  00:71F7  87                  PD_SAM:		ADD A,A
     311:  00:71F8  5F                  PD_SAM_:	LD E,A
     312:  00:71F9  16 00               		LD D,0
     313:  00:71FB  2A 05 F0            		LD HL,[PT3_SAMPTRS]
     314:  00:71FE  19                  		ADD HL,DE
     315:  00:71FF  5E                  		LD E,[HL]
     316:  00:7200  23                  		INC HL
     317:  00:7201  56                  		LD D,[HL]
     318:  00:7202  2A 01 F0            		LD HL,[PT3_MODADDR]
     319:  00:7205  19                  		ADD HL,DE
     320:  00:7206  DD 75 03            		LD [IX+(CHNPRM_SamPtr-12)],L
     321:  00:7209  DD 74 04            		LD [IX+(CHNPRM_SamPtr+1-12)],H
     322:  00:720C  18 41               		JR PD_LOOP
     323:  00:720E                      
     324:  00:720E  07                  PD_VOL:		RLCA
     325:  00:720F  07                  		RLCA
     326:  00:7210  07                  		RLCA
     327:  00:7211  07                  		RLCA
     328:  00:7212  DD 77 10            		LD [IX+(CHNPRM_Volume-12)],A
     329:  00:7215  18 3B               		JR PD_LP2
     330:  00:7217                      	
     331:  00:7217  DD 77 08            PD_EOff:	LD [IX+(CHNPRM_Env_En-12)],A
     332:  00:721A  DD 77 F4            		LD [IX+(CHNPRM_PsInOr-12)],A
     333:  00:721D  18 33               		JR PD_LP2
     334:  00:721F                      
     335:  00:721F  3D                  PD_SorE:	DEC A
     336:  00:7220  20 07               		JR NZ,PD_ENV
     337:  00:7222  0A                  		LD A,[BC]
     338:  00:7223  03                  		INC BC
     339:  00:7224  DD 77 05            		LD [IX+(CHNPRM_NNtSkp-12)],A
     340:  00:7227  18 29               		JR PD_LP2
     341:  00:7229                      
     342:  00:7229  CD 5B 73            PD_ENV:		CALL SETENV
     343:  00:722C  18 24               		JR PD_LP2
     344:  00:722E                      
     345:  00:722E  CD 77 73            PD_ORN:		CALL SETORN
     346:  00:7231  18 1C               		JR PD_LOOP
     347:  00:7233                             
     348:  00:7233  DD 77 08            PD_ESAM:	LD [IX+(CHNPRM_Env_En-12)],A
     349:  00:7236  DD 77 F4            		LD [IX+(CHNPRM_PsInOr-12)],A
     350:  00:7239  C4 5B 73            		CALL NZ,SETENV
     351:  00:723C  0A                  		LD A,[BC]
     352:  00:723D  03                  		INC BC
     353:  00:723E  18 B8               		JR PD_SAM_
     354:  00:7240                      
     355:  00:7240  DD 7E 06            PTDECOD:	LD A,[IX+(CHNPRM_Note-12)]
     356:  00:7243  32 0F F0            		LD [PT3_PrNote],A
     357:  00:7246  DD 6E FA            		LD L,[IX+(CHNPRM_CrTnSl-12)]
     358:  00:7249  DD 66 FB            		LD H,[IX+(CHNPRM_CrTnSl+1-12)]
     359:  00:724C  22 10 F0            		LD [PT3_PrSlide],HL
     360:  00:724F                      
     361:  00:724F  11 10 20            PD_LOOP:	LD DE,$2010
     362:  00:7252  0A                  PD_LP2:		LD A,[BC]
     363:  00:7253  03                  		INC BC
     364:  00:7254  83                  		ADD A,E
     365:  00:7255  38 96               		JR C,PD_OrSm
     366:  00:7257  82                  		ADD A,D
     367:  00:7258  28 4A               		JR Z,PD_FIN
     368:  00:725A  38 9B               		JR C,PD_SAM
     369:  00:725C  83                  		ADD A,E
     370:  00:725D  28 25               		JR Z,PD_REL
     371:  00:725F  38 AD               		JR C,PD_VOL
     372:  00:7261  83                  		ADD A,E
     373:  00:7262  28 B3               		JR Z,PD_EOff
     374:  00:7264  38 B9               		JR C,PD_SorE
     375:  00:7266  C6 60               		ADD A,96
     376:  00:7268  38 20               		JR C,PD_NOTE
     377:  00:726A  83                  		ADD A,E
     378:  00:726B  38 C1               		JR C,PD_ORN
     379:  00:726D  82                  		ADD A,D
     380:  00:726E  38 0F               		JR C,PD_NOIS
     381:  00:7270  83                  		ADD A,E
     382:  00:7271  38 C0               		JR C,PD_ESAM
     383:  00:7273  87                  		ADD A,A
     384:  00:7274  5F                  		LD E,A
     385:  00:7275  21 B0 52            		LD HL,(SPCCOMS+$DF20) % 65536	; Adapted from original Speccy version (saves 6 bytes)
     386:  00:7278  19                  		ADD HL,DE
     387:  00:7279  5E                  		LD E,[HL]
     388:  00:727A  23                  		INC HL
     389:  00:727B  56                  		LD D,[HL]
     390:  00:727C  D5                  		PUSH DE
     391:  00:727D  18 D0               		JR PD_LOOP
     392:  00:727F                      
     393:  00:727F  32 7E F0            PD_NOIS:	LD [Ns_Base],A
     394:  00:7282  18 CE               		JR PD_LP2
     395:  00:7284                      
     396:  00:7284  DD CB 09 86         PD_REL:		RES 0,[IX+(CHNPRM_Flags-12)]
     397:  00:7288  18 08               		JR PD_RES
     398:  00:728A                      	
     399:  00:728A  DD 77 06            PD_NOTE:	LD [IX+(CHNPRM_Note-12)],A
     400:  00:728D  DD CB 09 C6         		SET 0,[IX+(CHNPRM_Flags-12)]
     401:  00:7291  AF                  		XOR A
     402:  00:7292                      
     403:  00:7292  ED 73 09 F0         PD_RES:		LD [PT3_PDSP],SP
     404:  00:7296  DD F9               		LD SP,IX
     405:  00:7298  67                  		LD H,A
     406:  00:7299  6F                  		LD L,A
     407:  00:729A  E5                  		PUSH HL
     408:  00:729B  E5                  		PUSH HL
     409:  00:729C  E5                  		PUSH HL
     410:  00:729D  E5                  		PUSH HL
     411:  00:729E  E5                  		PUSH HL
     412:  00:729F  E5                  		PUSH HL
     413:  00:72A0  ED 7B 09 F0         		LD SP,[PT3_PDSP]
     414:  00:72A4                      
     415:  00:72A4  DD 7E 05            PD_FIN:		LD A,[IX+(CHNPRM_NNtSkp-12)]
     416:  00:72A7  DD 77 0F            		LD [IX+(CHNPRM_NtSkCn-12)],A
     417:  00:72AA  C9                  		RET
     418:  00:72AB                      
     419:  00:72AB  DD CB 09 96         C_PORTM:	RES 2,[IX+(CHNPRM_Flags-12)]
     420:  00:72AF  0A                  		LD A,[BC]
     421:  00:72B0  03                  		INC BC
     422:  00:72B1                      		;SKIP PRECALCULATED TONE DELTA [BECAUSE
     423:  00:72B1                      		;CANNOT BE RIGHT AFTER PT3 COMPILATION]
     424:  00:72B1  03                  		INC BC
     425:  00:72B2  03                  		INC BC
     426:  00:72B3  DD 77 0A            		LD [IX+(CHNPRM_TnSlDl-12)],A
     427:  00:72B6  DD 77 F9            		LD [IX+(CHNPRM_TSlCnt-12)],A
     428:  00:72B9  11 80 F0            		LD DE,NT_
     429:  00:72BC  DD 7E 06            		LD A,[IX+(CHNPRM_Note-12)]
     430:  00:72BF  DD 77 07            		LD [IX+(CHNPRM_SlToNt-12)],A
     431:  00:72C2  87                  		ADD A,A
     432:  00:72C3  6F                  		LD L,A
     433:  00:72C4  26 00               		LD H,0
     434:  00:72C6  19                  		ADD HL,DE
     435:  00:72C7  7E                  		LD A,[HL]
     436:  00:72C8  23                  		INC HL
     437:  00:72C9  66                  		LD H,[HL]
     438:  00:72CA  6F                  		LD L,A
     439:  00:72CB  E5                  		PUSH HL
     440:  00:72CC  3A 0F F0            		LD A,[PT3_PrNote]
     441:  00:72CF  DD 77 06            		LD [IX+(CHNPRM_Note-12)],A
     442:  00:72D2  87                  		ADD A,A
     443:  00:72D3  6F                  		LD L,A
     444:  00:72D4  26 00               		LD H,0
     445:  00:72D6  19                  		ADD HL,DE
     446:  00:72D7  5E                  		LD E,[HL]
     447:  00:72D8  23                  		INC HL
     448:  00:72D9  56                  		LD D,[HL]
     449:  00:72DA  E1                  		POP HL
     450:  00:72DB  ED 52               		SBC HL,DE
     451:  00:72DD  DD 75 0D            		LD [IX+(CHNPRM_TnDelt-12)],L
     452:  00:72E0  DD 74 0E            		LD [IX+(CHNPRM_TnDelt+1-12)],H
     453:  00:72E3  ED 5B 10 F0         		LD DE,[PT3_PrSlide]
     454:  00:72E7  DD 73 FA            		LD [IX+(CHNPRM_CrTnSl-12)],E
     455:  00:72EA  DD 72 FB            		LD [IX+(CHNPRM_CrTnSl+1-12)],D
     456:  00:72ED  0A                  		LD A,[BC] ;SIGNED TONE STEP
     457:  00:72EE  03                  		INC BC
     458:  00:72EF  08                  		EX AF,AF'
     459:  00:72F0  0A                  		LD A,[BC]
     460:  00:72F1  03                  		INC BC
     461:  00:72F2  A7                  		AND A
     462:  00:72F3  28 01               		JR Z,.NOSIG
     463:  00:72F5  EB                  		EX DE,HL
     464:  00:72F6  ED 52               .NOSIG:	SBC HL,DE
     465:  00:72F8  F2 00 73            		JP P,SET_STP
     466:  00:72FB  2F                  		CPL
     467:  00:72FC  08                  		EX AF,AF'
     468:  00:72FD  ED 44               		NEG
     469:  00:72FF  08                  		EX AF,AF'
     470:  00:7300  DD 77 0C            SET_STP:	LD [IX+(CHNPRM_TSlStp+1-12)],A
     471:  00:7303  08                  		EX AF,AF'
     472:  00:7304  DD 77 0B            		LD [IX+(CHNPRM_TSlStp-12)],A
     473:  00:7307  DD 36 FE 00         		LD [IX+(CHNPRM_COnOff-12)],0
     474:  00:730B  C9                  		RET
     475:  00:730C                      
     476:  00:730C  DD CB 09 D6         C_GLISS:	SET 2,[IX+(CHNPRM_Flags-12)]
     477:  00:7310  0A                  		LD A,[BC]
     478:  00:7311  03                  		INC BC
     479:  00:7312  DD 77 0A            		LD [IX+(CHNPRM_TnSlDl-12)],A
     480:  00:7315  DD 77 F9            		LD [IX+(CHNPRM_TSlCnt-12)],A
     481:  00:7318  0A                  		LD A,[BC]
     482:  00:7319  03                  		INC BC
     483:  00:731A  08                  		EX AF,AF'
     484:  00:731B  0A                  		LD A,[BC]
     485:  00:731C  03                  		INC BC
     486:  00:731D  18 E1               		JR SET_STP
     487:  00:731F                      
     488:  00:731F  0A                  C_SMPOS:	LD A,[BC]
     489:  00:7320  03                  		INC BC
     490:  00:7321  DD 77 F5            		LD [IX+(CHNPRM_PsInSm-12)],A
     491:  00:7324  C9                  		RET
     492:  00:7325                      
     493:  00:7325  0A                  C_ORPOS:	LD A,[BC]
     494:  00:7326  03                  		INC BC
     495:  00:7327  DD 77 F4            		LD [IX+(CHNPRM_PsInOr-12)],A
     496:  00:732A  C9                  		RET
     497:  00:732B                      
     498:  00:732B  0A                  C_VIBRT:	LD A,[BC]
     499:  00:732C  03                  		INC BC
     500:  00:732D  DD 77 FF            		LD [IX+(CHNPRM_OnOffD-12)],A
     501:  00:7330  DD 77 FE            		LD [IX+(CHNPRM_COnOff-12)],A
     502:  00:7333  0A                  		LD A,[BC]
     503:  00:7334  03                  		INC BC
     504:  00:7335  DD 77 00            		LD [IX+(CHNPRM_OffOnD-12)],A
     505:  00:7338  AF                  		XOR A
     506:  00:7339  DD 77 F9            		LD [IX+(CHNPRM_TSlCnt-12)],A
     507:  00:733C  DD 77 FA            		LD [IX+(CHNPRM_CrTnSl-12)],A
     508:  00:733F  DD 77 FB            		LD [IX+(CHNPRM_CrTnSl+1-12)],A
     509:  00:7342  C9                  		RET
     510:  00:7343                      
     511:  00:7343  0A                  C_ENGLS:	LD A,[BC]
     512:  00:7344  03                  		INC BC
     513:  00:7345  32 1E F0            		LD [PT3_Env_Del],A
     514:  00:7348  32 7D F0            		LD [CurEDel],A
     515:  00:734B  0A                  		LD A,[BC]
     516:  00:734C  03                  		INC BC
     517:  00:734D  6F                  		LD L,A
     518:  00:734E  0A                  		LD A,[BC]
     519:  00:734F  03                  		INC BC
     520:  00:7350  67                  		LD H,A
     521:  00:7351  22 1F F0            		LD [PT3_ESldAdd],HL
     522:  00:7354  C9                  		RET
     523:  00:7355                      
     524:  00:7355  0A                  C_DELAY:	LD A,[BC]
     525:  00:7356  03                  		INC BC
     526:  00:7357  32 1C F0            		LD [PT3_Delay],A
     527:  00:735A  C9                  		RET
     528:  00:735B                      	
     529:  00:735B  DD 73 08            SETENV:		LD [IX+(CHNPRM_Env_En-12)],E
     530:  00:735E  32 4D F1            		LD [AYREGS+AR_EnvTp],A
     531:  00:7361  0A                  		LD A,[BC]
     532:  00:7362  03                  		INC BC
     533:  00:7363  67                  		LD H,A
     534:  00:7364  0A                  		LD A,[BC]
     535:  00:7365  03                  		INC BC
     536:  00:7366  6F                  		LD L,A
     537:  00:7367  22 4E F1            		LD [EnvBase],HL
     538:  00:736A  AF                  		XOR A
     539:  00:736B  DD 77 F4            		LD [IX+(CHNPRM_PsInOr-12)],A
     540:  00:736E  32 7D F0            		LD [CurEDel],A
     541:  00:7371  67                  		LD H,A
     542:  00:7372  6F                  		LD L,A
     543:  00:7373  22 7B F0            		LD [CurESld],HL
     544:  00:7376  C9                  C_NOP:		RET
     545:  00:7377                      
     546:  00:7377  87                  SETORN:		ADD A,A
     547:  00:7378  5F                  		LD E,A
     548:  00:7379  16 00               		LD D,0
     549:  00:737B  DD 72 F4            		LD [IX+(CHNPRM_PsInOr-12)],D
     550:  00:737E  2A 07 F0            		LD HL,[PT3_OrnPtrs]
     551:  00:7381  19                  		ADD HL,DE
     552:  00:7382  5E                  		LD E,[HL]
     553:  00:7383  23                  		INC HL
     554:  00:7384  56                  		LD D,[HL]
     555:  00:7385  2A 01 F0            		LD HL,[PT3_MODADDR]
     556:  00:7388  19                  		ADD HL,DE
     557:  00:7389  DD 75 01            		LD [IX+(CHNPRM_OrnPtr-12)],L
     558:  00:738C  DD 74 02            		LD [IX+(CHNPRM_OrnPtr+1-12)],H
     559:  00:738F  C9                  		RET
     560:  00:7390                      
     561:  00:7390                      		;ALL 16 ADDRESSES TO PROTECT FROM BROKEN PT3 MODULES
     562:  00:7390  76 73               SPCCOMS:	dw C_NOP
     563:  00:7392  0C 73               		dw C_GLISS
     564:  00:7394  AB 72               		dw C_PORTM
     565:  00:7396  1F 73               		dw C_SMPOS
     566:  00:7398  25 73               		dw C_ORPOS
     567:  00:739A  2B 73               		dw C_VIBRT
     568:  00:739C  76 73               		dw C_NOP
     569:  00:739E  76 73               		dw C_NOP
     570:  00:73A0  43 73               		dw C_ENGLS
     571:  00:73A2  55 73               		dw C_DELAY
     572:  00:73A4  76 73               		dw C_NOP
     573:  00:73A6  76 73               		dw C_NOP
     574:  00:73A8  76 73               		dw C_NOP
     575:  00:73AA  76 73               		dw C_NOP
     576:  00:73AC  76 73               		dw C_NOP
     577:  00:73AE  76 73               		dw C_NOP
     578:  00:73B0                      
     579:  00:73B0  AF                  CHREGS:		XOR A
     580:  00:73B1  32 4A F1            		LD [AYREGS+AR_AmplC],A
     581:  00:73B4  DD CB 15 46         		BIT 0,[IX+CHNPRM_Flags]
     582:  00:73B8  E5                  		PUSH HL
     583:  00:73B9  CA DF 74            		JP Z,.CH_EXIT
     584:  00:73BC  ED 73 0B F0         		LD [PT3_CSP],SP
     585:  00:73C0  DD 6E 0D            		LD L,[IX+CHNPRM_OrnPtr]
     586:  00:73C3  DD 66 0E            		LD H,[IX+CHNPRM_OrnPtr+1]
     587:  00:73C6  F9                  		LD SP,HL
     588:  00:73C7  D1                  		POP DE
     589:  00:73C8  67                  		LD H,A
     590:  00:73C9  DD 7E 00            		LD A,[IX+CHNPRM_PsInOr]
     591:  00:73CC  6F                  		LD L,A
     592:  00:73CD  39                  		ADD HL,SP
     593:  00:73CE  3C                  		INC A
     594:  00:73CF  BA                  		CP D
     595:  00:73D0  38 01               		JR C,.CH_ORPS
     596:  00:73D2  7B                  		LD A,E
     597:  00:73D3  DD 77 00            .CH_ORPS:	LD [IX+CHNPRM_PsInOr],A
     598:  00:73D6  DD 7E 12            		LD A,[IX+CHNPRM_Note]
     599:  00:73D9  86                  		ADD A,[HL]
     600:  00:73DA  F2 DE 73            		JP P,.CH_NTP
     601:  00:73DD  AF                  		XOR A
     602:  00:73DE  FE 60               .CH_NTP:	CP 96
     603:  00:73E0  38 02               		JR C,.CH_NOK
     604:  00:73E2  3E 5F               		LD A,95
     605:  00:73E4  87                  .CH_NOK:	ADD A,A
     606:  00:73E5  08                  		EX AF,AF'
     607:  00:73E6  DD 6E 0F            		LD L,[IX+CHNPRM_SamPtr]
     608:  00:73E9  DD 66 10            		LD H,[IX+CHNPRM_SamPtr+1]
     609:  00:73EC  F9                  		LD SP,HL
     610:  00:73ED  D1                  		POP DE
     611:  00:73EE  26 00               		LD H,0
     612:  00:73F0  DD 7E 01            		LD A,[IX+CHNPRM_PsInSm]
     613:  00:73F3  47                  		LD B,A
     614:  00:73F4  87                  		ADD A,A
     615:  00:73F5  87                  		ADD A,A
     616:  00:73F6  6F                  		LD L,A
     617:  00:73F7  39                  		ADD HL,SP
     618:  00:73F8  F9                  		LD SP,HL
     619:  00:73F9  78                  		LD A,B
     620:  00:73FA  3C                  		INC A
     621:  00:73FB  BA                  		CP D
     622:  00:73FC  38 01               		JR C,.CH_SMPS
     623:  00:73FE  7B                  		LD A,E
     624:  00:73FF  DD 77 01            .CH_SMPS:	LD [IX+CHNPRM_PsInSm],A
     625:  00:7402  C1                  		POP BC
     626:  00:7403  E1                  		POP HL
     627:  00:7404  DD 5E 08            		LD E,[IX+CHNPRM_TnAcc]
     628:  00:7407  DD 56 09            		LD D,[IX+CHNPRM_TnAcc+1]
     629:  00:740A  19                  		ADD HL,DE
     630:  00:740B  CB 70               		BIT 6,B
     631:  00:740D  28 06               		JR Z,.CH_NOAC
     632:  00:740F  DD 75 08            		LD [IX+CHNPRM_TnAcc],L
     633:  00:7412  DD 74 09            		LD [IX+CHNPRM_TnAcc+1],H
     634:  00:7415  EB                  .CH_NOAC:	EX DE,HL
     635:  00:7416  08                  		EX AF,AF'
     636:  00:7417  6F                  		LD L,A
     637:  00:7418  26 00               		LD H,0
     638:  00:741A  31 80 F0            		LD SP,NT_
     639:  00:741D  39                  		ADD HL,SP
     640:  00:741E  F9                  		LD SP,HL
     641:  00:741F  E1                  		POP HL
     642:  00:7420  19                  		ADD HL,DE
     643:  00:7421  DD 5E 06            		LD E,[IX+CHNPRM_CrTnSl]
     644:  00:7424  DD 56 07            		LD D,[IX+CHNPRM_CrTnSl+1]
     645:  00:7427  19                  		ADD HL,DE
     646:  00:7428  ED 7B 0B F0         		LD SP,[PT3_CSP]
     647:  00:742C  E3                  		EX [SP],HL
     648:  00:742D  AF                  		XOR A
     649:  00:742E  DD B6 05            		OR [IX+CHNPRM_TSlCnt]
     650:  00:7431  28 3E               		JR Z,.CH_AMP
     651:  00:7433  DD 35 05            		DEC [IX+CHNPRM_TSlCnt]
     652:  00:7436  20 39               		JR NZ,.CH_AMP
     653:  00:7438  DD 7E 16            		LD A,[IX+CHNPRM_TnSlDl]
     654:  00:743B  DD 77 05            		LD [IX+CHNPRM_TSlCnt],A
     655:  00:743E  DD 6E 17            		LD L,[IX+CHNPRM_TSlStp]
     656:  00:7441  DD 66 18            		LD H,[IX+CHNPRM_TSlStp+1]
     657:  00:7444  7C                  		LD A,H
     658:  00:7445  19                  		ADD HL,DE
     659:  00:7446  DD 75 06            		LD [IX+CHNPRM_CrTnSl],L
     660:  00:7449  DD 74 07            		LD [IX+CHNPRM_CrTnSl+1],H
     661:  00:744C  DD CB 15 56         		BIT 2,[IX+CHNPRM_Flags]
     662:  00:7450  20 1F               		JR NZ,.CH_AMP
     663:  00:7452  DD 5E 19            		LD E,[IX+CHNPRM_TnDelt]
     664:  00:7455  DD 56 1A            		LD D,[IX+CHNPRM_TnDelt+1]
     665:  00:7458  A7                  		AND A
     666:  00:7459  28 01               		JR Z,.CH_STPP
     667:  00:745B  EB                  		EX DE,HL
     668:  00:745C  ED 52               .CH_STPP:	SBC HL,DE
     669:  00:745E  FA 71 74            		JP M,.CH_AMP
     670:  00:7461  DD 7E 13            		LD A,[IX+CHNPRM_SlToNt]
     671:  00:7464  DD 77 12            		LD [IX+CHNPRM_Note],A
     672:  00:7467  AF                  		XOR A
     673:  00:7468  DD 77 05            		LD [IX+CHNPRM_TSlCnt],A
     674:  00:746B  DD 77 06            		LD [IX+CHNPRM_CrTnSl],A
     675:  00:746E  DD 77 07            		LD [IX+CHNPRM_CrTnSl+1],A
     676:  00:7471  DD 7E 02            .CH_AMP:	LD A,[IX+CHNPRM_CrAmSl]
     677:  00:7474  CB 79               		BIT 7,C
     678:  00:7476  28 13               		JR Z,.CH_NOAM
     679:  00:7478  CB 71               		BIT 6,C
     680:  00:747A  28 07               		JR Z,.CH_AMIN
     681:  00:747C  FE 0F               		CP 15
     682:  00:747E  28 0B               		JR Z,.CH_NOAM
     683:  00:7480  3C                  		INC A
     684:  00:7481  18 05               		JR .CH_SVAM
     685:  00:7483  FE F1               .CH_AMIN:	CP -15
     686:  00:7485  28 04               		JR Z,.CH_NOAM
     687:  00:7487  3D                  		DEC A
     688:  00:7488  DD 77 02            .CH_SVAM:	LD [IX+CHNPRM_CrAmSl],A
     689:  00:748B  6F                  .CH_NOAM:	LD L,A
     690:  00:748C  78                  		LD A,B
     691:  00:748D  E6 0F               		AND 15
     692:  00:748F  85                  		ADD A,L
     693:  00:7490  F2 94 74            		JP P,.CH_APOS
     694:  00:7493  AF                  		XOR A
     695:  00:7494  FE 10               .CH_APOS:	CP 16
     696:  00:7496  38 02               		JR C,.CH_VOL
     697:  00:7498  3E 0F               		LD A,15
     698:  00:749A  DD B6 1C            .CH_VOL:	OR [IX+CHNPRM_Volume]
     699:  00:749D  6F                  		LD L,A
     700:  00:749E  26 00               		LD H,0
     701:  00:74A0  11 40 F1            		LD DE,VT_
     702:  00:74A3  19                  		ADD HL,DE
     703:  00:74A4  7E                  		LD A,[HL]
     704:  00:74A5  CB 41               .CH_ENV:	BIT 0,C
     705:  00:74A7  20 03               		JR NZ,.CH_NOEN
     706:  00:74A9  DD B6 14            		OR [IX+CHNPRM_Env_En]
     707:  00:74AC  32 4A F1            .CH_NOEN:	LD [AYREGS+AR_AmplC],A
     708:  00:74AF  CB 78               		BIT 7,B
     709:  00:74B1  79                  		LD A,C
     710:  00:74B2  28 19               		JR Z,.NO_ENSL
     711:  00:74B4  17                  		RLA
     712:  00:74B5  17                  		RLA
     713:  00:74B6  CB 2F               		SRA A
     714:  00:74B8  CB 2F               		SRA A
     715:  00:74BA  CB 2F               		SRA A
     716:  00:74BC  DD 86 04            		ADD A,[IX+CHNPRM_CrEnSl] ;SEE COMMENT BELOW
     717:  00:74BF  CB 68               		BIT 5,B
     718:  00:74C1  28 03               		JR Z,.NO_ENAC
     719:  00:74C3  DD 77 04            		LD [IX+CHNPRM_CrEnSl],A
     720:  00:74C6  21 1D F0            .NO_ENAC:	LD HL,PT3_AddToEn
     721:  00:74C9  86                  		ADD A,[HL] ;BUG IN PT3 - NEED WORD HERE.
     722:  00:74CA                      			   ;FIX IT IN NEXT VERSION?
     723:  00:74CA  77                  		LD [HL],A
     724:  00:74CB  18 0E               		JR .CH_MIX
     725:  00:74CD  1F                  .NO_ENSL:	RRA
     726:  00:74CE  DD 86 03            		ADD A,[IX+CHNPRM_CrNsSl]
     727:  00:74D1  32 7F F0            		LD [AddToNs],A
     728:  00:74D4  CB 68               		BIT 5,B
     729:  00:74D6  28 03               		JR Z,.CH_MIX
     730:  00:74D8  DD 77 03            		LD [IX+CHNPRM_CrNsSl],A
     731:  00:74DB  78                  .CH_MIX:	LD A,B
     732:  00:74DC  1F                  		RRA
     733:  00:74DD  E6 48               		AND $48
     734:  00:74DF  21 47 F1            .CH_EXIT:	LD HL,AYREGS+AR_Mixer
     735:  00:74E2  B6                  		OR [HL]
     736:  00:74E3  0F                  		RRCA
     737:  00:74E4  77                  		LD [HL],A
     738:  00:74E5  E1                  		POP HL
     739:  00:74E6  AF                  		XOR A
     740:  00:74E7  DD B6 0A            		OR [IX+CHNPRM_COnOff]
     741:  00:74EA  C8                  		RET Z
     742:  00:74EB  DD 35 0A            		DEC [IX+CHNPRM_COnOff]
     743:  00:74EE  C0                  		RET NZ
     744:  00:74EF  DD AE 15            		XOR [IX+CHNPRM_Flags]
     745:  00:74F2  DD 77 15            		LD [IX+CHNPRM_Flags],A
     746:  00:74F5  1F                  		RRA
     747:  00:74F6  DD 7E 0B            		LD A,[IX+CHNPRM_OnOffD]
     748:  00:74F9  38 03               		JR C,.CH_ONDL
     749:  00:74FB  DD 7E 0C            		LD A,[IX+CHNPRM_OffOnD]
     750:  00:74FE  DD 77 0A            .CH_ONDL:	LD [IX+CHNPRM_COnOff],A
     751:  00:7501  C9                  		RET
     752:  00:7502                      
     753:  00:7502  AF                  PT3_PLAY:	XOR A
     754:  00:7503  32 1D F0            		LD [PT3_AddToEn],A
     755:  00:7506  32 47 F1            		LD [AYREGS+AR_Mixer],A
     756:  00:7509  3D                  		DEC A
     757:  00:750A  32 4D F1            		LD [AYREGS+AR_EnvTp],A
     758:  00:750D  21 7A F0            		LD HL,DelyCnt
     759:  00:7510  35                  		DEC [HL]
     760:  00:7511  C2 98 75            		JP NZ,.PL2
     761:  00:7514  21 3E F0            		LD HL,ChanA+CHNPRM_NtSkCn
     762:  00:7517  35                  		DEC [HL]
     763:  00:7518  20 4E               		JR NZ,.PL1B
     764:  00:751A  ED 4B 12 F0         		LD BC,[PT3_AdInPtA]
     765:  00:751E  0A                  		LD A,[BC]
     766:  00:751F  A7                  		AND A
     767:  00:7520  20 3B               		JR NZ,.PL1A
     768:  00:7522  57                  		LD D,A
     769:  00:7523  32 7E F0            		LD [Ns_Base],A
     770:  00:7526  2A 03 F0            		LD HL,[PT3_CrPsPtr]
     771:  00:7529  23                  		INC HL
     772:  00:752A  7E                  		LD A,[HL]
     773:  00:752B  3C                  		INC A
     774:  00:752C  20 08               		JR NZ,.PLNLP
     775:  00:752E  CD 98 70            		CALL CHECKLP
     776:  00:7531  2A 18 F0            		LD HL,[PT3_LPosPtr]
     777:  00:7534  7E                  		LD A,[HL]
     778:  00:7535  3C                  		INC A
     779:  00:7536  22 03 F0            .PLNLP:	LD [PT3_CrPsPtr],HL
     780:  00:7539  3D                  		DEC A
     781:  00:753A  87                  		ADD A,A
     782:  00:753B  5F                  		LD E,A
     783:  00:753C  CB 12               		RL D
     784:  00:753E  2A 1A F0            		LD HL,[PT3_PatsPtr]
     785:  00:7541  19                  		ADD HL,DE
     786:  00:7542  ED 5B 01 F0         		LD DE,[PT3_MODADDR]
     787:  00:7546  ED 73 0D F0         		LD [PT3_PSP],SP
     788:  00:754A  F9                  		LD SP,HL
     789:  00:754B  E1                  		POP HL
     790:  00:754C  19                  		ADD HL,DE
     791:  00:754D  44                  		LD B,H
     792:  00:754E  4D                  		LD C,L
     793:  00:754F  E1                  		POP HL
     794:  00:7550  19                  		ADD HL,DE
     795:  00:7551  22 14 F0            		LD [PT3_AdInPtB],HL
     796:  00:7554  E1                  		POP HL
     797:  00:7555  19                  		ADD HL,DE
     798:  00:7556  22 16 F0            		LD [PT3_AdInPtC],HL
     799:  00:7559  ED 7B 0D F0         		LD SP,[PT3_PSP]
     800:  00:755D                      
     801:  00:755D  DD 21 2F F0         .PL1A:		LD IX,ChanA+12
     802:  00:7561  CD 40 72            		CALL PTDECOD
     803:  00:7564  ED 43 12 F0         		LD [PT3_AdInPtA],BC
     804:  00:7568                      
     805:  00:7568  21 5B F0            .PL1B:		LD HL,ChanB+CHNPRM_NtSkCn
     806:  00:756B  35                  		DEC [HL]
     807:  00:756C  20 0F               		JR NZ,.PL1C
     808:  00:756E  DD 21 4C F0         		LD IX,ChanB+12
     809:  00:7572  ED 4B 14 F0         		LD BC,[PT3_AdInPtB]
     810:  00:7576  CD 40 72            		CALL PTDECOD
     811:  00:7579  ED 43 14 F0         		LD [PT3_AdInPtB],BC
     812:  00:757D                      
     813:  00:757D  21 78 F0            .PL1C:		LD HL,ChanC+CHNPRM_NtSkCn
     814:  00:7580  35                  		DEC [HL]
     815:  00:7581  20 0F               		JR NZ,.PL1D
     816:  00:7583  DD 21 69 F0         		LD IX,ChanC+12
     817:  00:7587  ED 4B 16 F0         		LD BC,[PT3_AdInPtC]
     818:  00:758B  CD 40 72            		CALL PTDECOD
     819:  00:758E  ED 43 16 F0         		LD [PT3_AdInPtC],BC
     820:  00:7592                      
     821:  00:7592  3A 1C F0            .PL1D:		LD A,[PT3_Delay]
     822:  00:7595  32 7A F0            		LD [DelyCnt],A
     823:  00:7598                      
     824:  00:7598  DD 21 23 F0         .PL2:		LD IX,ChanA
     825:  00:759C  2A 40 F1            		LD HL,[AYREGS+AR_TonA]
     826:  00:759F  CD B0 73            		CALL CHREGS
     827:  00:75A2  22 40 F1            		LD [AYREGS+AR_TonA],HL
     828:  00:75A5  3A 4A F1            		LD A,[AYREGS+AR_AmplC]
     829:  00:75A8  32 48 F1            		LD [AYREGS+AR_AmplA],A
     830:  00:75AB  DD 21 40 F0         		LD IX,ChanB
     831:  00:75AF  2A 42 F1            		LD HL,[AYREGS+AR_TonB]
     832:  00:75B2  CD B0 73            		CALL CHREGS
     833:  00:75B5  22 42 F1            		LD [AYREGS+AR_TonB],HL
     834:  00:75B8  3A 4A F1            		LD A,[AYREGS+AR_AmplC]
     835:  00:75BB  32 49 F1            		LD [AYREGS+AR_AmplB],A
     836:  00:75BE  DD 21 5D F0         		LD IX,ChanC
     837:  00:75C2  2A 44 F1            		LD HL,[AYREGS+AR_TonC]
     838:  00:75C5  CD B0 73            		CALL CHREGS
     839:  00:75C8  22 44 F1            		LD [AYREGS+AR_TonC],HL
     840:  00:75CB                      
     841:  00:75CB  2A 7E F0            		LD HL,[Ns_Base_AddToNs]
     842:  00:75CE  7C                  		LD A,H
     843:  00:75CF  85                  		ADD A,L
     844:  00:75D0  32 46 F1            		LD [AYREGS+AR_Noise],A
     845:  00:75D3                      
     846:  00:75D3  3A 1D F0            		LD A,[PT3_AddToEn]
     847:  00:75D6  5F                  		LD E,A
     848:  00:75D7  87                  		ADD A,A
     849:  00:75D8  9F                  		SBC A,A
     850:  00:75D9  57                  		LD D,A
     851:  00:75DA  2A 4E F1            		LD HL,[EnvBase]
     852:  00:75DD  19                  		ADD HL,DE
     853:  00:75DE  ED 5B 7B F0         		LD DE,[CurESld]
     854:  00:75E2  19                  		ADD HL,DE
     855:  00:75E3  22 4B F1            		LD [AYREGS+AR_Env],HL
     856:  00:75E6                      
     857:  00:75E6  AF                  		XOR A
     858:  00:75E7  21 7D F0            		LD HL,CurEDel
     859:  00:75EA  B6                  		OR [HL]
     860:  00:75EB  C8                  		RET Z
     861:  00:75EC  35                  		DEC [HL]
     862:  00:75ED  C0                  		RET NZ
     863:  00:75EE  3A 1E F0            		LD A,[PT3_Env_Del]
     864:  00:75F1  77                  		LD [HL],A
     865:  00:75F2  2A 1F F0            		LD HL,[PT3_ESldAdd]
     866:  00:75F5  19                  		ADD HL,DE
     867:  00:75F6  22 7B F0            		LD [CurESld],HL
     868:  00:75F9  C9                  		RET
     869:  00:75FA                      
     870:  00:75FA  AF                  PT3_ROUT:	XOR A
     871:  00:75FB                      	
     872:  00:75FB                      ROUT_A0:	; --- FIXES BITS 6 AND 7 OF MIXER ---
     873:  00:75FB  21 47 F1            		LD	HL,AYREGS+AR_Mixer
     874:  00:75FE  CB FE               		set	7,[hl]
     875:  00:7600  CB B6               		res	6,[hl]
     876:  00:7602                      
     877:  00:7602  0E A0               		LD C,$A0
     878:  00:7604  21 40 F1            		LD HL,AYREGS
     879:  00:7607  ED 79               .LOUT:		OUT [C],A
     880:  00:7609  0C                  		INC C
     881:  00:760A  ED A3               		OUTI 
     882:  00:760C  0D                  		DEC C
     883:  00:760D  3C                  		INC A
     884:  00:760E  FE 0D               		CP 13
     885:  00:7610  20 F5               		JR NZ,.LOUT
     886:  00:7612  ED 79               		OUT [C],A
     887:  00:7614  7E                  		LD A,[HL]
     888:  00:7615  A7                  		AND A
     889:  00:7616  F8                  		RET M
     890:  00:7617  0C                  		INC C
     891:  00:7618  ED 79               		OUT [C],A
     892:  00:761A  C9                  		RET
     893:  00:761B                      
     894:  00:761B  64                  NT_DATA:	db (T_NEW_0-T1_)*2
     895:  00:761C  2A                  		db TCNEW_0-T_
     896:  00:761D  65                  		db (T_OLD_0-T1_)*2+1
     897:  00:761E  00                  		db TCOLD_0-T_
     898:  00:761F  01                  		db (T_NEW_1-T1_)*2+1
     899:  00:7620  0C                  		db TCNEW_1-T_
     900:  00:7621  01                  		db (T_OLD_1-T1_)*2+1
     901:  00:7622  0C                  		db TCOLD_1-T_
     902:  00:7623  94                  		db (T_NEW_2-T1_)*2
     903:  00:7624  35                  		db TCNEW_2-T_
     904:  00:7625  30                  		db (T_OLD_2-T1_)*2
     905:  00:7626  0E                  		db TCOLD_2-T_
     906:  00:7627  60                  		db (T_NEW_3-T1_)*2
     907:  00:7628  20                  		db TCNEW_3-T_
     908:  00:7629  60                  		db (T_OLD_3-T1_)*2
     909:  00:762A  21                  		db TCOLD_3-T_
     910:  00:762B                      
     911:  00:762B                      T_:
     912:  00:762B                      
     913:  00:762B                      TCOLD_0:	db $00+1,$04+1,$08+1,$0A+1,$0C+1,$0E+1,$12+1,$14+1
     913:  00:762B  01 05 09 0B 0D 0F 13 15 
     914:  00:7633  19 25 3D 00         		db $18+1,$24+1,$3C+1,0
     915:  00:7637                      TCNEW_1:	
     916:  00:7637  5D 00               TCOLD_1:	db $5C+1,0
     917:  00:7639                      TCOLD_2:	db $30+1,$36+1,$4C+1,$52+1,$5E+1,$70+1,$82,$8C,$9C
     917:  00:7639  31 37 4D 53 5F 71 82 8C 9C 
     918:  00:7642                      		db $9E,$A0,$A6,$A8,$AA,$AC,$AE,$AE,0
     918:  00:7642  9E A0 A6 A8 AA AC AE AE 00 
     919:  00:764B  57                  TCNEW_3:	db $56+1
     920:  00:764C                      TCOLD_3:	db $1E+1,$22+1,$24+1,$28+1,$2C+1,$2E+1,$32+1,$BE+1,0
     920:  00:764C  1F 23 25 29 2D 2F 33 BF 00 
     921:  00:7655                      TCNEW_0:	db $1C+1,$20+1,$22+1,$26+1,$2A+1,$2C+1,$30+1,$54+1
     921:  00:7655  1D 21 23 27 2B 2D 31 55 
     922:  00:765D  BD BF 00            		db $BC+1,$BE+1,0
     923:  00:7660                      TCNEW_2:	db $1A+1,$20+1,$24+1,$28+1,$2A+1,$3A+1,$4C+1,$5E+1
     923:  00:7660  1B 21 25 29 2B 3B 4D 5F 
     924:  00:7668  BB BD BF            		db $BA+1,$BC+1,$BE+1
     925:  00:766B                      
     926:  00:766B  00 01 00 90         EMPTYSAMORN: 	db 0,1,0,$90 ;delete $90 if you don't need default sample
     927:  00:766F                      
     928:  00:766F                      T_PACK:		; First 12 values of tone tables (packed)
     929:  00:766F  0D                  		db ($06EC*2)/256
     930:  00:7670  D8                  		db #d8
     931:  00:7671  69                  		db $0755-$06EC
     932:  00:7672  70                  		db $07C5-$0755
     933:  00:7673  76                  		db $083B-$07C5
     934:  00:7674  7D                  		db $08B8-$083B
     935:  00:7675  85                  		db $093D-$08B8
     936:  00:7676  8D                  		db $09CA-$093D
     937:  00:7677  95                  		db $0A5F-$09CA
     938:  00:7678  9D                  		db $0AFC-$0A5F
     939:  00:7679  A8                  		db $0BA4-$0AFC
     940:  00:767A  B1                  		db $0C55-$0BA4
     941:  00:767B  BB                  		db $0D10-$0C55
     942:  00:767C  0C                  		db ($066D*2)/256
     943:  00:767D  DA                  		db #da
     944:  00:767E  62                  		db $06CF-$066D
     945:  00:767F  68                  		db $0737-$06CF
     946:  00:7680  6D                  		db $07A4-$0737
     947:  00:7681  75                  		db $0819-$07A4
     948:  00:7682  7B                  		db $0894-$0819
     949:  00:7683  83                  		db $0917-$0894
     950:  00:7684  8A                  		db $09A1-$0917
     951:  00:7685  92                  		db $0A33-$09A1
     952:  00:7686  9C                  		db $0ACF-$0A33
     953:  00:7687  A4                  		db $0B73-$0ACF
     954:  00:7688  AF                  		db $0C22-$0B73
     955:  00:7689  B8                  		db $0CDA-$0C22
     956:  00:768A  0E                  		db ($0704*2)/256
     957:  00:768B  08                  		db #08
     958:  00:768C  6A                  		db $076E-$0704
     959:  00:768D  72                  		db $07E0-$076E
     960:  00:768E  78                  		db $0858-$07E0
     961:  00:768F  7E                  		db $08D6-$0858
     962:  00:7690  86                  		db $095C-$08D6
     963:  00:7691  90                  		db $09EC-$095C
     964:  00:7692  96                  		db $0A82-$09EC
     965:  00:7693  A0                  		db $0B22-$0A82
     966:  00:7694  AA                  		db $0BCC-$0B22
     967:  00:7695  B4                  		db $0C80-$0BCC
     968:  00:7696  BE                  		db $0D3E-$0C80
     969:  00:7697  0F                  		db ($07E0*2)/256
     970:  00:7698  C0                  		db #c0
     971:  00:7699  78                  		db $0858-$07E0
     972:  00:769A  88                  		db $08E0-$0858
     973:  00:769B  80                  		db $0960-$08E0
     974:  00:769C  90                  		db $09F0-$0960
     975:  00:769D  98                  		db $0A88-$09F0
     976:  00:769E  A0                  		db $0B28-$0A88
     977:  00:769F  B0                  		db $0BD8-$0B28
     978:  00:76A0  A8                  		db $0C80-$0BD8
     979:  00:76A1  E0                  		db $0D60-$0C80
     980:  00:76A2  B0                  		db $0E10-$0D60
     981:  00:76A3  E8                  		db $0EF8-$0E10
      61.  00:76A4                      	include "ayFX-ROM_sjasm.asm"
       1:  00:76A4                      		; --- ayFX REPLAYER v1.31 ---
       2:  00:76A4                      
       3:  00:76A4                      		; --- v1.31	Fixed bug on previous version, only PSG channel C worked
       4:  00:76A4                      		; --- v1.3	Fixed volume and Relative volume versions on the same file, conditional compilation
       5:  00:76A4                      		; ---		Support for dynamic or fixed channel allocation
       6:  00:76A4                      		; --- v1.2f/r	ayFX bank support
       7:  00:76A4                      		; --- v1.11f/r	If a frame volume is zero then no AYREGS update
       8:  00:76A4                      		; --- v1.1f/r	Fixed volume for all ayFX streams
       9:  00:76A4                      		; --- v1.1	Explicit priority (as suggested by AR)
      10:  00:76A4                      		; --- v1.0f	Bug fixed (error when using noise)
      11:  00:76A4                      		; --- v1.0	Initial release
      12:  00:76A4                      
      13:  00:76A4                      		; --- DEFINE AYFXRELATIVE AS 0 FOR FIXED VOLUME VERSION ---
      14:  00:76A4                      		; --- DEFINE AYFXRELATIVE AS 1 FOR RELATIVE VOLUME VERSION ---
      15:  00:76A4  (00:0000)           AYFXRELATIVE equ 0
      16:  00:76A4                      
      17:  00:76A4                      ayFX_SETUP:	; ---          ayFX replayer setup          ---
      18:  00:76A4                      		; --- INPUT: HL -> pointer to the ayFX bank ---
      19:  00:76A4  22 41 F2            		ld	[ayFX_BANK],hl			; Current ayFX bank
      20:  00:76A7  3E 01               		ld	a,1				; a:=0
      21:  00:76A9  32 40 F2            		ld	[ayFX_MODE],a			; Initial mode: fixed channel
      22:  00:76AC  3C                  		inc	a				; Starting channel (=1)
      23:  00:76AD  32 4A F2            		ld	[ayFX_CHANNEL],a		; Updated
      24:  00:76B0                      ayFX_END:	; --- End of an ayFX stream ---
      25:  00:76B0  3E FF               		ld	a,255				; Lowest ayFX priority
      26:  00:76B2  32 43 F2            		ld	[ayFX_PRIORITY],a		; Priority saved (not playing ayFX stream)
      27:  00:76B5  C9                  		ret					; Return
      28:  00:76B6                      
      29:  00:76B6                      ayFX_INIT:	; ---     INIT A NEW ayFX STREAM     ---
      30:  00:76B6                      		; --- INPUT: A -> sound to be played ---
      31:  00:76B6                      		; ---        C -> sound priority     ---
      32:  00:76B6  C5                  		push	bc				; Store bc in stack
      33:  00:76B7  D5                  		push	de				; Store de in stack
      34:  00:76B8  E5                  		push	hl				; Store hl in stack
      35:  00:76B9                      		; --- Check if the index is in the bank ---
      36:  00:76B9  47                  		ld	b,a				; b:=a (new ayFX stream index)
      37:  00:76BA  2A 41 F2            		ld	hl,[ayFX_BANK]			; Current ayFX BANK
      38:  00:76BD  7E                  		ld	a,[hl]				; Number of samples in the bank
      39:  00:76BE  B7                  		or	a				; If zero (means 256 samples)...
      40:  00:76BF  28 06               		jr	z,.CHECK_PRI			; ...goto .CHECK_PRI
      41:  00:76C1                      		; The bank has less than 256 samples
      42:  00:76C1  78                  		ld	a,b				; a:=b (new ayFX stream index)
      43:  00:76C2  BE                  		cp	[hl]				; If new index is not in the bank...
      44:  00:76C3  3E 02               		ld	a,2				; a:=2 (error 2: Sample not in the bank)
      45:  00:76C5  30 21               		jr	nc,.INIT_END			; ...we can't init it
      46:  00:76C7                      .CHECK_PRI:	; --- Check if the new priority is lower than the current one ---
      47:  00:76C7                      		; ---   Remember: 0 = highest priority, 15 = lowest priority  ---
      48:  00:76C7  78                  		ld	a,b				; a:=b (new ayFX stream index)
      49:  00:76C8  3A 43 F2            		ld	a,[ayFX_PRIORITY]		; a:=Current ayFX stream priority
      50:  00:76CB  B9                  		cp	c				; If new ayFX stream priority is lower than current one...
      51:  00:76CC  3E 01               		ld	a,1				; a:=1 (error 1: A sample with higher priority is being played)
      52:  00:76CE  38 18               		jr	c,.INIT_END			; ...we don't start the new ayFX stream
      53:  00:76D0                      		; --- Set new priority ---
      54:  00:76D0  79                  		ld	a,c				; a:=New priority
      55:  00:76D1  E6 0F               		and	$0F				; We mask the priority
      56:  00:76D3  32 43 F2            		ld	[ayFX_PRIORITY],a		; new ayFX stream priority saved in RAM
      57:  00:76D6                      
      58:  00:76D6                      		IF ( AYFXRELATIVE == 1 )
      59:  00:76D6                    ~ 			; --- Volume adjust using PT3 volume table ---
      60:  00:76D6                    ~ 			ld	c,a				; c:=New priority (fixed)
      61:  00:76D6                    ~ 			ld	a,15				; a:=15
      62:  00:76D6                    ~ 			sub	c				; a:=15-New priority = relative volume
      63:  00:76D6                    ~ 			jr	z,.INIT_NOSOUND		; If priority is 15 -> no sound output (volume is zero)
      64:  00:76D6                    ~ 			add	a,a				; a:=a*2
      65:  00:76D6                    ~ 			add	a,a				; a:=a*4
      66:  00:76D6                    ~ 			add	a,a				; a:=a*8
      67:  00:76D6                    ~ 			add	a,a				; a:=a*16
      68:  00:76D6                    ~ 			ld	e,a				; e:=a
      69:  00:76D6                    ~ 			ld	d,0				; de:=a
      70:  00:76D6                    ~ 			ld	hl,VT_				; hl:=PT3 volume table
      71:  00:76D6                    ~ 			add	hl,de				; hl is a pointer to the relative volume table
      72:  00:76D6                    ~ 			ld	[ayFX_VT],hl			; Save pointer
      73:  00:76D6                    ~ 		ENDIF
      74:  00:76D6                      
      75:  00:76D6                      		; --- Calculate the pointer to the new ayFX stream ---
      76:  00:76D6  ED 5B 41 F2         		ld	de,[ayFX_BANK]			; de:=Current ayFX bank
      77:  00:76DA  13                  		inc	de				; de points to the increments table of the bank
      78:  00:76DB  68                  		ld	l,b				; l:=b (new ayFX stream index)
      79:  00:76DC  26 00               		ld	h,0				; hl:=b (new ayFX stream index)
      80:  00:76DE  29                  		add	hl,hl				; hl:=hl*2
      81:  00:76DF  19                  		add	hl,de				; hl:=hl+de (hl points to the correct increment)
      82:  00:76E0  5E                  		ld	e,[hl]				; e:=lower byte of the increment
      83:  00:76E1  23                  		inc	hl				; hl points to the higher byte of the correct increment
      84:  00:76E2  56                  		ld	d,[hl]				; de:=increment
      85:  00:76E3  19                  		add	hl,de				; hl:=hl+de (hl points to the new ayFX stream)
      86:  00:76E4  22 44 F2            		ld	[ayFX_POINTER],hl		; Pointer saved in RAM
      87:  00:76E7  AF                  		xor	a				; a:=0 (no errors)
      88:  00:76E8  E1                  .INIT_END:	pop	hl				; Retrieve hl from stack
      89:  00:76E9  D1                  		pop	de				; Retrieve de from stack
      90:  00:76EA  C1                  		pop	bc				; Retrieve bc from stack
      91:  00:76EB  C9                  		ret					; Return
      92:  00:76EC                      
      93:  00:76EC                      		IF ( AYFXRELATIVE == 1 )
      94:  00:76EC                    ~ .INIT_NOSOUND:	; --- Init a sample with relative volume zero -> no sound output ---
      95:  00:76EC                    ~ 			ld	a,255				; Lowest ayFX priority
      96:  00:76EC                    ~ 			ld	[ayFX_PRIORITY],a		; Priority saved (not playing ayFX stream)
      97:  00:76EC                    ~ 			jr	.INIT_END			; Jumps to .INIT_END
      98:  00:76EC                    ~ 		ENDIF
      99:  00:76EC                      
     100:  00:76EC                      ayFX_PLAY:	; --- PLAY A FRAME OF AN ayFX STREAM ---
     101:  00:76EC  3A 43 F2            		ld	a,[ayFX_PRIORITY]		; a:=Current ayFX stream priority
     102:  00:76EF  B7                  		or	a				; If priority has bit 7 on...
     103:  00:76F0  F8                  		ret	m				; ...return
     104:  00:76F1                      		; --- Calculate next ayFX channel (if needed) ---
     105:  00:76F1  3A 40 F2            		ld	a,[ayFX_MODE]			; ayFX mode
     106:  00:76F4  E6 01               		and	1				; If bit0=0 (fixed channel)...
     107:  00:76F6  28 08               		jr	z,.TAKECB			; ...skip channel changing
     108:  00:76F8  21 4A F2            		ld	hl,ayFX_CHANNEL			; Old ayFX playing channel
     109:  00:76FB  35                  		dec	[hl]				; New ayFX playing channel
     110:  00:76FC  20 02               		jr	nz,.TAKECB			; If not zero jump to .TAKECB
     111:  00:76FE  36 03               		ld	[hl],3				; If zero -> set channel 3
     112:  00:7700                      .TAKECB:	; --- Extract control byte from stream ---
     113:  00:7700  2A 44 F2            		ld	hl,[ayFX_POINTER]		; Pointer to the current ayFX stream
     114:  00:7703  4E                  		ld	c,[hl]				; c:=Control byte
     115:  00:7704  23                  		inc	hl				; Increment pointer
     116:  00:7705                      		; --- Check if there's new tone on stream ---
     117:  00:7705  CB 69               		bit	5,c				; If bit 5 c is off...
     118:  00:7707  28 08               		jr	z,.CHECK_NN			; ...jump to .CHECK_NN (no new tone)
     119:  00:7709                      		; --- Extract new tone from stream ---
     120:  00:7709  5E                  		ld	e,[hl]				; e:=lower byte of new tone
     121:  00:770A  23                  		inc	hl				; Increment pointer
     122:  00:770B  56                  		ld	d,[hl]				; d:=higher byte of new tone
     123:  00:770C  23                  		inc	hl				; Increment pointer
     124:  00:770D  ED 53 46 F2         		ld	[ayFX_TONE],de			; ayFX tone updated
     125:  00:7711                      .CHECK_NN:	; --- Check if there's new noise on stream ---
     126:  00:7711  CB 71               		bit	6,c				; if bit 6 c is off...
     127:  00:7713  28 09               		jr	z,.SETPOINTER			; ...jump to .SETPOINTER (no new noise)
     128:  00:7715                      		; --- Extract new noise from stream ---
     129:  00:7715  7E                  		ld	a,[hl]				; a:=New noise
     130:  00:7716  23                  		inc	hl				; Increment pointer
     131:  00:7717  FE 20               		cp	$20				; If it's an illegal value of noise (used to mark end of stream)...
     132:  00:7719  28 95               		jr.	z,ayFX_END			; ...jump to ayFX_END
     133:  00:771B  32 48 F2            		ld	[ayFX_NOISE],a			; ayFX noise updated
     134:  00:771E                      .SETPOINTER:	; --- Update ayFX pointer ---
     135:  00:771E  22 44 F2            		ld	[ayFX_POINTER],hl		; Update ayFX stream pointer
     136:  00:7721                      		; --- Extract volume ---
     137:  00:7721  79                  		ld	a,c				; a:=Control byte
     138:  00:7722  E6 0F               		and	$0F				; lower nibble
     139:  00:7724                      
     140:  00:7724                      		IF ( AYFXRELATIVE == 1 )
     141:  00:7724                    ~ 			; --- Fix the volume using PT3 Volume Table ---
     142:  00:7724                    ~ 			ld	hl,[ayFX_VT]			; hl:=Pointer to relative volume table
     143:  00:7724                    ~ 			ld	e,a				; e:=a (ayFX volume)
     144:  00:7724                    ~ 			ld	d,0				; d:=0
     145:  00:7724                    ~ 			add	hl,de				; hl:=hl+de (hl points to the relative volume of this frame
     146:  00:7724                    ~ 			ld	a,[hl]				; a:=ayFX relative volume
     147:  00:7724                    ~ 			or	a				; If relative volume is zero...
     148:  00:7724                    ~ 		ENDIF
     149:  00:7724                      
     150:  00:7724  32 49 F2            		ld	[ayFX_VOLUME],a			; ayFX volume updated
     151:  00:7727  C8                  		ret	z				; ...return (don't copy ayFX values in to AYREGS)
     152:  00:7728                      		; -------------------------------------
     153:  00:7728                      		; --- COPY ayFX VALUES IN TO AYREGS ---
     154:  00:7728                      		; -------------------------------------
     155:  00:7728                      		; --- Set noise channel ---
     156:  00:7728  CB 79               		bit	7,c				; If noise is off...
     157:  00:772A  20 06               		jr	nz,.SETMASKS			; ...jump to .SETMASKS
     158:  00:772C  3A 48 F2            		ld	a,[ayFX_NOISE]			; ayFX noise value
     159:  00:772F  32 46 F1            		ld	[AYREGS+6],a			; copied in to AYREGS (noise channel)
     160:  00:7732                      .SETMASKS:	; --- Set mixer masks ---
     161:  00:7732  79                  		ld	a,c				; a:=Control byte
     162:  00:7733  E6 90               		and	$90				; Only bits 7 and 4 (noise and tone mask for psg reg 7)
     163:  00:7735  FE 90               		cp	$90				; If no noise and no tone...
     164:  00:7737  C8                  		ret	z				; ...return (don't copy ayFX values in to AYREGS)
     165:  00:7738                      		; --- Copy ayFX values in to ARYREGS ---
     166:  00:7738  0F                  		rrca					; Rotate a to the right (1 TIME)
     167:  00:7739  0F                  		rrca					; Rotate a to the right (2 TIMES) (OR mask)
     168:  00:773A  16 DB               		ld	d,$DB				; d:=Mask for psg mixer (AND mask)
     169:  00:773C                      		; --- Dump to correct channel ---
     170:  00:773C  21 4A F2            		ld	hl,ayFX_CHANNEL			; Next ayFX playing channel
     171:  00:773F  46                  		ld	b,[hl]				; Channel counter
     172:  00:7740                      .CHK1:		; --- Check if playing channel was 1 ---
     173:  00:7740  10 0D               		djnz	.CHK2				; Decrement and jump if channel was not 1
     174:  00:7742                      .PLAY_C:	; --- Play ayFX stream on channel C ---
     175:  00:7742  CD 71 77            		call	.SETMIXER			; Set PSG mixer value (returning a=ayFX volume and hl=ayFX tone)
     176:  00:7745  32 4A F1            		ld	[AYREGS+10],a			; Volume copied in to AYREGS (channel C volume)
     177:  00:7748  CB 51               		bit	2,c				; If tone is off...
     178:  00:774A  C0                  		ret	nz				; ...return
     179:  00:774B  22 44 F1            		ld	[AYREGS+4],hl			; copied in to AYREGS (channel C tone)
     180:  00:774E  C9                  		ret					; Return
     181:  00:774F                      .CHK2:		; --- Check if playing channel was 2 ---
     182:  00:774F  CB 0A               		rrc	d				; Rotate right AND mask
     183:  00:7751  0F                  		rrca					; Rotate right OR mask
     184:  00:7752  10 0D               		djnz	.CHK3				; Decrement and jump if channel was not 2
     185:  00:7754                      .PLAY_B:	; --- Play ayFX stream on channel B ---
     186:  00:7754  CD 71 77            		call	.SETMIXER			; Set PSG mixer value (returning a=ayFX volume and hl=ayFX tone)
     187:  00:7757  32 49 F1            		ld	[AYREGS+9],a			; Volume copied in to AYREGS (channel B volume)
     188:  00:775A  CB 49               		bit	1,c				; If tone is off...
     189:  00:775C  C0                  		ret	nz				; ...return
     190:  00:775D  22 42 F1            		ld	[AYREGS+2],hl			; copied in to AYREGS (channel B tone)
     191:  00:7760  C9                  		ret					; Return
     192:  00:7761                      .CHK3:		; --- Check if playing channel was 3 ---
     193:  00:7761  CB 0A               		rrc	d				; Rotate right AND mask
     194:  00:7763  0F                  		rrca					; Rotate right OR mask
     195:  00:7764                      .PLAY_A:	; --- Play ayFX stream on channel A ---
     196:  00:7764  CD 71 77            		call	.SETMIXER			; Set PSG mixer value (returning a=ayFX volume and hl=ayFX tone)
     197:  00:7767  32 48 F1            		ld	[AYREGS+8],a			; Volume copied in to AYREGS (channel A volume)
     198:  00:776A  CB 41               		bit	0,c				; If tone is off...
     199:  00:776C  C0                  		ret	nz				; ...return
     200:  00:776D  22 40 F1            		ld	[AYREGS+0],hl			; copied in to AYREGS (channel A tone)
     201:  00:7770  C9                  		ret					; Return
     202:  00:7771                      .SETMIXER:	; --- Set PSG mixer value ---
     203:  00:7771  4F                  		ld	c,a				; c:=OR mask
     204:  00:7772  3A 47 F1            		ld	a,[AYREGS+7]			; a:=PSG mixer value
     205:  00:7775  A2                  		and	d				; AND mask
     206:  00:7776  B1                  		or	c				; OR mask
     207:  00:7777  32 47 F1            		ld	[AYREGS+7],a			; PSG mixer value updated
     208:  00:777A  3A 49 F2            		ld	a,[ayFX_VOLUME]			; a:=ayFX volume value
     209:  00:777D  2A 46 F2            		ld	hl,[ayFX_TONE]			; ayFX tone value
     210:  00:7780  C9                  		ret					; Return
     211:  00:7781                      
     212:  00:7781                      		IF ( AYFXRELATIVE == 1 )
     213:  00:7781                    ~ 			; --- UNCOMMENT THIS IF YOU DON'T USE THIS REPLAYER WITH PT3 REPLAYER ---
     214:  00:7781                    ~ 		;VT_:	.INCBIN	"VT.BIN"
     215:  00:7781                    ~ 			; --- UNCOMMENT THIS IF YOU DON'T USE THIS REPLAYER WITH PT3 REPLAYER ---
     216:  00:7781                    ~ 		ENDIF
      62.  00:7781                      	
      63.  00:7781                      	
      64.  00:7781                      
      65.  00:7781                      ;;=====================================================
      66.  00:7781                      ;;DEFINICIÓN DE CANTIONES Y EFECTOS DE SONIDO
      67.  00:7781                      ;;=====================================================		
      68.  00:7781                      song:
      69.  00:7781  (0968)              	incbin "bloodytears_castlevania.99"
      70.  00:80E9                      	
      71.  00:80E9                      sfx_bank:
      72.  00:80E9  (004B)              	incbin "demo.afb"
      73.  00:8134                      
     186   00:8134                      	
     187   00:8134                      
     188   00:8134                      ;;=====================================================
     189   00:8134                      ;;DEFINICIÓN DE SUBRUTINAS DE FERNANDO PARA COMPRESIÓN Y SONIDO
     190   00:8134                      ;;=====================================================
     191   00:8134                      ;Este include lleva la rutina de descompresión de ROM/RAM a VRAM de pletter
     192   00:8134                      ;Está adaptada de la original a sjasm
     193   00:8134                      ;	HL = RAM/ROM source	; DE = VRAM destination
     194   00:8134                      depack_VRAM:
     195   00:8134                      	include "pletter/PL_VRAM_Depack_SJASM.asm"
       1.  00:8134                      ;-----------------------------------------------------------
       2.  00:8134                      ; Pletter v0.5b VRAM Depacker v1.1 - 16Kb version
       3.  00:8134                      ; HL = RAM/ROM source ; DE = VRAM destination
       4.  00:8134                      ;-----------------------------------------------------------
       5.  00:8134  F3                  	di
       6.  00:8135                      
       7.  00:8135                      ; VRAM address setup
       8.  00:8135  7B                  	ld	a,e
       9.  00:8136  D3 99               	out	[099h],a
      10.  00:8138                      ;;------------------------
      11.  00:8138  00 00               [2]	NOP
      12.  00:813A                      ;;------------------------
      13.  00:813A  7A                  	ld	a,d
      14.  00:813B  F6 40               	or	040h
      15.  00:813D  D3 99               	out	[099h],a
      16.  00:813F                      ;;------------------------
      17.  00:813F  00 00               [2]	NOP
      18.  00:8141                      ;;------------------------
      19.  00:8141                      
      20.  00:8141                      ; Initialization
      21.  00:8141  7E                  	ld	a,[hl]
      22.  00:8142  23                  	inc	hl
      23.  00:8143  D9                  	exx
      24.  00:8144  11 00 00            	ld	de,0
      25.  00:8147  87                  	add	a,a
      26.  00:8148  3C                  	inc	a
      27.  00:8149  CB 13               	rl	e
      28.  00:814B  87                  	add	a,a
      29.  00:814C  CB 13               	rl	e
      30.  00:814E  87                  	add	a,a
      31.  00:814F  CB 13               	rl	e
      32.  00:8151  CB 13               	rl	e
      33.  00:8153  21 16 82            	ld	hl,modes
      34.  00:8156  19                  	add	hl,de
      35.  00:8157  5E                  	ld	e,[hl]
      36.  00:8158  DD 6B               	ld	ixl,e
      37.  00:815A  23                  	inc	hl
      38.  00:815B  5E                  	ld	e,[hl]
      39.  00:815C  DD 63               	ld	ixh,e
      40.  00:815E  1E 01               	ld	e,1
      41.  00:8160  D9                  	exx
      42.  00:8161  FD 21 6C 81         	ld	iy,loop
      43.  00:8165                      
      44.  00:8165                      ; Main depack loop
      45.  00:8165  0E 98               literal:ld	c,098h
      46.  00:8167  ED A3               	outi
      47.  00:8169                      ;;------------------------
      48.  00:8169  00 00               [2]	NOP
      49.  00:816B                      ;;------------------------
      50.  00:816B  13                  	inc	de
      51.  00:816C  87                  loop:	add	a,a
      52.  00:816D  CC 0A 82              	call	z,getbit
      53.  00:8170  30 F3               	jr	nc,literal
      54.  00:8172                      
      55.  00:8172                      ; Compressed data
      56.  00:8172  D9                  	exx
      57.  00:8173  62                  	ld	h,d
      58.  00:8174  6B                  	ld	l,e
      59.  00:8175  87                  getlen: add	a,a
      60.  00:8176  CC 0E 82            	call	z,getbitexx
      61.  00:8179  30 1D               	jr	nc,lenok
      62.  00:817B  87                  lus:	add	a,a
      63.  00:817C  CC 0E 82            	call	z,getbitexx
      64.  00:817F  ED 6A               	adc	hl,hl
      65.  00:8181  D8                  	ret	c
      66.  00:8182  87                  	add	a,a
      67.  00:8183  CC 0E 82            	call	z,getbitexx
      68.  00:8186  30 10               	jr	nc,lenok
      69.  00:8188  87                  	add	a,a
      70.  00:8189  CC 0E 82            	call	z,getbitexx
      71.  00:818C  ED 6A               	adc	hl,hl
      72.  00:818E  DA 14 82            	jp	c,Depack_out
      73.  00:8191  87                  	add	a,a
      74.  00:8192  CC 0E 82            	call	z,getbitexx
      75.  00:8195  DA 7B 81            	jp	c,lus
      76.  00:8198  23                  lenok:  inc	hl
      77.  00:8199  D9                  	exx
      78.  00:819A  4E                  	ld	c,[hl]
      79.  00:819B  23                  	inc	hl
      80.  00:819C  06 00               	ld	b,0
      81.  00:819E  CB 79               	bit	7,c
      82.  00:81A0  CA D3 81            	jp	z,offsok
      83.  00:81A3  DD E9               	jp	ix
      84.  00:81A5                      
      85.  00:81A5  87                  mode7:  add	a,a
      86.  00:81A6  CC 0A 82              	call	z,getbit
      87.  00:81A9  CB 10               	rl	b
      88.  00:81AB  87                  mode6:	add	a,a
      89.  00:81AC  CC 0A 82              	call	z,getbit
      90.  00:81AF  CB 10               	rl	b
      91.  00:81B1  87                  mode5:  add	a,a
      92.  00:81B2  CC 0A 82              	call	z,getbit
      93.  00:81B5  CB 10               	rl	b
      94.  00:81B7  87                  mode4:  add	a,a
      95.  00:81B8  CC 0A 82              	call	z,getbit
      96.  00:81BB  CB 10               	rl	b
      97.  00:81BD  87                  mode3:  add	a,a
      98.  00:81BE  CC 0A 82              	call	z,getbit
      99.  00:81C1  CB 10               	rl	b
     100.  00:81C3  87                  mode2:	add	a,a
     101.  00:81C4  CC 0A 82              	call	z,getbit
     102.  00:81C7  CB 10               	rl	b
     103.  00:81C9  87                  	add	a,a
     104.  00:81CA  CC 0A 82              	call	z,getbit
     105.  00:81CD  30 04               	jr	nc,offsok
     106.  00:81CF  B7                  	or	a
     107.  00:81D0  04                  	inc	b
     108.  00:81D1  CB B9               	res	7,c
     109.  00:81D3  03                  offsok: inc	bc
     110.  00:81D4  E5                  	push	hl
     111.  00:81D5  D9                  	exx
     112.  00:81D6  E5                  	push	hl
     113.  00:81D7  D9                  	exx
     114.  00:81D8  6B                  	ld	l,e
     115.  00:81D9  62                  	ld	h,d
     116.  00:81DA  ED 42               	sbc	hl,bc
     117.  00:81DC  C1                  	pop	bc
     118.  00:81DD  F5                  	push	af
     119.  00:81DE  7D                  .loop:	ld	a,l
     120.  00:81DF  D3 99               	out	[099h],a
     121.  00:81E1                      ;;------------------------
     122.  00:81E1  00 00               [2]	NOP
     123.  00:81E3                      ;;------------------------
     124.  00:81E3  7C                  	ld	a,h
     125.  00:81E4  00                  	nop                     ; VDP timing
     126.  00:81E5  D3 99               	out	[099h],a
     127.  00:81E7                      ;;------------------------
     128.  00:81E7  00 00               [2]	NOP
     129.  00:81E9                      ;;------------------------
     130.  00:81E9  00                  	nop                     ; VDP timing
     131.  00:81EA  DB 98               	in	a,[098h]
     132.  00:81EC  08                  	ex	af,af'
     133.  00:81ED  7B                  	ld	a,e
     134.  00:81EE  00                  	nop			; VDP timing
     135.  00:81EF  D3 99               	out	[099h],a
     136.  00:81F1                      ;;------------------------
     137.  00:81F1  00 00               [2]	NOP
     138.  00:81F3                      ;;------------------------
     139.  00:81F3  7A                  	ld	a,d
     140.  00:81F4  F6 40               	or	040h
     141.  00:81F6  D3 99               	out	[099h],a
     142.  00:81F8                      ;;------------------------
     143.  00:81F8  00 00               [2]	NOP
     144.  00:81FA                      ;;------------------------
     145.  00:81FA  08                  	ex	af,af'
     146.  00:81FB  00                  	nop			; VDP timing
     147.  00:81FC  D3 98               	out	[098h],a
     148.  00:81FE                      ;;------------------------
     149.  00:81FE  00 00               [2]	NOP
     150.  00:8200                      ;;------------------------
     151.  00:8200  13                  	inc	de
     152.  00:8201  ED A1               	cpi
     153.  00:8203  EA DE 81            	jp	pe,.loop
     154.  00:8206  F1                  	pop	af
     155.  00:8207  E1                  	pop	hl
     156.  00:8208  FD E9               	jp	iy
     157.  00:820A                      
     158.  00:820A  7E                  getbit: ld	a,[hl]
     159.  00:820B  23                  	inc	hl
     160.  00:820C  17                  	rla
     161.  00:820D  C9                  	ret
     162.  00:820E                      
     163.  00:820E                      getbitexx:
     164.  00:820E  D9                  	exx
     165.  00:820F  7E                  	ld	a,[hl]
     166.  00:8210  23                  	inc	hl
     167.  00:8211  D9                  	exx
     168.  00:8212  17                  	rla
     169.  00:8213  C9                  	ret
     170.  00:8214                      
     171.  00:8214                      ; Depacker exit
     172.  00:8214                      Depack_out:
     173.  00:8214  FB                  	ei
     174.  00:8215  C9                  	ret
     175.  00:8216                      
     176.  00:8216                      modes:
     177.  00:8216  D3 81               	dw	offsok
     178.  00:8218  C3 81               	dw	mode2
     179.  00:821A  BD 81               	dw	mode3
     180.  00:821C  B7 81               	dw	mode4
     181.  00:821E  B1 81               	dw	mode5
     182.  00:8220  AB 81               	dw	mode6
     183.  00:8222  A5 81               	dw	mode7
     196   00:8224                      
     197   00:8224                      
     198   00:8224                      ;;=====================================================
     199   00:8224                      ;;DEFINICIÓN DE PANTALLAS / CONTANTES DATOS PANTALLAS
     200   00:8224                      ;;=====================================================		
     201   00:8224                      	include "datos/pantallas.asm"
       1.  00:8224                      ;;=====================================================
       2.  00:8224                      ;;DEFINICIÓN DE PANTALLAS
       3.  00:8224                      ;;=====================================================		
       4.  00:8224                      
       5.  00:8224                      ; bancos 1 y 2 y de pantalla 1 
       6.  00:8224                      ; se usa un banco común (en este caso el banco 1)
       7.  00:8224                      ; el mapa afecta al banco 1 y 2
       8.  00:8224                      
       9.  00:8224                      ;~ tiles_patrones_inicio:	incbin "pantallas/inicio.bank01.tiles.chr.bin.plet5"
      10.  00:8224                      ;~ tiles_color_inicio:		incbin "pantallas/inicio.bank01.tiles.clr.bin.plet5"
      11.  00:8224                      ;~ tiles_mapa_inicio:		incbin "pantallas/inicio.map.completo.plet5"
      12.  00:8224                      
      13.  00:8224  (0211)              tiles_patrones_inicio:	incbin "pantallas/inicio.tiles.banco1.chr.plet5"
      14.  00:8435  (0074)              tiles_color_inicio:		incbin "pantallas/inicio.tiles.banco1.clr.plet5"
      15.  00:84A9  (00E4)              tiles_mapa_inicio:		incbin "pantallas/inicio.map.bin.plet5"
      16.  00:858D                      
      17.  00:858D  (0009)              tiles_mapa_entrefases:	incbin "pantallas/fondoentrefases.map.bin.plet5"
      18.  00:8596                      
      19.  00:8596  (0328)              tiles_patrones_nivel0:	incbin "pantallas/nivel0.bank1.til.bin.chr.plet5"
      20.  00:88BE  (0081)              tiles_color_nivel0:		incbin "pantallas/nivel0.bank1.til.bin.clr.plet5"
      21.  00:893F  (0035)              tiles_mapa_nivel0:		incbin "pantallas/nivel0.bank01.map.bin.plet5"
      22.  00:8974                      
      23.  00:8974  (0328)              tiles_patrones_nivel1:	incbin "pantallas/nivel0.bank1.til.bin.chr.plet5"
      24.  00:8C9C  (0081)              tiles_color_nivel1:		incbin "pantallas/nivel0.bank1.til.bin.clr.plet5"
      25.  00:8D1D  (0035)              tiles_mapa_nivel1:		incbin "pantallas/nivel0.bank01.map.bin.plet5"
      26.  00:8D52                      
      27.  00:8D52  (0328)              tiles_patrones_nivel2:	incbin "pantallas/nivel0.bank1.til.bin.chr.plet5"
      28.  00:907A  (0081)              tiles_color_nivel2:		incbin "pantallas/nivel0.bank1.til.bin.clr.plet5"
      29.  00:90FB  (0035)              tiles_mapa_nivel2:		incbin "pantallas/nivel0.bank01.map.bin.plet5"
      30.  00:9130                      
      31.  00:9130  (0328)              tiles_patrones_nivel3:	incbin "pantallas/nivel0.bank1.til.bin.chr.plet5"
      32.  00:9458  (0081)              tiles_color_nivel3:		incbin "pantallas/nivel0.bank1.til.bin.clr.plet5"
      33.  00:94D9  (0035)              tiles_mapa_nivel3:		incbin "pantallas/nivel0.bank01.map.bin.plet5"
      34.  00:950E                      
      35.  00:950E  (0328)              tiles_patrones_nivel4:	incbin "pantallas/nivel0.bank1.til.bin.chr.plet5"
      36.  00:9836  (0081)              tiles_color_nivel4:		incbin "pantallas/nivel0.bank1.til.bin.clr.plet5"
      37.  00:98B7  (0035)              tiles_mapa_nivel4:		incbin "pantallas/nivel0.bank01.map.bin.plet5"
      38.  00:98EC                      
      39.  00:98EC  (0328)              tiles_patrones_nivel5:	incbin "pantallas/nivel0.bank1.til.bin.chr.plet5"
      40.  00:9C14  (0081)              tiles_color_nivel5:		incbin "pantallas/nivel0.bank1.til.bin.clr.plet5"
      41.  00:9C95  (0035)              tiles_mapa_nivel5:		incbin "pantallas/nivel0.bank01.map.bin.plet5"
      42.  00:9CCA                      
      43.  00:9CCA  (0328)              tiles_patrones_nivel6:	incbin "pantallas/nivel0.bank1.til.bin.chr.plet5"
      44.  00:9FF2  (0081)              tiles_color_nivel6:		incbin "pantallas/nivel0.bank1.til.bin.clr.plet5"
      45.  00:A073  (0035)              tiles_mapa_nivel6:		incbin "pantallas/nivel0.bank01.map.bin.plet5"
      46.  00:A0A8                      
      47.  00:A0A8                      ; 3º banco que es la parte de puntos, vidas, mapas, etc... es común
      48.  00:A0A8  (0153)              tiles_patrones_marcador:	incbin "pantallas/marcador.til.bin.chr.plet5"
      49.  00:A1FB  (0041)              tiles_color_marcador:		incbin "pantallas/marcador.til.bin.clr.plet5"
      50.  00:A23C  (0062)              tiles_mapa_marcador:		incbin "pantallas/marcador.map.bin.plet5"
      51.  00:A29E                      
      52.  00:A29E                      ;NOTA: FALTARÍAN PANTALLAS ESPECIALES (POR DEFINIR)
      53.  00:A29E                      ; GAME OVER
      54.  00:A29E                      ; HUIDA
      55.  00:A29E                      ; 2 FINAL BUENO
      56.  00:A29E                      ; 1 FINAL MALO
     202   00:A29E                      
     203   00:A29E                      
     204   00:A29E                      ;;=====================================================
     205   00:A29E                      ;;CONTANTES DATOS SPRITES
     206   00:A29E                      ;;=====================================================
     207   00:A29E                      	include "datos/sprites.asm"
       1.  00:A29E                      ;;=====================================================
       2.  00:A29E                      ;;DEFINICIÓN DE SPRITES
       3.  00:A29E                      ;;=====================================================	
       4.  00:A29E                      
       5.  00:A29E                      ;sprites_pantantalla
       6.  00:A29E                      
       7.  00:A29E                      ;; PARTE 1: SPRITES COMUNES
       8.  00:A29E                      sprites_comunes:
       9.  00:A29E                      sprite_punto_mira_1:			;color 8
      10.  00:A29E                      	DB #00,#06,#18,#21,#20,#40,#40,#11
      10.  00:A29E  00 06 18 21 20 40 40 11 
      11.  00:A2A6                      	DB #11,#40,#40,#20,#21,#18,#06,#00
      11.  00:A2A6  11 40 40 20 21 18 06 00 
      12.  00:A2AE                      	DB #00,#60,#18,#84,#04,#02,#02,#88
      12.  00:A2AE  00 60 18 84 04 02 02 88 
      13.  00:A2B6                      	DB #88,#02,#02,#04,#84,#18,#60,#00 
      13.  00:A2B6  88 02 02 04 84 18 60 00 
      14.  00:A2BE                      	
      15.  00:A2BE                      sprite_punto_mira_2: 			;color 15
      16.  00:A2BE                      	DB #00,#00,#00,#00,#03,#04,#08,#08
      16.  00:A2BE  00 00 00 00 03 04 08 08 
      17.  00:A2C6                      	DB #08,#08,#04,#03,#00,#00,#00,#00
      17.  00:A2C6  08 08 04 03 00 00 00 00 
      18.  00:A2CE                      	DB #00,#00,#00,#00,#C0,#20,#10,#10
      18.  00:A2CE  00 00 00 00 C0 20 10 10 
      19.  00:A2D6                      	DB #10,#10,#20,#C0,#00,#00,#00,#00
      19.  00:A2D6  10 10 20 C0 00 00 00 00 
      20.  00:A2DE                      	
      21.  00:A2DE                      sprite_punto_mira_1_mejorado:	;color 8
      22.  00:A2DE                      	DB #00,#06,#19,#21,#20,#41,#41,#36
      22.  00:A2DE  00 06 19 21 20 41 41 36 
      23.  00:A2E6                      	DB #36,#41,#41,#20,#21,#19,#06,#00
      23.  00:A2E6  36 41 41 20 21 19 06 00 
      24.  00:A2EE                      	DB #00,#60,#98,#84,#04,#82,#82,#6C
      24.  00:A2EE  00 60 98 84 04 82 82 6C 
      25.  00:A2F6                      	DB #6C,#82,#82,#04,#84,#98,#60,#00 
      25.  00:A2F6  6C 82 82 04 84 98 60 00 
      26.  00:A2FE                      
      27.  00:A2FE                      sprite_punto_mira_2_mejorado:	;color 15
      28.  00:A2FE                      	DB #00,#41,#00,#00,#03,#04,#08,#49
      28.  00:A2FE  00 41 00 00 03 04 08 49 
      29.  00:A306                      	DB #49,#08,#04,#03,#00,#00,#41,#00
      29.  00:A306  49 08 04 03 00 00 41 00 
      30.  00:A30E                      	DB #00,#82,#00,#00,#C0,#20,#10,#92
      30.  00:A30E  00 82 00 00 C0 20 10 92 
      31.  00:A316                      	DB #92,#10,#20,#C0,#00,#00,#82,#00 
      31.  00:A316  92 10 20 C0 00 00 82 00 
      32.  00:A31E                      	
      33.  00:A31E                      sprite_explosion:				;color 8
      34.  00:A31E                      	DB  #00,#00,#00,#00,#00,#00,#00,#00
      34.  00:A31E  00 00 00 00 00 00 00 00 
      35.  00:A326                      	DB  #FF,#FF,#FF,#FF,#FF,#FF,#FF,#FF
      35.  00:A326  FF FF FF FF FF FF FF FF 
      36.  00:A32E                      	DB  #FF,#FF,#FF,#FF,#FF,#FF,#FF,#FF
      36.  00:A32E  FF FF FF FF FF FF FF FF 
      37.  00:A336                      	DB  #00,#00,#00,#00,#00,#00,#00,#00	
      37.  00:A336  00 00 00 00 00 00 00 00 
      38.  00:A33E                      fin_sprites_comunes:
      39.  00:A33E                      
      40.  00:A33E                      ;; PARTE 2: SPRITES NO COMUNES
      41.  00:A33E                      ;; CIENPIÉS 2
      42.  00:A33E                      sprite_cienpies:
      43.  00:A33E                      sprite_cienpies_1:
      44.  00:A33E                      	DB #82,#44,#24,#9F,#BF,#74,#62,#75
      44.  00:A33E  82 44 24 9F BF 74 62 75 
      45.  00:A346                      	DB #E8,#E0,#F8,#65,#32,#3F,#4F,#83
      45.  00:A346  E8 E0 F8 65 32 3F 4F 83 
      46.  00:A34E                      	DB #00,#3C,#D2,#F2,#F0,#52,#3C,#00
      46.  00:A34E  00 3C D2 F2 F0 52 3C 00 
      47.  00:A356                      	DB #00,#00,#00,#44,#08,#FC,#FE,#F8
      47.  00:A356  00 00 00 44 08 FC FE F8 
      48.  00:A35E                      	
      49.  00:A35E                      sprite_cienpies_2:
      50.  00:A35E                      	DB #21,#22,#24,#9F,#7F,#74,#63,#F0
      50.  00:A35E  21 22 24 9F 7F 74 63 F0 
      51.  00:A366                      	DB #EC,#60,#39,#61,#32,#BF,#4F,#13
      51.  00:A366  EC 60 39 61 32 BF 4F 13 
      52.  00:A36E                      	DB #04,#3A,#D0,#F0,#F0,#50,#3A,#04
      52.  00:A36E  04 3A D0 F0 F0 50 3A 04 
      53.  00:A376                      	DB #00,#00,#28,#44,#24,#FC,#FE,#F8
      53.  00:A376  00 00 28 44 24 FC FE F8 
      54.  00:A37E                      fin_sprite_cienpies:
      55.  00:A37E                      
      56.  00:A37E                      
      57.  00:A37E                      ;; SERPIENTE 2 + 2
      58.  00:A37E                      sprite_serpiente:
      59.  00:A37E                      sprite_serpiente1_1:
      60.  00:A37E                      	DB #00,#00,#00,#00,#40,#20,#30,#10
      60.  00:A37E  00 00 00 00 40 20 30 10 
      61.  00:A386                      	DB #10,#30,#60,#60,#70,#78,#3F,#1F
      61.  00:A386  10 30 60 60 70 78 3F 1F 
      62.  00:A38E                      	DB #00,#0E,#1B,#3B,#7E,#38,#3C,#1E
      62.  00:A38E  00 0E 1B 3B 7E 38 3C 1E 
      63.  00:A396                      	DB #0F,#07,#07,#0F,#3E,#FE,#F8,#F0
      63.  00:A396  0F 07 07 0F 3E FE F8 F0 
      64.  00:A39E                      	
      65.  00:A39E                      sprite_serpiente1_2:
      66.  00:A39E                      	DB #00,#01,#03,#33,#41,#20,#40,#60
      66.  00:A39E  00 01 03 33 41 20 40 60 
      67.  00:A3A6                      	DB #60,#E0,#C0,#C0,#E0,#F1,#7F,#3F
      67.  00:A3A6  60 E0 C0 C0 E0 F1 7F 3F 
      68.  00:A3AE                      	DB #00,#C0,#6A,#75,#C0,#E0,#78,#3C
      68.  00:A3AE  00 C0 6A 75 C0 E0 78 3C 
      69.  00:A3B6                      	DB #1C,#1E,#1E,#1C,#7C,#FC,#F0,#E0
      69.  00:A3B6  1C 1E 1E 1C 7C FC F0 E0 
      70.  00:A3BE                      	
      71.  00:A3BE                      sprite_serpiente2_1:
      72.  00:A3BE                      	DB #00,#70,#D8,#DC,#7E,#1C,#3C,#78
      72.  00:A3BE  00 70 D8 DC 7E 1C 3C 78 
      73.  00:A3C6                      	DB #F0,#E0,#E0,#F0,#7C,#7F,#1F,#0F
      73.  00:A3C6  F0 E0 E0 F0 7C 7F 1F 0F 
      74.  00:A3CE                      	DB #00,#00,#00,#00,#02,#04,#0C,#08
      74.  00:A3CE  00 00 00 00 02 04 0C 08 
      75.  00:A3D6                      	DB #08,#0C,#06,#06,#0E,#1E,#FC,#F8
      75.  00:A3D6  08 0C 06 06 0E 1E FC F8 
      76.  00:A3DE                      	
      77.  00:A3DE                      sprite_serpiente2_2:
      78.  00:A3DE                      	DB #00,#03,#56,#AE,#03,#07,#1E,#3C
      78.  00:A3DE  00 03 56 AE 03 07 1E 3C 
      79.  00:A3E6                      	DB #38,#78,#78,#38,#3E,#3F,#0F,#07
      79.  00:A3E6  38 78 78 38 3E 3F 0F 07 
      80.  00:A3EE                      	DB #00,#80,#C0,#CC,#82,#04,#02,#06
      80.  00:A3EE  00 80 C0 CC 82 04 02 06 
      81.  00:A3F6                      	DB #06,#07,#03,#03,#07,#8F,#FE,#FC
      81.  00:A3F6  06 07 03 03 07 8F FE FC 
      82.  00:A3FE                      fin_sprite_serpiente:
      83.  00:A3FE                      
      84.  00:A3FE                      
      85.  00:A3FE                      ;; ARAÑA 2
      86.  00:A3FE                      sprite_arana:
      87.  00:A3FE                      sprite_arana_1:
      88.  00:A3FE                      	DB #00,#01,#03,#05,#07,#75,#8F,#04
      88.  00:A3FE  00 01 03 05 07 75 8F 04 
      89.  00:A406                      	DB #1D,#27,#4B,#91,#20,#10,#00,#00
      89.  00:A406  1D 27 4B 91 20 10 00 00 
      90.  00:A40E                      	DB #00,#80,#C0,#A0,#E0,#AE,#F1,#20
      90.  00:A40E  00 80 C0 A0 E0 AE F1 20 
      91.  00:A416                      	DB #B8,#E4,#D2,#89,#04,#08,#00,#00
      91.  00:A416  B8 E4 D2 89 04 08 00 00 
      92.  00:A41E                      	
      93.  00:A41E                      sprite_arana_2:
      94.  00:A41E                      	DB #00,#01,#03,#05,#77,#8D,#07,#1C
      94.  00:A41E  00 01 03 05 77 8D 07 1C 
      95.  00:A426                      	DB #25,#C7,#0B,#31,#40,#00,#00,#00
      95.  00:A426  25 C7 0B 31 40 00 00 00 
      96.  00:A42E                      	DB #00,#80,#C0,#A0,#EE,#B1,#E0,#38
      96.  00:A42E  00 80 C0 A0 EE B1 E0 38 
      97.  00:A436                      	DB #A4,#E3,#D0,#8C,#02,#00,#00,#00
      97.  00:A436  A4 E3 D0 8C 02 00 00 00 
      98.  00:A43E                      fin_sprite_arana:
      99.  00:A43E                      
     100.  00:A43E                      
     101.  00:A43E                      ;; MURCIELAGO 2
     102.  00:A43E                      sprite_murcielago:
     103.  00:A43E                      sprite_murcielago_1:
     104.  00:A43E                      	DB #08,#0E,#02,#05,#0F,#0C,#0D,#07
     104.  00:A43E  08 0E 02 05 0F 0C 0D 07 
     105.  00:A446                      	DB #1B,#3F,#5F,#FB,#F3,#65,#21,#00
     105.  00:A446  1B 3F 5F FB F3 65 21 00 
     106.  00:A44E                      	DB #10,#70,#40,#A0,#F0,#30,#B0,#E0
     106.  00:A44E  10 70 40 A0 F0 30 B0 E0 
     107.  00:A456                      	DB #D8,#FC,#FA,#DF,#CF,#A6,#84,#00
     107.  00:A456  D8 FC FA DF CF A6 84 00 
     108.  00:A45E                      	
     109.  00:A45E                      sprite_murcielago_2:
     110.  00:A45E                      	DB #08,#0E,#02,#05,#0F,#0E,#4D,#E7
     110.  00:A45E  08 0E 02 05 0F 0E 4D E7 
     111.  00:A466                      	DB #FB,#FF,#7F,#7B,#33,#05,#01,#00
     111.  00:A466  FB FF 7F 7B 33 05 01 00 
     112.  00:A46E                      	DB #10,#70,#40,#A0,#F0,#70,#B2,#E7
     112.  00:A46E  10 70 40 A0 F0 70 B2 E7 
     113.  00:A476                      	DB #DF,#FF,#FE,#DE,#CC,#A0,#80,#00
     113.  00:A476  DF FF FE DE CC A0 80 00 
     114.  00:A47E                      fin_sprite_murcielago:
     115.  00:A47E                      
     116.  00:A47E                      
     117.  00:A47E                      ;; LOBO 4 + 4 (dos escenas derecha y dos escenas izquierda)
     118.  00:A47E                      sprite_lobo:
     119.  00:A47E                      sprite_lobo1_1:
     120.  00:A47E                      	DB #00,#00,#01,#07,#0F,#1F,#1F,#3F
     120.  00:A47E  00 00 01 07 0F 1F 1F 3F 
     121.  00:A486                      	DB #77,#E7,#EF,#0E,#1C,#18,#0C,#0E
     121.  00:A486  77 E7 EF 0E 1C 18 0C 0E 
     122.  00:A48E                      	DB #00,#00,#FF,#FF,#FF,#FF,#FF,#FF
     122.  00:A48E  00 00 FF FF FF FF FF FF 
     123.  00:A496                      	DB #FF,#FF,#79,#70,#E0,#60,#30,#18
     123.  00:A496  FF FF 79 70 E0 60 30 18 
     124.  00:A49E                      
     125.  00:A49E                      sprite_lobo1_2:
     126.  00:A49E                      	DB #01,#01,#FF,#FF,#FF,#FF,#FF,#FF
     126.  00:A49E  01 01 FF FF FF FF FF FF 
     127.  00:A4A6                      	DB #FF,#FE,#F6,#E7,#C3,#C1,#40,#60
     127.  00:A4A6  FF FE F6 E7 C3 C1 40 60 
     128.  00:A4AE                      	DB #00,#C0,#E0,#F0,#D8,#FE,#FE,#E0
     128.  00:A4AE  00 C0 E0 F0 D8 FE FE E0 
     129.  00:A4B6                      	DB #80,#00,#00,#00,#00,#80,#C0,#C0
     129.  00:A4B6  80 00 00 00 00 80 C0 C0 
     130.  00:A4BE                      
     131.  00:A4BE                      sprite_lobo1_3:
     132.  00:A4BE                      	DB #00,#00,#01,#07,#0F,#1F,#3F,#7F
     132.  00:A4BE  00 00 01 07 0F 1F 3F 7F 
     133.  00:A4C6                      	DB #F7,#C7,#83,#06,#07,#03,#03,#01
     133.  00:A4C6  F7 C7 83 06 07 03 03 01 
     134.  00:A4CE                      	DB #00,#00,#FF,#FF,#FF,#FF,#FF,#FF
     134.  00:A4CE  00 00 FF FF FF FF FF FF 
     135.  00:A4D6                      	DB #FF,#FF,#39,#30,#60,#60,#30,#B8
     135.  00:A4D6  FF FF 39 30 60 60 30 B8 
     136.  00:A4DE                      
     137.  00:A4DE                      sprite_lobo1_4:
     138.  00:A4DE                      	DB #06,#03,#FF,#FF,#FF,#FF,#FF,#FF
     138.  00:A4DE  06 03 FF FF FF FF FF FF 
     139.  00:A4E6                      	DB #FF,#FE,#76,#66,#EE,#EE,#66,#77
     139.  00:A4E6  FF FE 76 66 EE EE 66 77 
     140.  00:A4EE                      	DB #00,#C0,#E0,#F0,#D8,#FE,#FE,#E0
     140.  00:A4EE  00 C0 E0 F0 D8 FE FE E0 
     141.  00:A4F6                      	DB #80,#00,#00,#00,#00,#00,#00,#00
     141.  00:A4F6  80 00 00 00 00 00 00 00 
     142.  00:A4FE                      	
     143.  00:A4FE                      sprite_lobo2_1:
     144.  00:A4FE                      	DB #00,#03,#07,#0F,#1B,#7F,#7F,#07
     144.  00:A4FE  00 03 07 0F 1B 7F 7F 07 
     145.  00:A506                      	DB #01,#00,#00,#00,#00,#01,#03,#03
     145.  00:A506  01 00 00 00 00 01 03 03 
     146.  00:A50E                      	DB #80,#80,#FF,#FF,#FF,#FF,#FF,#FF
     146.  00:A50E  80 80 FF FF FF FF FF FF 
     147.  00:A516                      	DB #FF,#7F,#6F,#E7,#C3,#83,#02,#06 
     147.  00:A516  FF 7F 6F E7 C3 83 02 06 
     148.  00:A51E                      	
     149.  00:A51E                      sprite_lobo2_2:
     150.  00:A51E                      	DB #00,#00,#FF,#FF,#FF,#FF,#FF,#FF
     150.  00:A51E  00 00 FF FF FF FF FF FF 
     151.  00:A526                      	DB #FF,#FF,#9E,#0E,#07,#06,#0C,#18
     151.  00:A526  FF FF 9E 0E 07 06 0C 18 
     152.  00:A52E                      	DB #00,#00,#80,#E0,#F0,#F8,#F8,#FC
     152.  00:A52E  00 00 80 E0 F0 F8 F8 FC 
     153.  00:A536                      	DB #EE,#E7,#F7,#70,#38,#18,#30,#70
     153.  00:A536  EE E7 F7 70 38 18 30 70 
     154.  00:A53E                      
     155.  00:A53E                      sprite_lobo2_3:
     156.  00:A53E                      	DB #00,#03,#07,#0F,#1B,#7F,#7F,#07
     156.  00:A53E  00 03 07 0F 1B 7F 7F 07 
     157.  00:A546                      	DB #01,#00,#00,#00,#00,#00,#00,#00
     157.  00:A546  01 00 00 00 00 00 00 00 
     158.  00:A54E                      	DB #60,#C0,#FF,#FF,#FF,#FF,#FF,#FF
     158.  00:A54E  60 C0 FF FF FF FF FF FF 
     159.  00:A556                      	DB #FF,#7F,#6E,#66,#77,#77,#66,#EE 
     159.  00:A556  FF 7F 6E 66 77 77 66 EE 
     160.  00:A55E                      
     161.  00:A55E                      sprite_lobo2_4:
     162.  00:A55E                      	DB #00,#00,#FF,#FF,#FF,#FF,#FF,#FF
     162.  00:A55E  00 00 FF FF FF FF FF FF 
     163.  00:A566                      	DB #FF,#FF,#9C,#0C,#06,#06,#0C,#1D
     163.  00:A566  FF FF 9C 0C 06 06 0C 1D 
     164.  00:A56E                      	DB #00,#00,#80,#E0,#F0,#F8,#FC,#FE
     164.  00:A56E  00 00 80 E0 F0 F8 FC FE 
     165.  00:A576                      	DB #EF,#E3,#C1,#60,#E0,#C0,#C0,#80
     165.  00:A576  EF E3 C1 60 E0 C0 C0 80 
     166.  00:A57E                      fin_sprite_lobo:
     167.  00:A57E                      	
     168.  00:A57E                      ;; ESQUELETO 4 + 4 (dos escenas derecha y dos escenas izquierda)
     169.  00:A57E                      sprite_esqueleto:
     170.  00:A57E                      sprite_esqueleto1_1:
     171.  00:A57E                      	DB  #00,#00,#39,#39,#20,#20,#20,#38
     171.  00:A57E  00 00 39 39 20 20 20 38 
     172.  00:A586                      	DB  #38,#20,#20,#20,#38,#39,#00,#00
     172.  00:A586  38 20 20 20 38 39 00 00 
     173.  00:A58E                      	DB  #00,#00,#9E,#92,#92,#92,#92,#92
     173.  00:A58E  00 00 9E 92 92 92 92 92 
     174.  00:A596                      	DB  #9E,#92,#92,#92,#92,#D2,#00,#00
     174.  00:A596  9E 92 92 92 92 D2 00 00 
     175.  00:A59E                      
     176.  00:A59E                      sprite_esqueleto1_2:
     177.  00:A59E                      	DB  #00,#00,#39,#39,#20,#20,#20,#38
     177.  00:A59E  00 00 39 39 20 20 20 38 
     178.  00:A5A6                      	DB  #38,#20,#20,#20,#38,#39,#00,#00
     178.  00:A5A6  38 20 20 20 38 39 00 00 
     179.  00:A5AE                      	DB  #00,#00,#9C,#92,#92,#92,#92,#92
     179.  00:A5AE  00 00 9C 92 92 92 92 92 
     180.  00:A5B6                      	DB  #9E,#92,#92,#92,#92,#DC,#00,#00
     180.  00:A5B6  9E 92 92 92 92 DC 00 00 
     181.  00:A5BE                      
     182.  00:A5BE                      sprite_esqueleto1_3:
     183.  00:A5BE                      	DB  #00,#00,#3B,#3B,#20,#20,#20,#38
     183.  00:A5BE  00 00 3B 3B 20 20 20 38 
     184.  00:A5C6                      	DB  #3B,#22,#22,#22,#3B,#3B,#00,#00
     184.  00:A5C6  3B 22 22 22 3B 3B 00 00 
     185.  00:A5CE                      	DB  #00,#00,#DE,#D2,#52,#52,#52,#52
     185.  00:A5CE  00 00 DE D2 52 52 52 52 
     186.  00:A5D6                      	DB  #DE,#12,#12,#12,#D2,#D2,#00,#00
     186.  00:A5D6  DE 12 12 12 D2 D2 00 00 
     187.  00:A5DE                      
     188.  00:A5DE                      sprite_esqueleto1_4:
     189.  00:A5DE                      	DB  #00,#00,#3B,#3B,#20,#20,#20,#38
     189.  00:A5DE  00 00 3B 3B 20 20 20 38 
     190.  00:A5E6                      	DB  #3B,#22,#22,#22,#3B,#3B,#00,#00
     190.  00:A5E6  3B 22 22 22 3B 3B 00 00 
     191.  00:A5EE                      	DB  #00,#00,#DC,#D2,#52,#52,#52,#52
     191.  00:A5EE  00 00 DC D2 52 52 52 52 
     192.  00:A5F6                      	DB  #DE,#12,#12,#12,#D2,#DC,#00,#00
     192.  00:A5F6  DE 12 12 12 D2 DC 00 00 
     193.  00:A5FE                      	
     194.  00:A5FE                      sprite_esqueleto2_1:
     195.  00:A5FE                      	DB  #00,#00,#79,#49,#49,#49,#49,#49
     195.  00:A5FE  00 00 79 49 49 49 49 49 
     196.  00:A606                      	DB  #79,#49,#49,#49,#49,#4B,#00,#00
     196.  00:A606  79 49 49 49 49 4B 00 00 
     197.  00:A60E                      	DB  #00,#00,#9C,#9C,#04,#04,#04,#1C
     197.  00:A60E  00 00 9C 9C 04 04 04 1C 
     198.  00:A616                      	DB  #1C,#04,#04,#04,#1C,#9C,#00,#00
     198.  00:A616  1C 04 04 04 1C 9C 00 00 
     199.  00:A61E                      
     200.  00:A61E                      sprite_esqueleto2_2:
     201.  00:A61E                      	DB  #00,#00,#39,#49,#49,#49,#49,#49
     201.  00:A61E  00 00 39 49 49 49 49 49 
     202.  00:A626                      	DB  #79,#49,#49,#49,#49,#3B,#00,#00
     202.  00:A626  79 49 49 49 49 3B 00 00 
     203.  00:A62E                      	DB  #00,#00,#9C,#9C,#04,#04,#04,#1C
     203.  00:A62E  00 00 9C 9C 04 04 04 1C 
     204.  00:A636                      	DB  #1C,#04,#04,#04,#1C,#9C,#00,#00
     204.  00:A636  1C 04 04 04 1C 9C 00 00 
     205.  00:A63E                      
     206.  00:A63E                      sprite_esqueleto2_3:
     207.  00:A63E                      	DB  #00,#00,#7B,#4B,#4A,#4A,#4A,#4A
     207.  00:A63E  00 00 7B 4B 4A 4A 4A 4A 
     208.  00:A646                      	DB  #7B,#48,#48,#48,#4B,#4B,#00,#00
     208.  00:A646  7B 48 48 48 4B 4B 00 00 
     209.  00:A64E                      	DB  #00,#00,#DC,#DC,#04,#04,#04,#1C
     209.  00:A64E  00 00 DC DC 04 04 04 1C 
     210.  00:A656                      	DB  #DC,#44,#44,#44,#DC,#DC,#00,#00
     210.  00:A656  DC 44 44 44 DC DC 00 00 
     211.  00:A65E                      
     212.  00:A65E                      sprite_esqueleto2_4:
     213.  00:A65E                      	DB  #00,#00,#3B,#4B,#4A,#4A,#4A,#4A
     213.  00:A65E  00 00 3B 4B 4A 4A 4A 4A 
     214.  00:A666                      	DB  #7B,#48,#48,#48,#4B,#3B,#00,#00
     214.  00:A666  7B 48 48 48 4B 3B 00 00 
     215.  00:A66E                      	DB  #00,#00,#DC,#DC,#04,#04,#04,#1C
     215.  00:A66E  00 00 DC DC 04 04 04 1C 
     216.  00:A676                      	DB  #DC,#44,#44,#44,#DC,#DC,#00,#00
     216.  00:A676  DC 44 44 44 DC DC 00 00 
     217.  00:A67E                      fin_sprite_esqueleto:
     218.  00:A67E                      	
     219.  00:A67E                      ;; ZOMBI 4 + 4
     220.  00:A67E                      sprite_zombi:
     221.  00:A67E                      sprite_zombi1_1:
     222.  00:A67E                      	DB  #00,#F8,#09,#08,#18,#30,#20,#20
     222.  00:A67E  00 F8 09 08 18 30 20 20 
     223.  00:A686                      	DB  #60,#40,#80,#80,#80,#80,#F9,#00
     223.  00:A686  60 40 80 80 80 80 F9 00 
     224.  00:A68E                      	DB  #00,#8F,#89,#89,#89,#89,#89,#8F
     224.  00:A68E  00 8F 89 89 89 89 89 8F 
     225.  00:A696                      	DB  #8F,#89,#89,#89,#89,#89,#C9,#00
     225.  00:A696  8F 89 89 89 89 89 C9 00 
     226.  00:A69E                      
     227.  00:A69E                      sprite_zombi1_2:
     228.  00:A69E                      	DB  #00,#F8,#09,#08,#18,#30,#20,#20
     228.  00:A69E  00 F8 09 08 18 30 20 20 
     229.  00:A6A6                      	DB  #60,#40,#80,#80,#80,#80,#F9,#00
     229.  00:A6A6  60 40 80 80 80 80 F9 00 
     230.  00:A6AE                      	DB  #00,#8E,#89,#89,#89,#89,#89,#8F
     230.  00:A6AE  00 8E 89 89 89 89 89 8F 
     231.  00:A6B6                      	DB  #8F,#89,#89,#89,#89,#89,#CE,#00
     231.  00:A6B6  8F 89 89 89 89 89 CE 00 
     232.  00:A6BE                      
     233.  00:A6BE                      sprite_zombi1_3:
     234.  00:A6BE                      	DB  #00,#FB,#0A,#0A,#18,#30,#20,#20
     234.  00:A6BE  00 FB 0A 0A 18 30 20 20 
     235.  00:A6C6                      	DB  #61,#41,#83,#82,#82,#82,#FB,#00
     235.  00:A6C6  61 41 83 82 82 82 FB 00 
     236.  00:A6CE                      	DB  #00,#EF,#29,#29,#29,#29,#69,#EF
     236.  00:A6CE  00 EF 29 29 29 29 69 EF 
     237.  00:A6D6                      	DB  #8F,#09,#09,#09,#09,#09,#E9,#00
     237.  00:A6D6  8F 09 09 09 09 09 E9 00 
     238.  00:A6DE                      
     239.  00:A6DE                      sprite_zombi1_4:
     240.  00:A6DE                      	DB  #00,#FB,#0A,#0A,#18,#30,#20,#20
     240.  00:A6DE  00 FB 0A 0A 18 30 20 20 
     241.  00:A6E6                      	DB  #61,#41,#83,#82,#82,#82,#FB,#00
     241.  00:A6E6  61 41 83 82 82 82 FB 00 
     242.  00:A6EE                      	DB  #00,#EE,#29,#29,#29,#29,#69,#EF
     242.  00:A6EE  00 EE 29 29 29 29 69 EF 
     243.  00:A6F6                      	DB  #8F,#09,#09,#09,#09,#09,#EE,#00
     243.  00:A6F6  8F 09 09 09 09 09 EE 00 
     244.  00:A6FE                      	
     245.  00:A6FE                      sprite_zombi2_1:
     246.  00:A6FE                      	DB  #00,#F1,#91,#91,#91,#91,#91,#F1
     246.  00:A6FE  00 F1 91 91 91 91 91 F1 
     247.  00:A706                      	DB  #F1,#91,#91,#91,#91,#91,#93,#00
     247.  00:A706  F1 91 91 91 91 91 93 00 
     248.  00:A70E                      	DB  #00,#1F,#90,#10,#18,#0C,#04,#04
     248.  00:A70E  00 1F 90 10 18 0C 04 04 
     249.  00:A716                      	DB  #06,#02,#01,#01,#01,#01,#9F,#00
     249.  00:A716  06 02 01 01 01 01 9F 00 
     250.  00:A71E                      
     251.  00:A71E                      sprite_zombi2_2:
     252.  00:A71E                      	DB  #00,#71,#91,#91,#91,#91,#91,#F1
     252.  00:A71E  00 71 91 91 91 91 91 F1 
     253.  00:A726                      	DB  #F1,#91,#91,#91,#91,#91,#73,#00
     253.  00:A726  F1 91 91 91 91 91 73 00 
     254.  00:A72E                      	DB  #00,#1F,#90,#10,#18,#0C,#04,#04
     254.  00:A72E  00 1F 90 10 18 0C 04 04 
     255.  00:A736                      	DB  #06,#02,#01,#01,#01,#01,#9F,#00
     255.  00:A736  06 02 01 01 01 01 9F 00 
     256.  00:A73E                      
     257.  00:A73E                      sprite_zombi2_3:
     258.  00:A73E                      	DB  #00,#F7,#94,#94,#94,#94,#96,#F7
     258.  00:A73E  00 F7 94 94 94 94 96 F7 
     259.  00:A746                      	DB  #F1,#90,#90,#90,#90,#90,#97,#00
     259.  00:A746  F1 90 90 90 90 90 97 00 
     260.  00:A74E                      	DB  #00,#DF,#50,#50,#18,#0C,#04,#04
     260.  00:A74E  00 DF 50 50 18 0C 04 04 
     261.  00:A756                      	DB  #86,#82,#C1,#41,#41,#41,#DF,#00
     261.  00:A756  86 82 C1 41 41 41 DF 00 
     262.  00:A75E                      
     263.  00:A75E                      sprite_zombi2_4:
     264.  00:A75E                      	DB  #00,#77,#94,#94,#94,#94,#96,#F7
     264.  00:A75E  00 77 94 94 94 94 96 F7 
     265.  00:A766                      	DB  #F1,#90,#90,#90,#90,#90,#77,#00
     265.  00:A766  F1 90 90 90 90 90 77 00 
     266.  00:A76E                      	DB  #00,#DF,#50,#50,#18,#0C,#04,#04
     266.  00:A76E  00 DF 50 50 18 0C 04 04 
     267.  00:A776                      	DB  #86,#82,#C1,#41,#41,#41,#DF,#00
     267.  00:A776  86 82 C1 41 41 41 DF 00 
     268.  00:A77E                      fin_sprite_zombi:
     269.  00:A77E                      	
     270.  00:A77E                      ;; FANTASMA 5: 2 en horizotal con 2 escenas
     271.  00:A77E                      sprite_fantasma:
     272.  00:A77E                      sprite_fantasma_1:
     273.  00:A77E                      	DB  #00,#F1,#83,#80,#80,#80,#80,#F0
     273.  00:A77E  00 F1 83 80 80 80 80 F0 
     274.  00:A786                      	DB  #F0,#80,#80,#80,#80,#80,#81,#00
     274.  00:A786  F0 80 80 80 80 80 81 00 
     275.  00:A78E                      	DB  #00,#8F,#89,#89,#89,#89,#89,#8F
     275.  00:A78E  00 8F 89 89 89 89 89 8F 
     276.  00:A796                      	DB  #8F,#89,#89,#89,#89,#89,#C9,#00
     276.  00:A796  8F 89 89 89 89 89 C9 00 
     277.  00:A79E                      
     278.  00:A79E                      sprite_fantasma_2:
     279.  00:A79E                      	DB  #00,#F1,#83,#80,#80,#80,#80,#F0
     279.  00:A79E  00 F1 83 80 80 80 80 F0 
     280.  00:A7A6                      	DB  #F0,#80,#80,#80,#80,#80,#81,#00
     280.  00:A7A6  F0 80 80 80 80 80 81 00 
     281.  00:A7AE                      	DB  #00,#8E,#8B,#89,#89,#89,#89,#8F
     281.  00:A7AE  00 8E 8B 89 89 89 89 8F 
     282.  00:A7B6                      	DB  #8F,#89,#89,#89,#89,#8B,#CE,#00
     282.  00:A7B6  8F 89 89 89 89 8B CE 00 
     283.  00:A7BE                      
     284.  00:A7BE                      sprite_fantasma_3:
     285.  00:A7BE                      	DB  #00,#F3,#87,#84,#80,#80,#80,#F0
     285.  00:A7BE  00 F3 87 84 80 80 80 F0 
     286.  00:A7C6                      	DB  #F0,#80,#81,#83,#86,#84,#87,#00
     286.  00:A7C6  F0 80 81 83 86 84 87 00 
     287.  00:A7CE                      	DB  #00,#CF,#C9,#49,#49,#49,#C9,#8F
     287.  00:A7CE  00 CF C9 49 49 49 C9 8F 
     288.  00:A7D6                      	DB  #8F,#89,#89,#09,#09,#09,#C9,#00
     288.  00:A7D6  8F 89 89 09 09 09 C9 00 
     289.  00:A7DE                      
     290.  00:A7DE                      sprite_fantasma_4:
     291.  00:A7DE                      	DB  #00,#F3,#87,#84,#80,#80,#80,#F0
     291.  00:A7DE  00 F3 87 84 80 80 80 F0 
     292.  00:A7E6                      	DB  #F0,#80,#81,#83,#86,#84,#87,#00
     292.  00:A7E6  F0 80 81 83 86 84 87 00 
     293.  00:A7EE                      	DB  #00,#CE,#CB,#49,#49,#49,#C9,#8F
     293.  00:A7EE  00 CE CB 49 49 49 C9 8F 
     294.  00:A7F6                      	DB  #8F,#89,#89,#09,#09,#0B,#CE,#00
     294.  00:A7F6  8F 89 89 09 09 0B CE 00 
     295.  00:A7FE                      fin_sprite_fantasma:
     296.  00:A7FE                      
     297.  00:A7FE                      
     298.  00:A7FE                      ;; CABALLERO 4 + 4: es el mismo sprite... cambia el color
     299.  00:A7FE                      sprite_caballero:
     300.  00:A7FE                      sprite_caballero1_1:
     301.  00:A7FE                      	DB  #F8,#81,#80,#80,#80,#80,#80,#80
     301.  00:A7FE  F8 81 80 80 80 80 80 80 
     302.  00:A806                      	DB  #80,#80,#80,#80,#80,#80,#80,#F9
     302.  00:A806  80 80 80 80 80 80 80 F9 
     303.  00:A80E                      	DB  #8F,#89,#89,#89,#89,#89,#89,#8F
     303.  00:A80E  8F 89 89 89 89 89 89 8F 
     304.  00:A816                      	DB  #8F,#89,#89,#89,#89,#89,#89,#C9
     304.  00:A816  8F 89 89 89 89 89 89 C9 
     305.  00:A81E                      
     306.  00:A81E                      sprite_caballero1_2:
     307.  00:A81E                      	DB  #F8,#81,#80,#80,#80,#80,#80,#80
     307.  00:A81E  F8 81 80 80 80 80 80 80 
     308.  00:A826                      	DB  #80,#80,#80,#80,#80,#80,#80,#F9
     308.  00:A826  80 80 80 80 80 80 80 F9 
     309.  00:A82E                      	DB  #8E,#89,#89,#89,#89,#89,#89,#8F
     309.  00:A82E  8E 89 89 89 89 89 89 8F 
     310.  00:A836                      	DB  #8F,#89,#89,#89,#89,#89,#89,#CE
     310.  00:A836  8F 89 89 89 89 89 89 CE 
     311.  00:A83E                      
     312.  00:A83E                      sprite_caballero1_3:
     313.  00:A83E                      	DB  #FB,#82,#80,#80,#80,#80,#80,#81
     313.  00:A83E  FB 82 80 80 80 80 80 81 
     314.  00:A846                      	DB  #83,#82,#82,#82,#82,#82,#82,#FB
     314.  00:A846  83 82 82 82 82 82 82 FB 
     315.  00:A84E                      	DB  #CF,#49,#49,#49,#49,#49,#49,#CF
     315.  00:A84E  CF 49 49 49 49 49 49 CF 
     316.  00:A856                      	DB  #0F,#09,#09,#09,#09,#09,#09,#C9
     316.  00:A856  0F 09 09 09 09 09 09 C9 
     317.  00:A85E                      
     318.  00:A85E                      sprite_caballero1_4:
     319.  00:A85E                      	DB  #FB,#82,#80,#80,#80,#80,#80,#81
     319.  00:A85E  FB 82 80 80 80 80 80 81 
     320.  00:A866                      	DB  #83,#82,#82,#82,#82,#82,#82,#FB
     320.  00:A866  83 82 82 82 82 82 82 FB 
     321.  00:A86E                      	DB  #CE,#4B,#49,#49,#49,#49,#49,#CF
     321.  00:A86E  CE 4B 49 49 49 49 49 CF 
     322.  00:A876                      	DB  #0F,#09,#09,#09,#09,#09,#0B,#CE
     322.  00:A876  0F 09 09 09 09 09 0B CE 
     323.  00:A87E                      	
     324.  00:A87E                      sprite_caballero2_1:
     325.  00:A87E                      	DB  #F1,#91,#91,#91,#91,#91,#91,#F1
     325.  00:A87E  F1 91 91 91 91 91 91 F1 
     326.  00:A886                      	DB  #F1,#91,#91,#91,#91,#91,#91,#93
     326.  00:A886  F1 91 91 91 91 91 91 93 
     327.  00:A88E                      	DB  #1F,#81,#01,#01,#01,#01,#01,#01
     327.  00:A88E  1F 81 01 01 01 01 01 01 
     328.  00:A896                      	DB  #01,#01,#01,#01,#01,#01,#01,#9F
     328.  00:A896  01 01 01 01 01 01 01 9F 
     329.  00:A89E                      
     330.  00:A89E                      sprite_caballero2_2:
     331.  00:A89E                      	DB  #71,#91,#91,#91,#91,#91,#91,#F1
     331.  00:A89E  71 91 91 91 91 91 91 F1 
     332.  00:A8A6                      	DB  #F1,#91,#91,#91,#91,#91,#91,#73
     332.  00:A8A6  F1 91 91 91 91 91 91 73 
     333.  00:A8AE                      	DB  #1F,#81,#01,#01,#01,#01,#01,#01
     333.  00:A8AE  1F 81 01 01 01 01 01 01 
     334.  00:A8B6                      	DB  #01,#01,#01,#01,#01,#01,#01,#9F
     334.  00:A8B6  01 01 01 01 01 01 01 9F 
     335.  00:A8BE                      
     336.  00:A8BE                      sprite_caballero2_3:
     337.  00:A8BE                      	DB  #F3,#92,#92,#92,#92,#92,#92,#F3
     337.  00:A8BE  F3 92 92 92 92 92 92 F3 
     338.  00:A8C6                      	DB  #F0,#90,#90,#90,#90,#90,#90,#93
     338.  00:A8C6  F0 90 90 90 90 90 90 93 
     339.  00:A8CE                      	DB  #DF,#41,#01,#01,#01,#01,#01,#81
     339.  00:A8CE  DF 41 01 01 01 01 01 81 
     340.  00:A8D6                      	DB  #C1,#41,#41,#41,#41,#41,#41,#DF
     340.  00:A8D6  C1 41 41 41 41 41 41 DF 
     341.  00:A8DE                      
     342.  00:A8DE                      sprite_caballero2_4:
     343.  00:A8DE                      	DB  #73,#D2,#92,#92,#92,#92,#92,#F3
     343.  00:A8DE  73 D2 92 92 92 92 92 F3 
     344.  00:A8E6                      	DB  #F0,#90,#90,#90,#90,#90,#D0,#73
     344.  00:A8E6  F0 90 90 90 90 90 D0 73 
     345.  00:A8EE                      	DB  #DF,#41,#01,#01,#01,#01,#01,#81
     345.  00:A8EE  DF 41 01 01 01 01 01 81 
     346.  00:A8F6                      	DB  #C1,#41,#41,#41,#41,#41,#41,#DF
     346.  00:A8F6  C1 41 41 41 41 41 41 DF 
     347.  00:A8FE                      fin_sprite_caballero:
     348.  00:A8FE                      	
     349.  00:A8FE                      ;; FUEGO 4 (2 escenas 2 sprites vert)
     350.  00:A8FE                      sprite_fuego:
     351.  00:A8FE                      sprite_fuego_1:
     352.  00:A8FE                      	DB  #00,#F1,#83,#80,#80,#80,#80,#F0
     352.  00:A8FE  00 F1 83 80 80 80 80 F0 
     353.  00:A906                      	DB  #F0,#80,#80,#80,#A8,#A8,#B9,#00
     353.  00:A906  F0 80 80 80 A8 A8 B9 00 
     354.  00:A90E                      	DB  #00,#8F,#89,#89,#89,#89,#89,#8F
     354.  00:A90E  00 8F 89 89 89 89 89 8F 
     355.  00:A916                      	DB  #8F,#89,#89,#89,#89,#89,#C9,#00
     355.  00:A916  8F 89 89 89 89 89 C9 00 
     356.  00:A91E                      	
     357.  00:A91E                      sprite_fuego_2:
     358.  00:A91E                      	DB  #00,#F1,#83,#80,#80,#80,#80,#F0
     358.  00:A91E  00 F1 83 80 80 80 80 F0 
     359.  00:A926                      	DB  #F0,#80,#80,#80,#A8,#A8,#B9,#00
     359.  00:A926  F0 80 80 80 A8 A8 B9 00 
     360.  00:A92E                      	DB  #00,#8E,#8B,#89,#89,#89,#89,#8F
     360.  00:A92E  00 8E 8B 89 89 89 89 8F 
     361.  00:A936                      	DB  #8F,#89,#89,#89,#89,#8B,#CE,#00
     361.  00:A936  8F 89 89 89 89 8B CE 00 
     362.  00:A93E                      	
     363.  00:A93E                      sprite_fuego_3:
     364.  00:A93E                      	DB  #00,#F3,#84,#84,#80,#80,#80,#F0
     364.  00:A93E  00 F3 84 84 80 80 80 F0 
     365.  00:A946                      	DB  #F1,#82,#82,#82,#AA,#AA,#BB,#00
     365.  00:A946  F1 82 82 82 AA AA BB 00 
     366.  00:A94E                      	DB  #00,#CF,#49,#49,#49,#49,#49,#8F
     366.  00:A94E  00 CF 49 49 49 49 49 8F 
     367.  00:A956                      	DB  #8F,#09,#09,#09,#09,#09,#C9,#00
     367.  00:A956  8F 09 09 09 09 09 C9 00 
     368.  00:A95E                      	
     369.  00:A95E                      sprite_fuego_4:
     370.  00:A95E                      	DB  #00,#F3,#84,#84,#80,#80,#80,#F0
     370.  00:A95E  00 F3 84 84 80 80 80 F0 
     371.  00:A966                      	DB  #F1,#82,#82,#82,#AA,#AA,#BB,#00
     371.  00:A966  F1 82 82 82 AA AA BB 00 
     372.  00:A96E                      	DB  #00,#CE,#4B,#49,#49,#49,#49,#8F
     372.  00:A96E  00 CE 4B 49 49 49 49 8F 
     373.  00:A976                      	DB  #8F,#09,#09,#09,#09,#0B,#CE,#00
     373.  00:A976  8F 09 09 09 09 0B CE 00 
     374.  00:A97E                      fin_sprite_fuego:
     375.  00:A97E                      	
     376.  00:A97E                      ;; MAGIA 4 (2 escenas 2 sprites hort)
     377.  00:A97E                      sprite_magia:
     378.  00:A97E                      sprite_magia_1:
     379.  00:A97E                      	DB  #00,#D9,#FB,#A8,#88,#88,#88,#88
     379.  00:A97E  00 D9 FB A8 88 88 88 88 
     380.  00:A986                      	DB  #88,#88,#88,#88,#88,#88,#89,#00
     380.  00:A986  88 88 88 88 88 88 89 00 
     381.  00:A98E                      	DB  #00,#8F,#89,#89,#89,#89,#89,#8F
     381.  00:A98E  00 8F 89 89 89 89 89 8F 
     382.  00:A996                      	DB  #8F,#89,#89,#89,#89,#89,#C9,#00
     382.  00:A996  8F 89 89 89 89 89 C9 00 
     383.  00:A99E                      	
     384.  00:A99E                      sprite_magia_2:
     385.  00:A99E                      	DB  #00,#D9,#FB,#A8,#88,#88,#88,#88
     385.  00:A99E  00 D9 FB A8 88 88 88 88 
     386.  00:A9A6                      	DB  #88,#88,#88,#88,#88,#88,#89,#00
     386.  00:A9A6  88 88 88 88 88 88 89 00 
     387.  00:A9AE                      	DB  #00,#8E,#8B,#89,#89,#89,#89,#8F
     387.  00:A9AE  00 8E 8B 89 89 89 89 8F 
     388.  00:A9B6                      	DB  #8F,#89,#89,#89,#89,#8B,#CE,#00
     388.  00:A9B6  8F 89 89 89 89 8B CE 00 
     389.  00:A9BE                      	
     390.  00:A9BE                      sprite_magia_3:
     391.  00:A9BE                      	DB  #00,#D9,#FA,#AA,#88,#88,#88,#88
     391.  00:A9BE  00 D9 FA AA 88 88 88 88 
     392.  00:A9C6                      	DB  #89,#8B,#8A,#8A,#8A,#8A,#8B,#00
     392.  00:A9C6  89 8B 8A 8A 8A 8A 8B 00 
     393.  00:A9CE                      	DB  #00,#CF,#69,#29,#29,#29,#29,#CF
     393.  00:A9CE  00 CF 69 29 29 29 29 CF 
     394.  00:A9D6                      	DB  #8F,#09,#09,#09,#09,#09,#C9,#00
     394.  00:A9D6  8F 09 09 09 09 09 C9 00 
     395.  00:A9DE                      	
     396.  00:A9DE                      sprite_magia_4:
     397.  00:A9DE                      	DB  #00,#D9,#FA,#AA,#88,#88,#88,#88
     397.  00:A9DE  00 D9 FA AA 88 88 88 88 
     398.  00:A9E6                      	DB  #89,#8B,#8A,#8A,#8A,#8A,#8B,#00
     398.  00:A9E6  89 8B 8A 8A 8A 8A 8B 00 
     399.  00:A9EE                      	DB  #00,#CE,#6B,#29,#29,#29,#29,#CF
     399.  00:A9EE  00 CE 6B 29 29 29 29 CF 
     400.  00:A9F6                      	DB  #8F,#09,#09,#09,#09,#0B,#CE,#00
     400.  00:A9F6  8F 09 09 09 09 0B CE 00 
     401.  00:A9FE                      fin_sprite_magia:
     402.  00:A9FE                      	
     403.  00:A9FE                      ;; JEFE LOBO (4 sprites 2 escenas 2 direcciones)
     404.  00:A9FE                      sprite_jefelobo:
     405.  00:A9FE                      sprite_jefelobo1_1:
     406.  00:A9FE                      	DB  00000000b,00000000b,00000000b,00000000b,00000000b,00000000b,00000000b,00000000b
     406.  00:A9FE  00 00 00 00 00 00 00 00 
     407.  00:AA06                      	DB	00000000b,00000000b,00000000b,00000000b,00000011b,00001111b,00011111b,00111111b
     407.  00:AA06  00 00 00 00 03 0F 1F 3F 
     408.  00:AA0E                      	DB	00000000b,00000000b,00000000b,00000000b,00000000b,00000000b,00000000b,00000000b
     408.  00:AA0E  00 00 00 00 00 00 00 00 
     409.  00:AA16                      	DB	00000000b,00000000b,00000000b,00000000b,11111000b,11111111b,11111111b,11111111b
     409.  00:AA16  00 00 00 00 F8 FF FF FF 
     410.  00:AA1E                      
     411.  00:AA1E                      sprite_jefelobo1_2:
     412.  00:AA1E                      	DB	01111111b,11111111b,11111111b,11111111b,10011111b,10011111b,10111111b,10111111b
     412.  00:AA1E  7F FF FF FF 9F 9F BF BF 
     413.  00:AA26                      	DB	00111111b,01111111b,01111111b,01101110b,01100110b,01100110b,00100010b,00110011b
     413.  00:AA26  3F 7F 7F 6E 66 66 22 33 
     414.  00:AA2E                      	DB	11111111b,11111111b,11111111b,11111111b,11111111b,11111111b,11111111b,10001111b
     414.  00:AA2E  FF FF FF FF FF FF FF 8F 
     415.  00:AA36                      	DB	10000000b,00000000b,00000000b,00000000b,00000000b,00000000b,00000000b,00000000b
     415.  00:AA36  80 00 00 00 00 00 00 00 
     416.  00:AA3E                      
     417.  00:AA3E                      sprite_jefelobo1_3:
     418.  00:AA3E                      	DB	00000000b,00000000b,00000000b,00000000b,00000000b,00000000b,00000000b,00000000b
     418.  00:AA3E  00 00 00 00 00 00 00 00 
     419.  00:AA46                      	DB	00000000b,00000000b,00000001b,00000011b,00111111b,11111111b,11111111b,11111111b
     419.  00:AA46  00 00 01 03 3F FF FF FF 
     420.  00:AA4E                      	DB	00000000b,00000000b,00000000b,00000000b,00000000b,00000000b,00000000b,00000000b
     420.  00:AA4E  00 00 00 00 00 00 00 00 
     421.  00:AA56                      	DB	01000010b,01100110b,11111110b,11111110b,11111111b,11001011b,11111111b,11111110b
     421.  00:AA56  42 66 FE FE FF CB FF FE 
     422.  00:AA5E                      
     423.  00:AA5E                      sprite_jefelobo1_4:
     424.  00:AA5E                      	DB	11111111b,11111111b,11111111b,11111111b,11111111b,11111111b,11111111b,11111111b
     424.  00:AA5E  FF FF FF FF FF FF FF FF 
     425.  00:AA66                      	DB	01111111b,00111011b,00111000b,00011000b,00011000b,00011000b,00011100b,00000110b
     425.  00:AA66  7F 3B 38 18 18 18 1C 06 
     426.  00:AA6E                      	DB	11110010b,11111100b,11111000b,01110000b,11100000b,11000000b,11000000b,10000000b
     426.  00:AA6E  F2 FC F8 70 E0 C0 C0 80 
     427.  00:AA76                      	DB	10000000b,11000000b,11000000b,11000000b,11000000b,01100000b,00110000b,00011000b
     427.  00:AA76  80 C0 C0 C0 C0 60 30 18 
     428.  00:AA7E                      
     429.  00:AA7E                      sprite_jefelobo1_5:
     430.  00:AA7E                      	DB	00000000b,00000000b,00000000b,00000000b,00000000b,00000000b,00000000b,00000000b
     430.  00:AA7E  00 00 00 00 00 00 00 00 
     431.  00:AA86                      	DB	00000000b,00000000b,00000000b,00000000b,00000000b,00001111b,00011111b,00111111b
     431.  00:AA86  00 00 00 00 00 0F 1F 3F 
     432.  00:AA8E                      	DB	00000000b,00000000b,00000000b,00000000b,00000000b,00000000b,00000000b,00000000b
     432.  00:AA8E  00 00 00 00 00 00 00 00 
     433.  00:AA96                      	DB	00000000b,00000000b,00000000b,00000000b,00000000b,11111111b,11111111b,11111111b
     433.  00:AA96  00 00 00 00 00 FF FF FF 
     434.  00:AA9E                      
     435.  00:AA9E                      sprite_jefelobo1_6:
     436.  00:AA9E                      	DB	01111111b,11111111b,11111111b,11111111b,11111111b,10111111b,10111111b,10111111b
     436.  00:AA9E  7F FF FF FF FF BF BF BF 
     437.  00:AAA6                      	DB	00111111b,00111111b,00111011b,00111001b,00110000b,00110000b,00110000b,00011000b
     437.  00:AAA6  3F 3F 3B 39 30 30 30 18 
     438.  00:AAAE                      	DB	11111111b,11111111b,11111111b,11111111b,11111111b,11111111b,11111111b,11111111b
     438.  00:AAAE  FF FF FF FF FF FF FF FF 
     439.  00:AAB6                      	DB	10000000b,11000000b,11000000b,11000000b,11000000b,01100000b,01100001b,00110001b
     439.  00:AAB6  80 C0 C0 C0 C0 60 61 31 
     440.  00:AABE                      
     441.  00:AABE                      sprite_jefelobo1_7:
     442.  00:AABE                      	DB	00000000b,00000000b,00000000b,00000000b,00000000b,00000000b,00000000b,00000000b
     442.  00:AABE  00 00 00 00 00 00 00 00 
     443.  00:AAC6                      	DB	00000000b,00000000b,00000001b,00000011b,00111111b,11111111b,11111111b,11111111b
     443.  00:AAC6  00 00 01 03 3F FF FF FF 
     444.  00:AACE                      	DB	00000000b,00000000b,00000000b,00000000b,00000000b,00000000b,00000000b,00000000b
     444.  00:AACE  00 00 00 00 00 00 00 00 
     445.  00:AAD6                      	DB	00100010b,01100110b,11111110b,01111111b,11111111b,10110111b,11111111b,01100111b
     445.  00:AAD6  22 66 FE 7F FF B7 FF 67 
     446.  00:AADE                      
     447.  00:AADE                      sprite_jefelobo1_8:
     448.  00:AADE                      	DB	11111111b,11111111b,11111111b,11111111b,11111111b,11111111b,11111111b,11111111b
     448.  00:AADE  FF FF FF FF FF FF FF FF 
     449.  00:AAE6                      	DB	01111111b,01110011b,01110011b,01110011b,11100011b,11000001b,11000001b,10000001b
     449.  00:AAE6  7F 73 73 73 E3 C1 C1 81 
     450.  00:AAEE                      	DB	10110110b,11111100b,11111000b,11110000b,11100000b,11000000b,11000000b,10000000b
     450.  00:AAEE  B6 FC F8 F0 E0 C0 C0 80 
     451.  00:AAF6                      	DB	10000000b,00000000b,00000000b,00000000b,00000000b,00000000b,00000000b,10000000b
     451.  00:AAF6  80 00 00 00 00 00 00 80 
     452.  00:AAFE                      
     453.  00:AAFE                      sprite_jefelobo2_1:
     454.  00:AAFE                      	DB	00000000b,00000000b,00000000b,00000000b,00000000b,00000000b,00000000b,00000000b
     454.  00:AAFE  00 00 00 00 00 00 00 00 
     455.  00:AB06                      	DB	01000010b,01100110b,01111111b,01111111b,11111111b,11010011b,11111111b,11111111b
     455.  00:AB06  42 66 7F 7F FF D3 FF FF 
     456.  00:AB0E                      	DB	00000000b,00000000b,00000000b,00000000b,00000000b,00000000b,00000000b,00000000b
     456.  00:AB0E  00 00 00 00 00 00 00 00 
     457.  00:AB16                      	DB	00000000b,00000000b,10000000b,11000000b,11111100b,11111111b,11111111b,11111111b
     457.  00:AB16  00 00 80 C0 FC FF FF FF 
     458.  00:AB1E                      
     459.  00:AB1E                      sprite_jefelobo2_2:
     460.  00:AB1E                      	DB	01001111b,00111111b,00011111b,00001111b,00000000b,00000000b,00000000b,00000000b
     460.  00:AB1E  4F 3F 1F 0F 00 00 00 00 
     461.  00:AB26                      	DB	00000001b,00000011b,00000011b,00000011b,00000011b,00000110b,00001100b,00011000b
     461.  00:AB26  01 03 03 03 03 06 0C 18 
     462.  00:AB2E                      	DB	11111111b,11111111b,11111111b,11111111b,11111111b,11111111b,11111111b,11111111b
     462.  00:AB2E  FF FF FF FF FF FF FF FF 
     463.  00:AB36                      	DB	11111110b,11011100b,00011100b,00011000b,00011000b,00011000b,00111000b,01100000b
     463.  00:AB36  FE DC 1C 18 18 18 38 60 
     464.  00:AB3E                      	
     465.  00:AB3E                      sprite_jefelobo2_3:
     466.  00:AB3E                      	DB	00000000b,00000000b,00000000b,00000000b,00000000b,00000000b,00000000b,00000000b
     466.  00:AB3E  00 00 00 00 00 00 00 00 
     467.  00:AB46                      	DB	00000000b,00000000b,00000000b,00000000b,00001111b,11111111b,11111111b,11111111b
     467.  00:AB46  00 00 00 00 0F FF FF FF 
     468.  00:AB4E                      	DB	00000000b,00000000b,00000000b,00000000b,00000000b,00000000b,00000000b,00000000b
     468.  00:AB4E  00 00 00 00 00 00 00 00 
     469.  00:AB56                      	DB	00000000b,00000000b,00000000b,00000000b,11000000b,11110000b,11111000b,11111100b
     469.  00:AB56  00 00 00 00 C0 F0 F8 FC 
     470.  00:AB5E                      
     471.  00:AB5E                      sprite_jefelobo2_4:
     472.  00:AB5E                      	DB	11111111b,11111111b,11111111b,11111111b,11111111b,11111111b,11111111b,11110001b
     472.  00:AB5E  FF FF FF FF FF FF FF F1 
     473.  00:AB66                      	DB	00000001b,00000000b,00000000b,00000000b,00000000b,00000000b,00000000b,00000000b
     473.  00:AB66  01 00 00 00 00 00 00 00 
     474.  00:AB6E                      	DB	11111110b,11111111b,11111111b,11111111b,11111001b,11111001b,11111101b,11111101b
     474.  00:AB6E  FE FF FF FF F9 F9 FD FD 
     475.  00:AB76                      	DB	11111100b,11111110b,11111110b,01110110b,01100110b,01100110b,01000100b,11001100b
     475.  00:AB76  FC FE FE 76 66 66 44 CC 
     476.  00:AB7E                      
     477.  00:AB7E                      sprite_jefelobo2_5:
     478.  00:AB7E                      	DB	00000000b,00000000b,00000000b,00000000b,00000000b,00000000b,00000000b,00000000b
     478.  00:AB7E  00 00 00 00 00 00 00 00 
     479.  00:AB86                      	DB	01000100b,01100110b,01111111b,01111111b,11111111b,11101101b,11111111b,11110011b
     479.  00:AB86  44 66 7F 7F FF ED FF F3 
     480.  00:AB8E                      	DB	00000000b,00000000b,00000000b,00000000b,00000000b,00000000b,00000000b,00000000b
     480.  00:AB8E  00 00 00 00 00 00 00 00 
     481.  00:AB96                      	DB	00000000b,00000000b,10000000b,11000000b,11111100b,11111111b,11111111b,11111111b
     481.  00:AB96  00 00 80 C0 FC FF FF FF 
     482.  00:AB9E                      
     483.  00:AB9E                      sprite_jefelobo2_6:
     484.  00:AB9E                      	DB	01101101b,00111111b,00011111b,00001111b,00000000b,00000000b,00000000b,00000000b
     484.  00:AB9E  6D 3F 1F 0F 00 00 00 00 
     485.  00:ABA6                      	DB	00000001b,00000000b,00000000b,00000000b,00000000b,00000000b,00000000b,00000001b
     485.  00:ABA6  01 00 00 00 00 00 00 01 
     486.  00:ABAE                      	DB	11111111b,11111111b,11111111b,11111111b,11111111b,11111111b,11111111b,11111111b
     486.  00:ABAE  FF FF FF FF FF FF FF FF 
     487.  00:ABB6                      	DB	11111110b,11001110b,11001110b,11000110b,11000111b,10000011b,10000011b,10000001b
     487.  00:ABB6  FE CE CE C6 C7 83 83 81 
     488.  00:ABBE                      
     489.  00:ABBE                      sprite_jefelobo2_7:
     490.  00:ABBE                      	DB	00000000b,00000000b,00000000b,00000000b,00000000b,00000000b,00000000b,00000000b
     490.  00:ABBE  00 00 00 00 00 00 00 00 
     491.  00:ABC6                      	DB	00000000b,00000000b,00000000b,00000000b,00000000b,11111111b,11111111b,11111111b
     491.  00:ABC6  00 00 00 00 00 FF FF FF 
     492.  00:ABCE                      	DB	00000000b,00000000b,00000000b,00000000b,00000000b,00000000b,00000000b,00000000b
     492.  00:ABCE  00 00 00 00 00 00 00 00 
     493.  00:ABD6                      	DB	00000000b,00000000b,00000000b,00000000b,00000000b,11110000b,11111000b,11111100b
     493.  00:ABD6  00 00 00 00 00 F0 F8 FC 
     494.  00:ABDE                      
     495.  00:ABDE                      sprite_jefelobo2_8:
     496.  00:ABDE                      	DB	11111111b,11111111b,11111111b,11111111b,11111111b,11111111b,11111111b,11111111b
     496.  00:ABDE  FF FF FF FF FF FF FF FF 
     497.  00:ABE6                      	DB	00000001b,00000011b,00000011b,00000011b,00000011b,00000110b,10000110b,10011000b
     497.  00:ABE6  01 03 03 03 03 06 86 98 
     498.  00:ABEE                      	DB	11111110b,11111111b,11111111b,11111111b,11111111b,11111101b,11111101b,11111101b
     498.  00:ABEE  FE FF FF FF FF FD FD FD 
     499.  00:ABF6                      	DB	11111100b,11111100b,11011100b,10011100b,00001100b,00001100b,00001100b,00011000b
     499.  00:ABF6  FC FC DC 9C 0C 0C 0C 18 
     500.  00:ABFE                      fin_sprite_jefelobo:
     501.  00:ABFE                      
     502.  00:ABFE                      
     503.  00:ABFE                      	
     504.  00:ABFE                      ;; JEFE MURCIËLAGO (4 sprites 2 escenas)
     505.  00:ABFE                      sprite_jefemurcielago:
     506.  00:ABFE                      sprite_jefemurcielago_1:
     507.  00:ABFE                      	DB  #70,#11,#13,#10,#10,#10,#90,#90
     507.  00:ABFE  70 11 13 10 10 10 90 90 
     508.  00:AC06                      	DB  #70,#00,#00,#88,#D8,#A8,#89,#88
     508.  00:AC06  70 00 00 88 D8 A8 89 88 
     509.  00:AC0E                      	DB  #00,#8F,#89,#89,#89,#89,#89,#8F
     509.  00:AC0E  00 8F 89 89 89 89 89 8F 
     510.  00:AC16                      	DB  #8F,#89,#89,#89,#89,#89,#C9,#00
     510.  00:AC16  8F 89 89 89 89 89 C9 00 
     511.  00:AC1E                      	
     512.  00:AC1E                      sprite_jefemurcielago_2:
     513.  00:AC1E                      	DB  #70,#11,#13,#10,#10,#10,#90,#90
     513.  00:AC1E  70 11 13 10 10 10 90 90 
     514.  00:AC26                      	DB  #70,#00,#00,#88,#D8,#A8,#89,#88
     514.  00:AC26  70 00 00 88 D8 A8 89 88 
     515.  00:AC2E                      	DB  #00,#8E,#8B,#89,#89,#89,#89,#8F
     515.  00:AC2E  00 8E 8B 89 89 89 89 8F 
     516.  00:AC36                      	DB  #8F,#89,#89,#89,#89,#8B,#CE,#00
     516.  00:AC36  8F 89 89 89 89 8B CE 00 
     517.  00:AC3E                      	
     518.  00:AC3E                      sprite_jefemurcielago_3:
     519.  00:AC3E                      	DB  #70,#11,#13,#10,#10,#10,#90,#90
     519.  00:AC3E  70 11 13 10 10 10 90 90 
     520.  00:AC46                      	DB  #70,#00,#00,#88,#D8,#A8,#89,#88
     520.  00:AC46  70 00 00 88 D8 A8 89 88 
     521.  00:AC4E                      	DB  #00,#8F,#89,#88,#88,#88,#88,#88
     521.  00:AC4E  00 8F 89 88 88 88 88 88 
     522.  00:AC56                      	DB  #88,#88,#88,#88,#88,#89,#CF,#00
     522.  00:AC56  88 88 88 88 88 89 CF 00 
     523.  00:AC5E                      	
     524.  00:AC5E                      sprite_jefemurcielago_4:
     525.  00:AC5E                      	DB  #70,#11,#13,#10,#10,#10,#90,#90
     525.  00:AC5E  70 11 13 10 10 10 90 90 
     526.  00:AC66                      	DB  #70,#00,#00,#88,#D8,#A8,#89,#88
     526.  00:AC66  70 00 00 88 D8 A8 89 88 
     527.  00:AC6E                      	DB  #00,#8E,#8B,#89,#89,#89,#89,#89
     527.  00:AC6E  00 8E 8B 89 89 89 89 89 
     528.  00:AC76                      	DB  #89,#89,#89,#89,#89,#8B,#CE,#00
     528.  00:AC76  89 89 89 89 89 8B CE 00 
     529.  00:AC7E                      	
     530.  00:AC7E                      sprite_jefemurcielago_5:
     531.  00:AC7E                      	DB  #00,#F1,#91,#91,#91,#91,#91,#F1
     531.  00:AC7E  00 F1 91 91 91 91 91 F1 
     532.  00:AC86                      	DB  #F1,#91,#91,#91,#91,#91,#93,#00
     532.  00:AC86  F1 91 91 91 91 91 93 00 
     533.  00:AC8E                      	DB  #0E,#88,#C8,#08,#08,#08,#09,#09
     533.  00:AC8E  0E 88 C8 08 08 08 09 09 
     534.  00:AC96                      	DB  #0E,#00,#00,#11,#1B,#15,#91,#11
     534.  00:AC96  0E 00 00 11 1B 15 91 11 
     535.  00:AC9E                      	
     536.  00:AC9E                      sprite_jefemurcielago_6:
     537.  00:AC9E                      	DB  #00,#71,#D1,#91,#91,#91,#91,#F1
     537.  00:AC9E  00 71 D1 91 91 91 91 F1 
     538.  00:ACA6                      	DB  #F1,#91,#91,#91,#91,#D1,#73,#00
     538.  00:ACA6  F1 91 91 91 91 D1 73 00 
     539.  00:ACAE                      	DB  #0E,#88,#C8,#08,#08,#08,#09,#09
     539.  00:ACAE  0E 88 C8 08 08 08 09 09 
     540.  00:ACB6                      	DB  #0E,#00,#00,#11,#1B,#15,#91,#11
     540.  00:ACB6  0E 00 00 11 1B 15 91 11 
     541.  00:ACBE                      	
     542.  00:ACBE                      sprite_jefemurcielago_7:
     543.  00:ACBE                      	DB  #00,#F1,#91,#11,#11,#11,#11,#11
     543.  00:ACBE  00 F1 91 11 11 11 11 11 
     544.  00:ACC6                      	DB  #11,#11,#11,#11,#11,#91,#F3,#00
     544.  00:ACC6  11 11 11 11 11 91 F3 00 
     545.  00:ACCE                      	DB  #0E,#88,#C8,#08,#08,#08,#09,#09
     545.  00:ACCE  0E 88 C8 08 08 08 09 09 
     546.  00:ACD6                      	DB  #0E,#00,#00,#11,#1B,#15,#91,#11
     546.  00:ACD6  0E 00 00 11 1B 15 91 11 
     547.  00:ACDE                      	
     548.  00:ACDE                      sprite_jefemurcielago_8:
     549.  00:ACDE                      	DB  #00,#71,#D1,#91,#91,#91,#91,#91
     549.  00:ACDE  00 71 D1 91 91 91 91 91 
     550.  00:ACE6                      	DB  #91,#91,#91,#91,#91,#D1,#73,#00
     550.  00:ACE6  91 91 91 91 91 D1 73 00 
     551.  00:ACEE                      	DB  #0E,#88,#C8,#08,#08,#08,#09,#09
     551.  00:ACEE  0E 88 C8 08 08 08 09 09 
     552.  00:ACF6                      	DB  #0E,#00,#00,#11,#1B,#15,#91,#11
     552.  00:ACF6  0E 00 00 11 1B 15 91 11 
     553.  00:ACFE                      fin_sprite_jefemurcielago:
     554.  00:ACFE                      	
     555.  00:ACFE                      ;; JEFE FANTASMA (4 sprites 2 escenas)
     556.  00:ACFE                      sprite_jefefantasma:
     557.  00:ACFE                      sprite_jefefantasma_1:
     558.  00:ACFE                      	DB  #70,#11,#13,#10,#10,#10,#90,#90
     558.  00:ACFE  70 11 13 10 10 10 90 90 
     559.  00:AD06                      	DB  #70,#00,#F0,#80,#E0,#80,#81,#80
     559.  00:AD06  70 00 F0 80 E0 80 81 80 
     560.  00:AD0E                      	DB  #00,#8F,#89,#89,#89,#89,#89,#8F
     560.  00:AD0E  00 8F 89 89 89 89 89 8F 
     561.  00:AD16                      	DB  #8F,#89,#89,#89,#89,#89,#C9,#00
     561.  00:AD16  8F 89 89 89 89 89 C9 00 
     562.  00:AD1E                      	
     563.  00:AD1E                      sprite_jefefantasma_2:
     564.  00:AD1E                      	DB  #70,#11,#13,#10,#10,#10,#90,#90
     564.  00:AD1E  70 11 13 10 10 10 90 90 
     565.  00:AD26                      	DB  #70,#00,#F0,#80,#E0,#80,#81,#80
     565.  00:AD26  70 00 F0 80 E0 80 81 80 
     566.  00:AD2E                      	DB  #00,#8E,#8B,#89,#89,#89,#89,#8F
     566.  00:AD2E  00 8E 8B 89 89 89 89 8F 
     567.  00:AD36                      	DB  #8F,#89,#89,#89,#89,#8B,#CE,#00
     567.  00:AD36  8F 89 89 89 89 8B CE 00 
     568.  00:AD3E                      	
     569.  00:AD3E                      sprite_jefefantasma_3:
     570.  00:AD3E                      	DB  #70,#11,#13,#10,#10,#10,#90,#90
     570.  00:AD3E  70 11 13 10 10 10 90 90 
     571.  00:AD46                      	DB  #70,#00,#F0,#80,#E0,#80,#81,#80
     571.  00:AD46  70 00 F0 80 E0 80 81 80 
     572.  00:AD4E                      	DB  #00,#8E,#89,#88,#88,#88,#88,#88
     572.  00:AD4E  00 8E 89 88 88 88 88 88 
     573.  00:AD56                      	DB  #88,#88,#88,#88,#88,#89,#CE,#00
     573.  00:AD56  88 88 88 88 88 89 CE 00 
     574.  00:AD5E                      
     575.  00:AD5E                      sprite_jefefantasma_4:
     576.  00:AD5E                      	DB  #70,#11,#13,#10,#10,#10,#90,#90
     576.  00:AD5E  70 11 13 10 10 10 90 90 
     577.  00:AD66                      	DB  #70,#00,#F0,#80,#E0,#80,#81,#80
     577.  00:AD66  70 00 F0 80 E0 80 81 80 
     578.  00:AD6E                      	DB  #00,#8E,#8B,#89,#89,#89,#89,#89
     578.  00:AD6E  00 8E 8B 89 89 89 89 89 
     579.  00:AD76                      	DB  #89,#89,#89,#89,#89,#8B,#CE,#00
     579.  00:AD76  89 89 89 89 89 8B CE 00 
     580.  00:AD7E                      	
     581.  00:AD7E                      sprite_jefefantasma_5:
     582.  00:AD7E                      	DB  #00,#F1,#91,#91,#91,#91,#91,#F1
     582.  00:AD7E  00 F1 91 91 91 91 91 F1 
     583.  00:AD86                      	DB  #F1,#91,#91,#91,#91,#91,#93,#00
     583.  00:AD86  F1 91 91 91 91 91 93 00 
     584.  00:AD8E                      	DB  #0E,#88,#C8,#08,#08,#08,#09,#09
     584.  00:AD8E  0E 88 C8 08 08 08 09 09 
     585.  00:AD96                      	DB  #0E,#00,#0F,#01,#07,#01,#81,#01
     585.  00:AD96  0E 00 0F 01 07 01 81 01 
     586.  00:AD9E                      	
     587.  00:AD9E                      sprite_jefefantasma_6:
     588.  00:AD9E                      	DB  #00,#71,#D1,#91,#91,#91,#91,#F1
     588.  00:AD9E  00 71 D1 91 91 91 91 F1 
     589.  00:ADA6                      	DB  #F1,#91,#91,#91,#91,#D1,#73,#00
     589.  00:ADA6  F1 91 91 91 91 D1 73 00 
     590.  00:ADAE                      	DB  #0E,#88,#C8,#08,#08,#08,#09,#09
     590.  00:ADAE  0E 88 C8 08 08 08 09 09 
     591.  00:ADB6                      	DB  #0E,#00,#0F,#01,#07,#01,#81,#01
     591.  00:ADB6  0E 00 0F 01 07 01 81 01 
     592.  00:ADBE                      	
     593.  00:ADBE                      sprite_jefefantasma_7:
     594.  00:ADBE                      	DB  #00,#71,#91,#11,#11,#11,#11,#11
     594.  00:ADBE  00 71 91 11 11 11 11 11 
     595.  00:ADC6                      	DB  #11,#11,#11,#11,#11,#91,#73,#00
     595.  00:ADC6  11 11 11 11 11 91 73 00 
     596.  00:ADCE                      	DB  #0E,#88,#C8,#08,#08,#08,#09,#09
     596.  00:ADCE  0E 88 C8 08 08 08 09 09 
     597.  00:ADD6                      	DB  #0E,#00,#0F,#01,#07,#01,#81,#01
     597.  00:ADD6  0E 00 0F 01 07 01 81 01 
     598.  00:ADDE                      	
     599.  00:ADDE                      sprite_jefefantasma_8:
     600.  00:ADDE                      	DB  #00,#71,#D1,#91,#91,#91,#91,#91
     600.  00:ADDE  00 71 D1 91 91 91 91 91 
     601.  00:ADE6                      	DB  #91,#91,#91,#91,#91,#D1,#73,#00
     601.  00:ADE6  91 91 91 91 91 D1 73 00 
     602.  00:ADEE                      	DB  #0E,#88,#C8,#08,#08,#08,#09,#09
     602.  00:ADEE  0E 88 C8 08 08 08 09 09 
     603.  00:ADF6                      	DB  #0E,#00,#0F,#01,#07,#01,#81,#01
     603.  00:ADF6  0E 00 0F 01 07 01 81 01 
     604.  00:ADFE                      fin_sprite_jefefantasma:
     605.  00:ADFE                      	
     606.  00:ADFE                      ;; JEFE ZOMBI (4 sprites 2 escenas 2 direcciones)
     607.  00:ADFE                      sprite_jefezombi:
     608.  00:ADFE                      sprite_jefezombi1_1:
     609.  00:ADFE                      	DB  #70,#11,#13,#10,#10,#10,#90,#60
     609.  00:ADFE  70 11 13 10 10 10 90 60 
     610.  00:AE06                      	DB  #00,#FC,#0C,#18,#70,#40,#85,#FC
     610.  00:AE06  00 FC 0C 18 70 40 85 FC 
     611.  00:AE0E                      	DB  #00,#8F,#89,#89,#89,#89,#89,#8F
     611.  00:AE0E  00 8F 89 89 89 89 89 8F 
     612.  00:AE16                      	DB  #8F,#89,#89,#89,#89,#89,#C9,#00 
     612.  00:AE16  8F 89 89 89 89 89 C9 00 
     613.  00:AE1E                      
     614.  00:AE1E                      sprite_jefezombi1_2:
     615.  00:AE1E                      	DB  #70,#11,#13,#10,#10,#10,#90,#60
     615.  00:AE1E  70 11 13 10 10 10 90 60 
     616.  00:AE26                      	DB  #00,#FC,#0C,#18,#70,#40,#85,#FC
     616.  00:AE26  00 FC 0C 18 70 40 85 FC 
     617.  00:AE2E                      	DB  #00,#8E,#8B,#89,#89,#89,#89,#8F
     617.  00:AE2E  00 8E 8B 89 89 89 89 8F 
     618.  00:AE36                      	DB  #8F,#89,#89,#89,#89,#8B,#CE,#00
     618.  00:AE36  8F 89 89 89 89 8B CE 00 
     619.  00:AE3E                      	
     620.  00:AE3E                      sprite_jefezombi1_3:
     621.  00:AE3E                      	DB  #70,#11,#13,#10,#10,#10,#90,#60
     621.  00:AE3E  70 11 13 10 10 10 90 60 
     622.  00:AE46                      	DB  #00,#FC,#0C,#18,#70,#40,#85,#FC
     622.  00:AE46  00 FC 0C 18 70 40 85 FC 
     623.  00:AE4E                      	DB  #00,#8F,#89,#88,#88,#88,#88,#88
     623.  00:AE4E  00 8F 89 88 88 88 88 88 
     624.  00:AE56                      	DB  #88,#88,#88,#88,#89,#89,#CF,#00
     624.  00:AE56  88 88 88 88 89 89 CF 00 
     625.  00:AE5E                      	
     626.  00:AE5E                      sprite_jefezombi1_4:
     627.  00:AE5E                      	DB  #70,#11,#13,#10,#10,#10,#90,#60
     627.  00:AE5E  70 11 13 10 10 10 90 60 
     628.  00:AE66                      	DB  #00,#FC,#0C,#18,#70,#40,#85,#FC
     628.  00:AE66  00 FC 0C 18 70 40 85 FC 
     629.  00:AE6E                      	DB  #00,#8E,#8B,#89,#89,#89,#89,#89
     629.  00:AE6E  00 8E 8B 89 89 89 89 89 
     630.  00:AE76                      	DB  #89,#89,#89,#89,#89,#8B,#CE,#00
     630.  00:AE76  89 89 89 89 89 8B CE 00 
     631.  00:AE7E                      	
     632.  00:AE7E                      sprite_jefezombi1_5:
     633.  00:AE7E                      	DB  #70,#11,#12,#12,#10,#10,#90,#60
     633.  00:AE7E  70 11 12 12 10 10 90 60 
     634.  00:AE86                      	DB  #00,#FC,#0D,#19,#71,#41,#85,#FC
     634.  00:AE86  00 FC 0D 19 71 41 85 FC 
     635.  00:AE8E                      	DB  #00,#EF,#29,#29,#29,#29,#29,#6F
     635.  00:AE8E  00 EF 29 29 29 29 29 6F 
     636.  00:AE96                      	DB  #CF,#89,#89,#09,#09,#09,#E9,#00
     636.  00:AE96  CF 89 89 09 09 09 E9 00 
     637.  00:AE9E                      	
     638.  00:AE9E                      sprite_jefezombi1_6:
     639.  00:AE9E                      	DB  #70,#11,#12,#12,#10,#10,#90,#60
     639.  00:AE9E  70 11 12 12 10 10 90 60 
     640.  00:AEA6                      	DB  #00,#FC,#0D,#19,#71,#41,#85,#FC
     640.  00:AEA6  00 FC 0D 19 71 41 85 FC 
     641.  00:AEAE                      	DB  #00,#EE,#2B,#29,#29,#29,#29,#6F
     641.  00:AEAE  00 EE 2B 29 29 29 29 6F 
     642.  00:AEB6                      	DB  #CF,#89,#89,#09,#09,#0B,#EE,#00
     642.  00:AEB6  CF 89 89 09 09 0B EE 00 
     643.  00:AEBE                      	
     644.  00:AEBE                      sprite_jefezombi1_7:
     645.  00:AEBE                      	DB  #70,#11,#12,#12,#10,#10,#90,#60
     645.  00:AEBE  70 11 12 12 10 10 90 60 
     646.  00:AEC6                      	DB  #00,#FC,#0D,#19,#71,#41,#85,#FC
     646.  00:AEC6  00 FC 0D 19 71 41 85 FC 
     647.  00:AECE                      	DB  #00,#EF,#29,#29,#28,#28,#28,#68
     647.  00:AECE  00 EF 29 29 28 28 28 68 
     648.  00:AED6                      	DB  #C8,#88,#88,#08,#08,#09,#EF,#00
     648.  00:AED6  C8 88 88 08 08 09 EF 00 
     649.  00:AEDE                      	
     650.  00:AEDE                      sprite_jefezombi1_8:
     651.  00:AEDE                      	DB  #70,#11,#12,#12,#10,#10,#90,#60
     651.  00:AEDE  70 11 12 12 10 10 90 60 
     652.  00:AEE6                      	DB  #00,#FC,#0D,#19,#71,#41,#85,#FC
     652.  00:AEE6  00 FC 0D 19 71 41 85 FC 
     653.  00:AEEE                      	DB  #00,#EE,#2B,#29,#29,#29,#29,#69
     653.  00:AEEE  00 EE 2B 29 29 29 29 69 
     654.  00:AEF6                      	DB  #C9,#89,#89,#09,#09,#0B,#EE,#00
     654.  00:AEF6  C9 89 89 09 09 0B EE 00 
     655.  00:AEFE                      	
     656.  00:AEFE                      sprite_jefezombi2_1:
     657.  00:AEFE                      	DB  #00,#F1,#91,#91,#91,#91,#91,#F1
     657.  00:AEFE  00 F1 91 91 91 91 91 F1 
     658.  00:AF06                      	DB  #F1,#91,#91,#91,#91,#91,#93,#00
     658.  00:AF06  F1 91 91 91 91 91 93 00 
     659.  00:AF0E                      	DB  #0E,#88,#C8,#08,#08,#08,#09,#06
     659.  00:AF0E  0E 88 C8 08 08 08 09 06 
     660.  00:AF16                      	DB  #00,#3F,#30,#18,#0E,#02,#A1,#3F
     660.  00:AF16  00 3F 30 18 0E 02 A1 3F 
     661.  00:AF1E                      	
     662.  00:AF1E                      sprite_jefezombi2_2:
     663.  00:AF1E                      	DB  #00,#71,#D1,#91,#91,#91,#91,#F1
     663.  00:AF1E  00 71 D1 91 91 91 91 F1 
     664.  00:AF26                      	DB  #F1,#91,#91,#91,#91,#D1,#73,#00
     664.  00:AF26  F1 91 91 91 91 D1 73 00 
     665.  00:AF2E                      	DB  #0E,#88,#C8,#08,#08,#08,#09,#06
     665.  00:AF2E  0E 88 C8 08 08 08 09 06 
     666.  00:AF36                      	DB  #00,#3F,#30,#18,#0E,#02,#A1,#3F
     666.  00:AF36  00 3F 30 18 0E 02 A1 3F 
     667.  00:AF3E                      	
     668.  00:AF3E                      sprite_jefezombi2_3:
     669.  00:AF3E                      	DB  #00,#F1,#91,#11,#11,#11,#11,#11
     669.  00:AF3E  00 F1 91 11 11 11 11 11 
     670.  00:AF46                      	DB  #11,#11,#11,#11,#91,#91,#F3,#00
     670.  00:AF46  11 11 11 11 91 91 F3 00 
     671.  00:AF4E                      	DB  #0E,#88,#C8,#08,#08,#08,#09,#06
     671.  00:AF4E  0E 88 C8 08 08 08 09 06 
     672.  00:AF56                      	DB  #00,#3F,#30,#18,#0E,#02,#A1,#3F
     672.  00:AF56  00 3F 30 18 0E 02 A1 3F 
     673.  00:AF5E                      	
     674.  00:AF5E                      sprite_jefezombi2_4:
     675.  00:AF5E                      	DB  #00,#71,#D1,#91,#91,#91,#91,#91
     675.  00:AF5E  00 71 D1 91 91 91 91 91 
     676.  00:AF66                      	DB  #91,#91,#91,#91,#91,#D1,#73,#00
     676.  00:AF66  91 91 91 91 91 D1 73 00 
     677.  00:AF6E                      	DB  #0E,#88,#C8,#08,#08,#08,#09,#06
     677.  00:AF6E  0E 88 C8 08 08 08 09 06 
     678.  00:AF76                      	DB  #00,#3F,#30,#18,#0E,#02,#A1,#3F
     678.  00:AF76  00 3F 30 18 0E 02 A1 3F 
     679.  00:AF7E                      	
     680.  00:AF7E                      sprite_jefezombi2_5:
     681.  00:AF7E                      	DB  #00,#F7,#94,#94,#94,#94,#94,#F6
     681.  00:AF7E  00 F7 94 94 94 94 94 F6 
     682.  00:AF86                      	DB  #F3,#91,#91,#90,#90,#90,#97,#00
     682.  00:AF86  F3 91 91 90 90 90 97 00 
     683.  00:AF8E                      	DB  #0E,#88,#48,#48,#08,#08,#09,#06
     683.  00:AF8E  0E 88 48 48 08 08 09 06 
     684.  00:AF96                      	DB  #00,#3F,#B0,#98,#8E,#82,#A1,#3F
     684.  00:AF96  00 3F B0 98 8E 82 A1 3F 
     685.  00:AF9E                      	
     686.  00:AF9E                      sprite_jefezombi2_6:
     687.  00:AF9E                      	DB  #00,#77,#D4,#94,#94,#94,#94,#F6
     687.  00:AF9E  00 77 D4 94 94 94 94 F6 
     688.  00:AFA6                      	DB  #F3,#91,#91,#90,#90,#D0,#77,#00
     688.  00:AFA6  F3 91 91 90 90 D0 77 00 
     689.  00:AFAE                      	DB  #0E,#88,#48,#48,#08,#08,#09,#06
     689.  00:AFAE  0E 88 48 48 08 08 09 06 
     690.  00:AFB6                      	DB  #00,#3F,#B0,#98,#8E,#82,#A1,#3F
     690.  00:AFB6  00 3F B0 98 8E 82 A1 3F 
     691.  00:AFBE                      	
     692.  00:AFBE                      sprite_jefezombi2_7:
     693.  00:AFBE                      	DB  #00,#F7,#94,#94,#14,#14,#14,#16
     693.  00:AFBE  00 F7 94 94 14 14 14 16 
     694.  00:AFC6                      	DB  #13,#11,#11,#10,#10,#90,#F7,#00
     694.  00:AFC6  13 11 11 10 10 90 F7 00 
     695.  00:AFCE                      	DB  #0E,#88,#48,#48,#08,#08,#09,#06
     695.  00:AFCE  0E 88 48 48 08 08 09 06 
     696.  00:AFD6                      	DB  #00,#3F,#B0,#98,#8E,#82,#A1,#3F
     696.  00:AFD6  00 3F B0 98 8E 82 A1 3F 
     697.  00:AFDE                      	
     698.  00:AFDE                      sprite_jefezombi2_8:
     699.  00:AFDE                      	DB  #00,#77,#D4,#94,#94,#94,#94,#96
     699.  00:AFDE  00 77 D4 94 94 94 94 96 
     700.  00:AFE6                      	DB  #93,#91,#91,#90,#90,#D0,#77,#00
     700.  00:AFE6  93 91 91 90 90 D0 77 00 
     701.  00:AFEE                      	DB  #0E,#88,#48,#48,#08,#08,#09,#06
     701.  00:AFEE  0E 88 48 48 08 08 09 06 
     702.  00:AFF6                      	DB  #00,#3F,#B0,#98,#8E,#82,#A1,#3F 	
     702.  00:AFF6  00 3F B0 98 8E 82 A1 3F 
     703.  00:AFFE                      fin_sprite_jefezombi:
     704.  00:AFFE                      	
     705.  00:AFFE                      ;; JEFE CABALLERO (4 sprites 2 escenas 2 direcciones)
     706.  00:AFFE                      sprite_jefecaballero:
     707.  00:AFFE                      sprite_jefecaballero1_1:
     708.  00:AFFE                      	DB  #70,#11,#13,#10,#10,#10,#90,#60
     708.  00:AFFE  70 11 13 10 10 10 90 60 
     709.  00:B006                      	DB  #00,#78,#84,#80,#80,#80,#85,#78
     709.  00:B006  00 78 84 80 80 80 85 78 
     710.  00:B00E                      	DB  #00,#8F,#89,#89,#89,#89,#89,#8F
     710.  00:B00E  00 8F 89 89 89 89 89 8F 
     711.  00:B016                      	DB  #8F,#89,#89,#89,#89,#89,#C9,#00
     711.  00:B016  8F 89 89 89 89 89 C9 00 
     712.  00:B01E                      	
     713.  00:B01E                      sprite_jefecaballero1_2:
     714.  00:B01E                      	DB  #70,#11,#13,#10,#10,#10,#90,#60
     714.  00:B01E  70 11 13 10 10 10 90 60 
     715.  00:B026                      	DB  #00,#78,#84,#80,#80,#80,#85,#78
     715.  00:B026  00 78 84 80 80 80 85 78 
     716.  00:B02E                      	DB  #00,#8E,#8B,#89,#89,#89,#89,#8F
     716.  00:B02E  00 8E 8B 89 89 89 89 8F 
     717.  00:B036                      	DB  #8F,#89,#89,#89,#89,#8B,#CE,#00
     717.  00:B036  8F 89 89 89 89 8B CE 00 
     718.  00:B03E                      	
     719.  00:B03E                      sprite_jefecaballero1_3:
     720.  00:B03E                      	DB  #70,#11,#13,#10,#10,#10,#90,#60
     720.  00:B03E  70 11 13 10 10 10 90 60 
     721.  00:B046                      	DB  #00,#78,#84,#80,#80,#80,#85,#78
     721.  00:B046  00 78 84 80 80 80 85 78 
     722.  00:B04E                      	DB  #00,#87,#89,#89,#88,#88,#88,#88
     722.  00:B04E  00 87 89 89 88 88 88 88 
     723.  00:B056                      	DB  #88,#88,#88,#88,#88,#89,#C7,#00
     723.  00:B056  88 88 88 88 88 89 C7 00 
     724.  00:B05E                      	
     725.  00:B05E                      sprite_jefecaballero1_4:
     726.  00:B05E                      	DB  #70,#11,#13,#10,#10,#10,#90,#60
     726.  00:B05E  70 11 13 10 10 10 90 60 
     727.  00:B066                      	DB  #00,#78,#84,#80,#80,#80,#85,#78
     727.  00:B066  00 78 84 80 80 80 85 78 
     728.  00:B06E                      	DB  #00,#8E,#8B,#89,#89,#89,#89,#89
     728.  00:B06E  00 8E 8B 89 89 89 89 89 
     729.  00:B076                      	DB  #89,#89,#89,#89,#89,#8B,#CE,#00
     729.  00:B076  89 89 89 89 89 8B CE 00 
     730.  00:B07E                      	
     731.  00:B07E                      sprite_jefecaballero1_5:
     732.  00:B07E                      	DB  #70,#11,#12,#12,#10,#10,#90,#60
     732.  00:B07E  70 11 12 12 10 10 90 60 
     733.  00:B086                      	DB  #00,#7C,#85,#81,#81,#81,#85,#7C
     733.  00:B086  00 7C 85 81 81 81 85 7C 
     734.  00:B08E                      	DB  #00,#EF,#29,#29,#29,#29,#29,#6F
     734.  00:B08E  00 EF 29 29 29 29 29 6F 
     735.  00:B096                      	DB  #CF,#89,#89,#09,#09,#09,#E9,#00
     735.  00:B096  CF 89 89 09 09 09 E9 00 
     736.  00:B09E                      	
     737.  00:B09E                      sprite_jefecaballero1_6:
     738.  00:B09E                      	DB  #70,#11,#12,#12,#10,#10,#90,#60
     738.  00:B09E  70 11 12 12 10 10 90 60 
     739.  00:B0A6                      	DB  #00,#7C,#85,#81,#81,#81,#85,#7C
     739.  00:B0A6  00 7C 85 81 81 81 85 7C 
     740.  00:B0AE                      	DB  #00,#EE,#2B,#29,#29,#29,#29,#6F
     740.  00:B0AE  00 EE 2B 29 29 29 29 6F 
     741.  00:B0B6                      	DB  #CF,#89,#89,#09,#09,#0B,#EE,#00
     741.  00:B0B6  CF 89 89 09 09 0B EE 00 
     742.  00:B0BE                      	
     743.  00:B0BE                      sprite_jefecaballero1_7:
     744.  00:B0BE                      	DB  #70,#11,#12,#12,#10,#10,#90,#60
     744.  00:B0BE  70 11 12 12 10 10 90 60 
     745.  00:B0C6                      	DB  #00,#7C,#85,#81,#81,#81,#85,#7C
     745.  00:B0C6  00 7C 85 81 81 81 85 7C 
     746.  00:B0CE                      	DB  #00,#EF,#29,#28,#28,#28,#28,#68
     746.  00:B0CE  00 EF 29 28 28 28 28 68 
     747.  00:B0D6                      	DB  #C8,#88,#88,#08,#08,#09,#EF,#00
     747.  00:B0D6  C8 88 88 08 08 09 EF 00 
     748.  00:B0DE                      	
     749.  00:B0DE                      sprite_jefecaballero1_8:
     750.  00:B0DE                      	DB  #70,#11,#12,#12,#10,#10,#90,#60
     750.  00:B0DE  70 11 12 12 10 10 90 60 
     751.  00:B0E6                      	DB  #00,#7C,#85,#81,#81,#81,#85,#7C
     751.  00:B0E6  00 7C 85 81 81 81 85 7C 
     752.  00:B0EE                      	DB  #00,#EE,#2B,#29,#29,#29,#29,#69
     752.  00:B0EE  00 EE 2B 29 29 29 29 69 
     753.  00:B0F6                      	DB  #C9,#89,#89,#09,#09,#0B,#EE,#00
     753.  00:B0F6  C9 89 89 09 09 0B EE 00 
     754.  00:B0FE                      	
     755.  00:B0FE                      sprite_jefecaballero2_1:
     756.  00:B0FE                      	DB  #00,#F1,#91,#91,#91,#91,#91,#F1
     756.  00:B0FE  00 F1 91 91 91 91 91 F1 
     757.  00:B106                      	DB  #F1,#91,#91,#91,#91,#91,#93,#00
     757.  00:B106  F1 91 91 91 91 91 93 00 
     758.  00:B10E                      	DB  #0E,#88,#C8,#08,#08,#08,#09,#06
     758.  00:B10E  0E 88 C8 08 08 08 09 06 
     759.  00:B116                      	DB  #00,#1E,#21,#01,#01,#01,#A1,#1E
     759.  00:B116  00 1E 21 01 01 01 A1 1E 
     760.  00:B11E                      	
     761.  00:B11E                      sprite_jefecaballero2_2:
     762.  00:B11E                      	DB  #00,#71,#D1,#91,#91,#91,#91,#F1
     762.  00:B11E  00 71 D1 91 91 91 91 F1 
     763.  00:B126                      	DB  #F1,#91,#91,#91,#91,#D1,#73,#00
     763.  00:B126  F1 91 91 91 91 D1 73 00 
     764.  00:B12E                      	DB  #0E,#88,#C8,#08,#08,#08,#09,#06
     764.  00:B12E  0E 88 C8 08 08 08 09 06 
     765.  00:B136                      	DB  #00,#1E,#21,#01,#01,#01,#A1,#1E
     765.  00:B136  00 1E 21 01 01 01 A1 1E 
     766.  00:B13E                      	
     767.  00:B13E                      sprite_jefecaballero2_3:
     768.  00:B13E                      	DB  #00,#E1,#91,#91,#11,#11,#11,#11
     768.  00:B13E  00 E1 91 91 11 11 11 11 
     769.  00:B146                      	DB  #11,#11,#11,#11,#11,#91,#E3,#00
     769.  00:B146  11 11 11 11 11 91 E3 00 
     770.  00:B14E                      	DB  #0E,#88,#C8,#08,#08,#08,#09,#06
     770.  00:B14E  0E 88 C8 08 08 08 09 06 
     771.  00:B156                      	DB  #00,#1E,#21,#01,#01,#01,#A1,#1E
     771.  00:B156  00 1E 21 01 01 01 A1 1E 
     772.  00:B15E                      	
     773.  00:B15E                      sprite_jefecaballero2_4:
     774.  00:B15E                      	DB  #00,#71,#D1,#91,#91,#91,#91,#91
     774.  00:B15E  00 71 D1 91 91 91 91 91 
     775.  00:B166                      	DB  #91,#91,#91,#91,#91,#D1,#73,#00
     775.  00:B166  91 91 91 91 91 D1 73 00 
     776.  00:B16E                      	DB  #0E,#88,#C8,#08,#08,#08,#09,#06
     776.  00:B16E  0E 88 C8 08 08 08 09 06 
     777.  00:B176                      	DB  #00,#1E,#21,#01,#01,#01,#A1,#1E
     777.  00:B176  00 1E 21 01 01 01 A1 1E 
     778.  00:B17E                      	
     779.  00:B17E                      sprite_jefecaballero2_5:
     780.  00:B17E                      	DB  #00,#F7,#94,#94,#94,#94,#94,#F6
     780.  00:B17E  00 F7 94 94 94 94 94 F6 
     781.  00:B186                      	DB  #F3,#91,#91,#90,#90,#90,#97,#00
     781.  00:B186  F3 91 91 90 90 90 97 00 
     782.  00:B18E                      	DB  #0E,#88,#48,#48,#08,#08,#09,#06
     782.  00:B18E  0E 88 48 48 08 08 09 06 
     783.  00:B196                      	DB  #00,#3E,#A1,#81,#81,#81,#A1,#3E
     783.  00:B196  00 3E A1 81 81 81 A1 3E 
     784.  00:B19E                      	
     785.  00:B19E                      sprite_jefecaballero2_6:
     786.  00:B19E                      	DB  #00,#77,#D4,#94,#94,#94,#94,#F6
     786.  00:B19E  00 77 D4 94 94 94 94 F6 
     787.  00:B1A6                      	DB  #F3,#91,#91,#90,#90,#D0,#77,#00
     787.  00:B1A6  F3 91 91 90 90 D0 77 00 
     788.  00:B1AE                      	DB  #0E,#88,#48,#48,#08,#08,#09,#06
     788.  00:B1AE  0E 88 48 48 08 08 09 06 
     789.  00:B1B6                      	DB  #00,#3E,#A1,#81,#81,#81,#A1,#3E
     789.  00:B1B6  00 3E A1 81 81 81 A1 3E 
     790.  00:B1BE                      	
     791.  00:B1BE                      sprite_jefecaballero2_7:
     792.  00:B1BE                      	DB  #00,#F7,#94,#14,#14,#14,#14,#16
     792.  00:B1BE  00 F7 94 14 14 14 14 16 
     793.  00:B1C6                      	DB  #13,#11,#11,#10,#10,#90,#F7,#00
     793.  00:B1C6  13 11 11 10 10 90 F7 00 
     794.  00:B1CE                      	DB  #0E,#88,#48,#48,#08,#08,#09,#06
     794.  00:B1CE  0E 88 48 48 08 08 09 06 
     795.  00:B1D6                      	DB  #00,#3E,#A1,#81,#81,#81,#A1,#3E
     795.  00:B1D6  00 3E A1 81 81 81 A1 3E 
     796.  00:B1DE                      	
     797.  00:B1DE                      sprite_jefecaballero2_8:
     798.  00:B1DE                      	DB  #00,#77,#D4,#94,#94,#94,#94,#96
     798.  00:B1DE  00 77 D4 94 94 94 94 96 
     799.  00:B1E6                      	DB  #93,#91,#91,#90,#90,#D0,#77,#00
     799.  00:B1E6  93 91 91 90 90 D0 77 00 
     800.  00:B1EE                      	DB  #0E,#88,#48,#48,#08,#08,#09,#06
     800.  00:B1EE  0E 88 48 48 08 08 09 06 
     801.  00:B1F6                      	DB  #00,#3E,#A1,#81,#81,#81,#A1,#3E
     801.  00:B1F6  00 3E A1 81 81 81 A1 3E 
     802.  00:B1FE                      fin_sprite_jefecaballero:
     803.  00:B1FE                      	
     804.  00:B1FE                      ;; JEFE BEHOLDER (4 sprites 2 escenas)
     805.  00:B1FE                      sprite_jefebeholder:
     806.  00:B1FE                      sprite_jefebeholder_1:
     807.  00:B1FE                      	DB  #70,#11,#13,#10,#10,#10,#90,#60
     807.  00:B1FE  70 11 13 10 10 10 90 60 
     808.  00:B206                      	DB  #00,#F0,#88,#88,#F8,#88,#89,#F0
     808.  00:B206  00 F0 88 88 F8 88 89 F0 
     809.  00:B20E                      	DB  #00,#8F,#89,#89,#89,#89,#89,#8F
     809.  00:B20E  00 8F 89 89 89 89 89 8F 
     810.  00:B216                      	DB  #8F,#89,#89,#89,#89,#89,#C9,#00
     810.  00:B216  8F 89 89 89 89 89 C9 00 
     811.  00:B21E                      	
     812.  00:B21E                      sprite_jefebeholder_2:
     813.  00:B21E                      	DB  #70,#11,#13,#10,#10,#10,#90,#60
     813.  00:B21E  70 11 13 10 10 10 90 60 
     814.  00:B226                      	DB  #00,#F0,#88,#88,#F8,#88,#89,#F0
     814.  00:B226  00 F0 88 88 F8 88 89 F0 
     815.  00:B22E                      	DB  #00,#8E,#8B,#89,#89,#89,#89,#8F
     815.  00:B22E  00 8E 8B 89 89 89 89 8F 
     816.  00:B236                      	DB  #8F,#89,#89,#89,#89,#8B,#CE,#00
     816.  00:B236  8F 89 89 89 89 8B CE 00 
     817.  00:B23E                      	
     818.  00:B23E                      sprite_jefebeholder_3:
     819.  00:B23E                      	DB  #70,#11,#13,#10,#10,#10,#90,#60
     819.  00:B23E  70 11 13 10 10 10 90 60 
     820.  00:B246                      	DB  #00,#F0,#88,#88,#F8,#88,#89,#F0
     820.  00:B246  00 F0 88 88 F8 88 89 F0 
     821.  00:B24E                      	DB  #00,#8F,#89,#89,#88,#88,#88,#88
     821.  00:B24E  00 8F 89 89 88 88 88 88 
     822.  00:B256                      	DB  #88,#88,#88,#88,#89,#89,#CF,#00
     822.  00:B256  88 88 88 88 89 89 CF 00 
     823.  00:B25E                      	
     824.  00:B25E                      sprite_jefebeholder_4:
     825.  00:B25E                      	DB  #70,#11,#13,#10,#10,#10,#90,#60
     825.  00:B25E  70 11 13 10 10 10 90 60 
     826.  00:B266                      	DB  #00,#F0,#88,#88,#F8,#88,#89,#F0
     826.  00:B266  00 F0 88 88 F8 88 89 F0 
     827.  00:B26E                      	DB  #00,#8E,#8B,#89,#89,#89,#89,#89
     827.  00:B26E  00 8E 8B 89 89 89 89 89 
     828.  00:B276                      	DB  #89,#89,#89,#89,#89,#8B,#CE,#00
     828.  00:B276  89 89 89 89 89 8B CE 00 
     829.  00:B27E                      	
     830.  00:B27E                      sprite_jefebeholder_5:
     831.  00:B27E                      	DB  #00,#F1,#91,#91,#91,#91,#91,#F1
     831.  00:B27E  00 F1 91 91 91 91 91 F1 
     832.  00:B286                      	DB  #F1,#91,#91,#91,#91,#91,#93,#00
     832.  00:B286  F1 91 91 91 91 91 93 00 
     833.  00:B28E                      	DB  #0E,#88,#C8,#08,#08,#08,#09,#06
     833.  00:B28E  0E 88 C8 08 08 08 09 06 
     834.  00:B296                      	DB  #00,#0F,#11,#11,#1F,#11,#91,#0F
     834.  00:B296  00 0F 11 11 1F 11 91 0F 
     835.  00:B29E                      	
     836.  00:B29E                      sprite_jefebeholder_6:
     837.  00:B29E                      	DB  #00,#71,#D1,#91,#91,#91,#91,#F1
     837.  00:B29E  00 71 D1 91 91 91 91 F1 
     838.  00:B2A6                      	DB  #F1,#91,#91,#91,#91,#D1,#73,#00
     838.  00:B2A6  F1 91 91 91 91 D1 73 00 
     839.  00:B2AE                      	DB  #0E,#88,#C8,#08,#08,#08,#09,#06
     839.  00:B2AE  0E 88 C8 08 08 08 09 06 
     840.  00:B2B6                      	DB  #00,#0F,#11,#11,#1F,#11,#91,#0F
     840.  00:B2B6  00 0F 11 11 1F 11 91 0F 
     841.  00:B2BE                      	
     842.  00:B2BE                      sprite_jefebeholder_7:
     843.  00:B2BE                      	DB  #00,#F1,#91,#91,#11,#11,#11,#11
     843.  00:B2BE  00 F1 91 91 11 11 11 11 
     844.  00:B2C6                      	DB  #11,#11,#11,#11,#91,#91,#F3,#00
     844.  00:B2C6  11 11 11 11 91 91 F3 00 
     845.  00:B2CE                      	DB  #0E,#88,#C8,#08,#08,#08,#09,#06
     845.  00:B2CE  0E 88 C8 08 08 08 09 06 
     846.  00:B2D6                      	DB  #00,#0F,#11,#11,#1F,#11,#91,#0F
     846.  00:B2D6  00 0F 11 11 1F 11 91 0F 
     847.  00:B2DE                      	
     848.  00:B2DE                      sprite_jefebeholder_8:
     849.  00:B2DE                      	DB  #00,#71,#D1,#91,#91,#91,#91,#91
     849.  00:B2DE  00 71 D1 91 91 91 91 91 
     850.  00:B2E6                      	DB  #91,#91,#91,#91,#91,#D1,#73,#00
     850.  00:B2E6  91 91 91 91 91 D1 73 00 
     851.  00:B2EE                      	DB  #0E,#88,#C8,#08,#08,#08,#09,#06
     851.  00:B2EE  0E 88 C8 08 08 08 09 06 
     852.  00:B2F6                      	DB  #00,#0F,#11,#11,#1F,#11,#91,#0F	
     852.  00:B2F6  00 0F 11 11 1F 11 91 0F 
     853.  00:B2FE                      fin_sprite_jefebeholder:
     854.  00:B2FE                      
     855.  00:B2FE                      ;; MANOIZQ 2 (2 escenas 1 sprite)
     856.  00:B2FE                      sprite_manoizquierda:
     857.  00:B2FE                      sprite_manoizquierda_1:
     858.  00:B2FE                      	DB  #00,#D9,#FB,#A8,#88,#88,#88,#88
     858.  00:B2FE  00 D9 FB A8 88 88 88 88 
     859.  00:B306                      	DB  #88,#88,#A8,#A8,#A8,#A8,#AD,#00
     859.  00:B306  88 88 A8 A8 A8 A8 AD 00 
     860.  00:B30E                      	DB  #00,#8F,#89,#89,#89,#89,#89,#8F
     860.  00:B30E  00 8F 89 89 89 89 89 8F 
     861.  00:B316                      	DB  #8F,#89,#89,#89,#89,#89,#C9,#00
     861.  00:B316  8F 89 89 89 89 89 C9 00 
     862.  00:B31E                      	
     863.  00:B31E                      sprite_manoizquierda_2:
     864.  00:B31E                      	DB  #00,#D9,#FB,#A8,#88,#88,#88,#88
     864.  00:B31E  00 D9 FB A8 88 88 88 88 
     865.  00:B326                      	DB  #88,#88,#A8,#A8,#A8,#A8,#AD,#00
     865.  00:B326  88 88 A8 A8 A8 A8 AD 00 
     866.  00:B32E                      	DB  #00,#8E,#8B,#89,#89,#89,#89,#8F
     866.  00:B32E  00 8E 8B 89 89 89 89 8F 
     867.  00:B336                      	DB  #8F,#89,#89,#89,#89,#8B,#CE,#00
     867.  00:B336  8F 89 89 89 89 8B CE 00 
     868.  00:B33E                      fin_sprite_manoizquierda:
     869.  00:B33E                      	
     870.  00:B33E                      ;; MANODER 2 (2 escenas 1 sprite)
     871.  00:B33E                      sprite_manoderecha:
     872.  00:B33E                      sprite_manoderecha_1:
     873.  00:B33E                      	DB  #00,#F1,#91,#91,#91,#91,#91,#F1
     873.  00:B33E  00 F1 91 91 91 91 91 F1 
     874.  00:B346                      	DB  #F1,#91,#91,#91,#91,#91,#93,#00
     874.  00:B346  F1 91 91 91 91 91 93 00 
     875.  00:B34E                      	DB  #00,#9B,#DF,#15,#11,#11,#11,#11
     875.  00:B34E  00 9B DF 15 11 11 11 11 
     876.  00:B356                      	DB  #11,#11,#15,#15,#15,#15,#B5,#00
     876.  00:B356  11 11 15 15 15 15 B5 00 
     877.  00:B35E                      	
     878.  00:B35E                      sprite_manoderecha_2:
     879.  00:B35E                      	DB  #00,#71,#D1,#91,#91,#91,#91,#F1
     879.  00:B35E  00 71 D1 91 91 91 91 F1 
     880.  00:B366                      	DB  #F1,#91,#91,#91,#91,#D1,#73,#00
     880.  00:B366  F1 91 91 91 91 D1 73 00 
     881.  00:B36E                      	DB  #00,#9B,#DF,#15,#11,#11,#11,#11
     881.  00:B36E  00 9B DF 15 11 11 11 11 
     882.  00:B376                      	DB  #11,#11,#15,#15,#15,#15,#B5,#00
     882.  00:B376  11 11 15 15 15 15 B5 00 
     883.  00:B37E                      fin_sprite_manoderecha:
     884.  00:B37E                      	
     885.  00:B37E                      ;; CONDE 4 (2 escenas 2 sprites vert)
     886.  00:B37E                      sprite_conde:
     887.  00:B37E                      sprite_conde_1:
     888.  00:B37E                      	DB  #00,#E1,#93,#88,#88,#88,#88,#88
     888.  00:B37E  00 E1 93 88 88 88 88 88 
     889.  00:B386                      	DB  #88,#88,#88,#88,#88,#88,#F1,#00
     889.  00:B386  88 88 88 88 88 88 F1 00 
     890.  00:B38E                      	DB  #00,#8F,#89,#89,#89,#89,#89,#8F
     890.  00:B38E  00 8F 89 89 89 89 89 8F 
     891.  00:B396                      	DB  #8F,#89,#89,#89,#89,#89,#C9,#00
     891.  00:B396  8F 89 89 89 89 89 C9 00 
     892.  00:B39E                      	
     893.  00:B39E                      sprite_conde_2:
     894.  00:B39E                      	DB  #00,#E1,#93,#88,#88,#88,#88,#88
     894.  00:B39E  00 E1 93 88 88 88 88 88 
     895.  00:B3A6                      	DB  #88,#88,#88,#88,#88,#88,#F1,#00
     895.  00:B3A6  88 88 88 88 88 88 F1 00 
     896.  00:B3AE                      	DB  #00,#8E,#8B,#89,#89,#89,#89,#8F
     896.  00:B3AE  00 8E 8B 89 89 89 89 8F 
     897.  00:B3B6                      	DB  #8F,#89,#89,#89,#89,#8B,#CE,#00
     897.  00:B3B6  8F 89 89 89 89 8B CE 00 
     898.  00:B3BE                      	
     899.  00:B3BE                      sprite_conde_3:
     900.  00:B3BE                      	DB  #00,#E1,#93,#88,#88,#88,#88,#88
     900.  00:B3BE  00 E1 93 88 88 88 88 88 
     901.  00:B3C6                      	DB  #88,#88,#88,#88,#88,#88,#F1,#00
     901.  00:B3C6  88 88 88 88 88 88 F1 00 
     902.  00:B3CE                      	DB  #00,#8E,#8B,#89,#89,#89,#89,#8F
     902.  00:B3CE  00 8E 8B 89 89 89 89 8F 
     903.  00:B3D6                      	DB  #8F,#89,#89,#89,#89,#8B,#CE,#00 
     903.  00:B3D6  8F 89 89 89 89 8B CE 00 
     904.  00:B3DE                      	
     905.  00:B3DE                      sprite_conde_4:
     906.  00:B3DE                      	DB  #00,#E3,#92,#8A,#88,#88,#88,#88
     906.  00:B3DE  00 E3 92 8A 88 88 88 88 
     907.  00:B3E6                      	DB  #88,#88,#89,#89,#8B,#8A,#F3,#00
     907.  00:B3E6  88 88 89 89 8B 8A F3 00 
     908.  00:B3EE                      	DB  #00,#CE,#4B,#49,#49,#49,#49,#4F
     908.  00:B3EE  00 CE 4B 49 49 49 49 4F 
     909.  00:B3F6                      	DB  #4F,#C9,#89,#09,#09,#0B,#CE,#00
     909.  00:B3F6  4F C9 89 09 09 0B CE 00 
     910.  00:B3FE                      fin_sprite_conde:
     911.  00:B3FE                      
     208   00:B3FE                      
     209   00:B3FE                      
     210   00:B3FE                      ;;=====================================================
     211   00:B3FE                      ;;CONTANTES DATOS TEXTOS
     212   00:B3FE                      ;;=====================================================
     213   00:B3FE                      	include "datos/textos.asm"
       1.  00:B3FE                      ;;=====================================================
       2.  00:B3FE                      ;;CONTANTES TEXTOS
       3.  00:B3FE                      ;;=====================================================
       4.  00:B3FE                      
       5.  00:B3FE                      IF	1=0	; 1=1 versión en español y 1=0 verión en inglés
       6.  00:B3FE                    ~ ;textos en español
       7.  00:B3FE                    ~ texto_vidas:		DB	'V','I','D','A','S'
       8.  00:B3FE                    ~ 
       9.  00:B3FE                    ~ texto_energia:		DB	'E','N','E','R','G','.'
      10.  00:B3FE                    ~ 
      11.  00:B3FE                    ~ texto_reliquias:	DB	'R','E','L','I','Q','.'
      12.  00:B3FE                    ~ 
      13.  00:B3FE                    ~ texto_nivel:		DB	'N','I','V','E','L'
      14.  00:B3FE                    ~ 
      15.  00:B3FE                    ~ texto_entrefases:
      16.  00:B3FE                    ~ texto_entrefases1:	DB	' ',' ','E','S','P','E','R','A','S',' ','U','N',' ','M','O','M','E','N','T','O',' ','E','N',' ','L','A','S',' ',' ',' '	; 30 caracteres
      17.  00:B3FE                    ~ texto_entrefases2:	DB  'E','S','C','A','L','E','R','A','S',' ','M','I','E','N','T','R','A','S',' ','T','U','S',' ','O','J','O','S',' ',' ',' '	; 30 caracteres
      18.  00:B3FE                    ~ texto_entrefases3:	DB  'S','E',' ','A','C','O','S','T','U','M','B','R','A','N','V',' ','A',' ','L','A',' ','O','S','C','U','R','I','D','A','D'	; 30 caracteres
      19.  00:B3FE                    ~ texto_entrefases4:	DB  'Y',' ','E','L',' ','H','O','R','R','O','V','R',' ','Q','U','E',' ','T','E',' ','E','S','P','E','R','A','.',' ',' ',' '	; 30 caracteres
      20.  00:B3FE                    ~ 
      21.  00:B3FE                    ~ texto_iniciar:		DB	' ',' ',' ','P','U','L','S','A',' ','F','U','E','G','O',' ','P','A','R','A',' ','C','O','M','E','N','Z','A','R',' ',' '	;30 caracteres
      22.  00:B3FE                    ~ 
      23.  00:B3FE                    ~ ELSE		
      24.  00:B3FE                      ;textos en inglés
      25.  00:B3FE  4C 49 56 45 53      texto_vidas:		DB	'L','I','V','E','S'
      26.  00:B403                      
      27.  00:B403  45 4E 45 52 47 59   texto_energia:		DB	'E','N','E','R','G','Y'
      28.  00:B409                      
      29.  00:B409  52 45 4C 49 43 53   texto_reliquias:	DB	'R','E','L','I','C','S'
      30.  00:B40F                      
      31.  00:B40F  4C 45 56 45 4C      texto_nivel:		DB	'L','E','V','E','L'
      32.  00:B414                      
      33.  00:B414                      texto_entrefases:
      34.  00:B414                      texto_entrefases1:	DB	' ',' ','Y','O','U',' ','W','A','I','T',' ','F','O','R',' ','A',' ','M','O','M','E','N','T',' ','O','N',' ','T','H','E'	; 30 caracteres
      34.  00:B414  20 20 59 4F 55 20 57 41 49 54 20 46 4F 52 20 41 
      34.  00:B424  20 4D 4F 4D 45 4E 54 20 4F 4E 20 54 48 45 
      35.  00:B432                      texto_entrefases2:	DB  'S','T','A','I','R','S',' ','W','H','I','L','E',' ','Y','O','U','R',' ','E','Y','E','S',' ','A','D','J','U','S','T',' '	; 30 caracteres
      35.  00:B432  53 54 41 49 52 53 20 57 48 49 4C 45 20 59 4F 55 
      35.  00:B442  52 20 45 59 45 53 20 41 44 4A 55 53 54 20 
      36.  00:B450                      texto_entrefases3:	DB  'T','O',' ','T','H','E',' ','D','A','R','K','N','E','S','S',' ','A','N','D',' ','T','H','E',' ','H','O','R','R','O','R'	; 30 caracteres
      36.  00:B450  54 4F 20 54 48 45 20 44 41 52 4B 4E 45 53 53 20 
      36.  00:B460  41 4E 44 20 54 48 45 20 48 4F 52 52 4F 52 
      37.  00:B46E                      texto_entrefases4:	DB  'T','H','A','T',' ','A','W','A','I','T','S',' ','Y','O','U','.',' ',' ',' ',' ',' ',' ',' ',' ',' ',' ',' ',' ',' ',' '	; 30 caracteres
      37.  00:B46E  54 48 41 54 20 41 57 41 49 54 53 20 59 4F 55 2E 
      37.  00:B47E  20 20 20 20 20 20 20 20 20 20 20 20 20 20 
      38.  00:B48C                      
      39.  00:B48C                      texto_iniciar:		DB	'P','U','S','H',' ','T','R','I','G','G','E','R',' ','T','O',' ','S','T','A','R','T',' ','T','H','E',' ','G','A','M','E'
      39.  00:B48C  50 55 53 48 20 54 52 49 47 47 45 52 20 54 4F 20 
      39.  00:B49C  53 54 41 52 54 20 54 48 45 20 47 41 4D 45 
      40.  00:B4AA                      ENDIF
      41.  00:B4AA                      
      42.  00:B4AA                      texto_autoria:		DB	'S','A','K','O','P','A','C','O',' ',' ','2','0','2','2' ; 14 caracteres
      42.  00:B4AA  53 41 4B 4F 50 41 43 4F 20 20 32 30 32 32 
      43.  00:B4B8                      texto_iniciar_blanco:	DB	' ',' ',' ',' ',' ',' ',' ',' ',' ',' ',' ',' ',' ',' ',' ',' ',' ',' ',' ',' ',' ',' ',' ',' ',' ',' ',' ',' ',' ',' '
      43.  00:B4B8  20 20 20 20 20 20 20 20 20 20 20 20 20 20 20 20 
      43.  00:B4C8  20 20 20 20 20 20 20 20 20 20 20 20 20 20 
      44.  00:B4D6                      
      45.  00:B4D6                      
      46.  00:B4D6                      ;;=====================================================
      47.  00:B4D6                      ;;DEFINICIÓN DE SUBRUTINAS
      48.  00:B4D6                      ;;=====================================================	
      49.  00:B4D6                      
      50.  00:B4D6                      
      51.  00:B4D6                      ;;=====================================================
      52.  00:B4D6                      ;;PINTA_PARTE_TEXTO_VIDA
      53.  00:B4D6                      ;;=====================================================	
      54.  00:B4D6                      ;~ BC - Block length
      55.  00:B4D6                      ;~ DE - Start address of VRAM
      56.  00:B4D6                      ;~ HL - Start address of memory
      57.  00:B4D6                      ;~ LD			HL,texto_vidas		;guardo puntero al array a pintar (como psar por referencia)
      58.  00:B4D6                      ;~ LD			BC, 5				;nº posiciones a pintar
      59.  00:B4D6                      ;~ LD			DE, TILMAP + 577	;destino en vram (posición en pantalla 0 -> 768 -1
      60.  00:B4D6                      pinta_texto_vida:
      61.  00:B4D6  21 FE B3            		LD			HL, texto_vidas		;guardo puntero al array a pintar (como psar por referencia)
      62.  00:B4D9  01 05 00            		LD			BC, 5				;nº posiciones a pintar
      63.  00:B4DC  11 41 1A            		LD			DE, TILMAP + 577	;destino en vram
      64.  00:B4DF  C3 5C 00            		JP			LDIRVM
      65.  00:B4E2                      fin_pinta_texto_vida:
      66.  00:B4E2                      
      67.  00:B4E2                      pinta_texto_energia:
      68.  00:B4E2  21 03 B4            		LD			HL, texto_energia	;guardo puntero al array a pintar (como psar por referencia)
      69.  00:B4E5  01 06 00            		LD			BC, 6				;nº posiciones a pintar
      70.  00:B4E8  11 81 1A            		LD			DE, TILMAP + 641	;destino en vram
      71.  00:B4EB  C3 5C 00            		JP			LDIRVM
      72.  00:B4EE                      fin_pinta_texto_energia:
      73.  00:B4EE                      
      74.  00:B4EE                      pinta_texto_reliquias:
      75.  00:B4EE  21 09 B4            		LD			HL, texto_reliquias	;guardo puntero al array a pintar (como psar por referencia)
      76.  00:B4F1  01 06 00            		LD			BC, 6				;nº posiciones a pintar
      77.  00:B4F4  11 C1 1A            		LD			DE, TILMAP + 705	;destino en vram
      78.  00:B4F7  C3 5C 00            		JP			LDIRVM
      79.  00:B4FA                      fin_pinta_texto_reliquias:
      80.  00:B4FA                      
      81.  00:B4FA                      pinta_texto_nivel:
      82.  00:B4FA  21 0F B4            		LD			HL, texto_nivel		;guardo puntero al array a pintar (como psar por referencia)
      83.  00:B4FD  01 05 00            		LD			BC, 5				;nº posiciones a pintar
      84.  00:B500  11 72 1A            		LD			DE, TILMAP + 626	;destino en vram
      85.  00:B503  C3 5C 00            		JP			LDIRVM
      86.  00:B506                      fin_pinta_texto_nivel:
      87.  00:B506                      
      88.  00:B506                      pinta_texto_entrefases:
      89.  00:B506  21 14 B4            		LD			HL, texto_entrefases1;guardo puntero al array a pintar (como psar por referencia)
      90.  00:B509  01 1E 00            		LD			BC, 30				;nº posiciones a pintar
      91.  00:B50C  11 C0 18            		LD			DE, TILMAP + 192	;destino en vram
      92.  00:B50F  CD 5C 00            		CALL		LDIRVM
      93.  00:B512                      		
      94.  00:B512  21 32 B4            		LD			HL, texto_entrefases2;guardo puntero al array a pintar (como psar por referencia)
      95.  00:B515  01 1E 00            		LD			BC, 30				;nº posiciones a pintar
      96.  00:B518  11 00 19            		LD			DE, TILMAP + 256	;destino en vram
      97.  00:B51B  CD 5C 00            		CALL		LDIRVM
      98.  00:B51E                      		
      99.  00:B51E  21 50 B4            		LD			HL, texto_entrefases3;guardo puntero al array a pintar (como psar por referencia)
     100.  00:B521  01 1E 00            		LD			BC, 30				;nº posiciones a pintar
     101.  00:B524  11 40 19            		LD			DE, TILMAP + 320	;destino en vram
     102.  00:B527  CD 5C 00            		CALL		LDIRVM
     103.  00:B52A                      		
     104.  00:B52A  21 6E B4            		LD			HL, texto_entrefases4;guardo puntero al array a pintar (como psar por referencia)
     105.  00:B52D  01 1E 00            		LD			BC, 30				;nº posiciones a pintar
     106.  00:B530  11 80 19            		LD			DE, TILMAP + 384	;destino en vram
     107.  00:B533  C3 5C 00            		JP			LDIRVM
     108.  00:B536                      fin_pinta_texto_entrefases:
     109.  00:B536                      
     110.  00:B536                      
     111.  00:B536                      pinta_textos_inicio_disparo:
     112.  00:B536                      		;pinta texto pulsa disparo
     113.  00:B536  21 8C B4            		LD			HL, texto_iniciar	;guardo puntero al array a pintar (como psar por referencia)
     114.  00:B539  01 1E 00            		LD			BC, 30				;nº posiciones a pintar
     115.  00:B53C  11 00 1A            		LD			DE, TILMAP + 32 * 16;destino en vram
     116.  00:B53F  C3 5C 00            		JP			LDIRVM
     117.  00:B542                      fin_pinta_textos_inicio_disparo:
     118.  00:B542                      
     119.  00:B542                      pinta_textos_inicio_disparo_blanco:
     120.  00:B542                      		;pinta texto blanco
     121.  00:B542  21 B8 B4            		LD			HL, texto_iniciar_blanco	;guardo puntero al array a pintar (como psar por referencia)
     122.  00:B545  01 1E 00            		LD			BC, 30				;nº posiciones a pintar
     123.  00:B548  11 00 1A            		LD			DE, TILMAP + 32 * 16;destino en vram
     124.  00:B54B  C3 5C 00            		JP			LDIRVM
     125.  00:B54E                      fin_pinta_textos_inicio_disparo_blanco:
     126.  00:B54E                      
     127.  00:B54E                      		
     128.  00:B54E                      pinta_textos_inicio_autoria:	
     129.  00:B54E                      		;pinta autoría
     130.  00:B54E  21 AA B4            		LD			HL, texto_autoria	;guardo puntero al array a pintar (como psar por referencia)
     131.  00:B551  01 0E 00            		LD			BC, 14				;nº posiciones a pintar
     132.  00:B554  11 E8 1A            		LD			DE, TILMAP + 32 * 23 + 8;destino en vram
     133.  00:B557  C3 5C 00            		JP			LDIRVM
     134.  00:B55A                      fin_pinta_textos_inicio_autoria:
     135.  00:B55A                      
     136.  00:B55A                      
     137.  00:B55A                      
     138.  00:B55A                      
     139.  00:B55A                      
     140.  00:B55A                      
     141.  00:B55A                      
     142.  00:B55A                      
     143.  00:B55A                      
     144.  00:B55A                      
     145.  00:B55A                      
     146.  00:B55A                      
     147.  00:B55A                      
     148.  00:B55A                      
     149.  00:B55A                      
     150.  00:B55A                      
     151.  00:B55A                      
     152.  00:B55A                      
     153.  00:B55A                      
     214   00:B55A                      	
     215   00:B55A                      	
     216   00:B55A                      ;;=====================================================
     217   00:B55A                      ;;DEFINICIÓN DE VARIABLES
     218   00:B55A                      ;;=====================================================		
     219   00:B55A                      inicializacion_variables:
     220   00:B55A  (053E)              	incbin	"variables.dat"
     221   00:BA98                      fin_inicializacion_variables:
     222   00:BA98                      
     223   00:BA98                      
     224   00:BA98                      
     225   00:BA98                      ;nota: el powerup de armadura dura n habitaciones
     226   00:BA98                      ;nota: el powerup de disparo dura n habitaciones
     227   00:BA98                      
     228   00:BA98                      
     229   00:BA98                      ;END: (FIN CÓDIGO)
     230   00:BA98                      
     231   00:BA98                      
     232   00:BA98                      ;INICIO ZONA DATOS (BANCO DE MEMORIA 3)
     233   00:BA98  00 (1384)           		DS	#C000 - $

    LABELS
-------------------------------------------------
00:000000D8 X GTTRIG
00:000000D5 X GTSTCK
00:0000F3DB   CLIKSW
00:0000013E X RDVDP
00:00000047   WRTVDP
00:0000005C   LDIRVM
00:00000059 X LDIRMV
00:00000056   FILVRM
00:0000005F   CHGMOD
00:00000041 X DISSCR
00:00000044 X ENASCR
00:00000062   CHGCLR
00:0000F3E9   FORCLR
00:0000F3EA   BAKCLR
00:0000F3EB   BDRCLR
00:000000C3   CLS
00:000000D1 X BORRASPRITE
00:000000D0   BORRASPRITESIG
00:0000F3DF X RG0SAV
00:0000F3E0   RG1SAV
00:0000F3E1 X RG2SAV
00:0000F3E2 X RG3SAV
00:0000F3E3 X RG4SAV
00:0000F3E4 X RG5SAV
00:0000F3E5 X RG6SAV
00:0000F3E6 X RG7SAV
00:0000F3E7 X STATFL
00:00000099   REGEST
00:00000098   REGESCVDP
00:000000A0   PSG_A
00:000000A1   PSG_W
00:000000A2   PSG_R
00:00000000   CHRTBL
00:00001800   TILMAP
00:00001B00   SPRART
00:00002000   CLRTBL
00:00003800   SPRTBL
00:00000001   SI
00:00000000 X NO
00:00000000 X COLTRASP
00:00000001   COLNEGRO
00:00000002 X COLVERDE
00:00000003 X COLVERCLA
00:00000004 X COLAZULOSC
00:00000005 X COLAZULLA
00:00000006   COLROJOOSC
00:00000007 X COLCYAN
00:00000008   COLROJO
00:00000009 X COLROJOCLA
00:0000000A X COLAMAROSC
00:0000000B X COLAMARCLA
00:0000000C X COLVERDOSC
00:0000000D X COLMAGENTA
00:0000000E X COLGRIS
00:0000000F   COLBLANCO
00:000002F8   POSMAPLIN1
00:000002D8   POSMAPLIN2
00:000002B8   POSMAPLIN3
00:00000298   POSMAPLIN4
00:00000278   POSMAPLIN5
00:00000258   POSMAPLIN6
00:00000238   POSMAPLIN7
00:0000000D   POSCARAMAP
00:00000248   POSVIDAS
00:00000011   POSRELIMAP
00:000002C8   POSRELIQ
00:00000288   POSENERG
00:000002B4   POSNIVEL
00:00000238   POSMAPA
00:000001EE   POSPUERABAJ
00:0000008E   POSPUERARRI
00:000000FC   POSPUERDERE
00:000000E1   POSPUERIZQU
00:0000006C   POSESCALERA
00:00000146   POSORACION
00:000001A3   POSCRUZ
00:0000016A   POSAGUA
00:000001AB   POSARMADURA
00:00000172   POSPLANTA
00:000001B6   POSVIDAEXT
00:00000158   POSBALLESTA
00:00000038   POSORACIONX
00:00000058   POSORACIONY
00:00000020   POSCRUZX
00:00000070   POSCRUZY
00:00000058   POSAGUAX
00:00000060   POSAGUAY
00:00000060   POSARMADURAX
00:00000070   POSARMADURAY
00:00000090   POSPLANTAX
00:00000060   POSPLANTAY
00:000000B8   POSVIDAEXTX
00:00000070   POSVIDAEXTY
00:000000C8   POSBALLESTAX
00:00000058   POSBALLESTAY
00:00000002   ALTOAYUDA
00:00000002   ANCHOAYUDA
00:00000008   RADIOAYUDAX
00:00000008   RADIOAYUDAY
00:00000078   POSXPM
00:0000006C   POSYPM
00:00000001   ISHABTERMIN
00:00000004   LIMCADENCIA
00:00000002 X DANO1
00:00000005   DANO2
00:00000000   SPRI_DANO1A
00:00000004   SPRI_DANO1B
00:00000008   SPRI_DANO2A
00:0000000C   SPRI_DANO2B
00:00000088   POSANTOR1
00:00000097   POSANTOR2
00:000000C4   MAPLLAMA1
00:000000C5   MAPLLAMA2
00:000000FF   RESETLLAMA
00:00000088   POSESQUEL1
00:00000095   POSESQUEL2
00:000000A9   POSCALAVE1
00:000000B6   POSCALAVE2
00:00000019   RESETESQUEL
00:00000004   RESETESCENAESQUEL
00:00000013   TILEPROTAM
00:00000009   TILEGRISM
00:00000010   TILEMAPROJO
00:0000000F   TILEMAPAMAR
00:0000000E   TILEMAPVERD
00:00000008   NMAXVIDREL
00:00000007   NHABNIVEL
00:000000F8 X MAXENERGIA
00:000000D9   TILEENERG8
00:000000BA   TILEENERG7
00:0000009B   TILEENERG6
00:0000007C   TILEENERG5
00:0000005D   TILEENERG4
00:0000003E   TILEENERG3
00:0000001F   TILEENERG2
00:00000000   TILENEGRO
00:00000000 X LIMPANTIZQ
00:000000FF   LIMPANTDER
00:00000000 X LIMPANTARR
00:00000080   LIMPANTABA
00:00000006 X BASEMAPY
00:00000003 X BASEMAPX
00:00000000   PROTANIVEL
00:00000003   PROTAVIDAS
00:00000003   PROTARELIQUIAS
00:00000003   PROTAPOSMAPX
00:00000000   PROTAPOSMAPY
00:000000C8   PROTAENERGIA
00:00000000   PROTAENERGIABYTEBAJO
00:0000FD9A X H.KEYI
00:0000FD9F   H.TIMI
00:0000F000   PT3_SETUP
00:0000F001   PT3_MODADDR
00:0000F003   PT3_CrPsPtr
00:0000F005   PT3_SAMPTRS
00:0000F007   PT3_OrnPtrs
00:0000F009   PT3_PDSP
00:0000F00B   PT3_CSP
00:0000F00D   PT3_PSP
00:0000F00F   PT3_PrNote
00:0000F010   PT3_PrSlide
00:0000F012   PT3_AdInPtA
00:0000F014   PT3_AdInPtB
00:0000F016   PT3_AdInPtC
00:0000F018   PT3_LPosPtr
00:0000F01A   PT3_PatsPtr
00:0000F01C   PT3_Delay
00:0000F01D   PT3_AddToEn
00:0000F01E   PT3_Env_Del
00:0000F01F   PT3_ESldAdd
00:0000F021   PT3_NTL3
00:0000F023   VARS
00:0000F023   ChanA
00:0000F040   ChanB
00:0000F05D   ChanC
00:0000F07A   DelyCnt
00:0000F07B   CurESld
00:0000F07D   CurEDel
00:0000F07E   Ns_Base_AddToNs
00:0000F07E   Ns_Base
00:0000F07F   AddToNs
00:0000F080   NT_
00:0000F140   AYREGS
00:0000F140   VT_
00:0000F14E   EnvBase
00:0000F150   VAR0END
00:0000F150   T1_
00:0000F150   T_NEW_1
00:0000F150   T_OLD_1
00:0000F168   T_OLD_2
00:0000F180   T_NEW_3
00:0000F180   T_OLD_3
00:0000F182   T_OLD_0
00:0000F182   T_NEW_0
00:0000F19A   T_NEW_2
00:0000F240   ayFX_MODE
00:0000F241   ayFX_BANK
00:0000F243   ayFX_PRIORITY
00:0000F244   ayFX_POINTER
00:0000F246   ayFX_TONE
00:0000F248   ayFX_NOISE
00:0000F249   ayFX_VOLUME
00:0000F24A   ayFX_CHANNEL
00:00000000   INACTIVA
00:00000001   ACTIVA
00:000000D1 X OCULTA
00:00000000   DIRABAJO
00:00000000   DIRDERECHA
00:00000001   DIRARRIBA
00:00000001   DIRIZQUIERDA
00:00000000   LIMITEPANTALLASUP
00:00000070   LIMITEPANTALLAINF
00:00000000 X LIMITEPANTALLAIZQ
00:000000F0 X LIMITEPANTALLADER
00:00000002   TIPOCIEMPIES
00:0000000C   CIENPIES_COLOR
00:00000018   CIENPIES_SPRITE1A
00:0000001C   CIENPIES_SPRITE1B
00:00000010   CIENPIES_VELESCENA
00:00000004   TIPOARANA
00:00000001   ARANA_COLOR
00:00000030   ARANA_SPRITE1A
00:00000034   ARANA_SPRITE2A
00:00000010   ARANA_VELESCENA
00:00000003   TIPOSERPIENTE
00:0000000C   SERPIENTE_COLOR
00:00000020   SERPIENTE_SPRITE1A
00:00000024   SERPIENTE_SPRITE2A
00:00000028   SERPIENTE_SPRITE1B
00:0000002C   SERPIENTE_SPRITE2B
00:00000048   SERPIENTE_POSY
00:00000028   SERPIENTE_POSX
00:000000A0   SERPIENTE_PASOS
00:00000028 X SERPIENTE_LIMIZQ
00:000000C8 X SERPIENTE_LIMDER
00:00000010   SERPIENTE_VELESCENA
00:00000005   TIPOMURCIELAGO
00:00000001   MURCIELAGO_COLOR
00:00000038   MURCIELAGO_SPRITE1A
00:0000003C   MURCIELAGO_SPRITE1B
00:00000020 X MURCIELAGO_LIMIZQ
00:000000DE X MURCIELAGO_LIMDER
00:00000018   MURCIELAGO_HORIZON
00:000000C0   MURCIELAGO_PASOS
00:00000010   MURCIELAGO_VELESCENA
00:00000006   TIPOLOBO
00:00000001   LOBO_COLOR
00:00000040   LOBO_SPRITE1A
00:00000044   LOBO_SPRITE2A
00:00000048   LOBO_SPRITE3A
00:0000004C   LOBO_SPRITE4A
00:00000050   LOBO_SPRITE1B
00:00000054 X LOBO_SPRITE2B
00:00000058   LOBO_SPRITE3B
00:0000005C X LOBO_SPRITE4B
00:00000008   LOBO_POSX
00:000000D0   LOBO_PASOS
00:0000005F   LOBO_POSY
00:00000010   LOBO_VELESCENA
00:0000000E   TIPOJEFELOBO
00:00000001   JEFELOBO_COLOR
00:000000CD   JEFELOBO_LIM_PASOS1
00:00000028   JEFELOBO_LIM_PASOS2
00:00000075   JEFELOBO_LIM_PASOS3
00:00000028   JEFELOBO_LIM_PASOS4
00:00000008   JEFELOBO_X
00:0000005C   JEFELOBO_Y
00:000000C0   JEFELOBO_SPRITE1A
00:000000C4   JEFELOBO_SPRITE2A
00:000000C8   JEFELOBO_SPRITE3A
00:000000CC   JEFELOBO_SPRITE4A
00:000000D0   JEFELOBO_SPRITE1B
00:000000D4   JEFELOBO_SPRITE2B
00:000000D8   JEFELOBO_SPRITE3B
00:000000DC   JEFELOBO_SPRITE4B
00:000000E0   JEFELOBO_SPRITE1C
00:000000E4   JEFELOBO_SPRITE2C
00:000000E8   JEFELOBO_SPRITE3C
00:000000EC   JEFELOBO_SPRITE4C
00:000000F0   JEFELOBO_SPRITE1D
00:000000F4   JEFELOBO_SPRITE2D
00:000000F8   JEFELOBO_SPRITE3D
00:000000FC   JEFELOBO_SPRITE4D
00:00000010   JEFELOBO_VELESCENA
00:00000007   TIPOESQUELETO
00:0000000F   ESQUELETO_COLOR
00:00000060   ESQUELETO_SPRITE1A
00:00000064   ESQUELETO_SPRITE2A
00:00000068   ESQUELETO_SPRITE3A
00:0000006C   ESQUELETO_SPRITE4A
00:00000070 X ESQUELETO_SPRITE1B
00:00000074 X ESQUELETO_SPRITE2B
00:00000078 X ESQUELETO_SPRITE3B
00:0000007C X ESQUELETO_SPRITE4B
00:00000000   ESQUELETO_POSX
00:00000060   ESQUELETO_POSY
00:00000010   ESQUELETO_VELESCENA
00:00000008   TIPOZOMBI
00:0000000F   ZOMBI_COLOR_A
00:0000000F   ZOMBI_COLOR_B
00:00000080   ZOMBI_SPRITE1A
00:00000084   ZOMBI_SPRITE2A
00:00000088   ZOMBI_SPRITE3A
00:0000008C   ZOMBI_SPRITE4A
00:00000090   ZOMBI_SPRITE1B
00:00000094 X ZOMBI_SPRITE2B
00:00000098   ZOMBI_SPRITE3B
00:0000009C X ZOMBI_SPRITE4B
00:000000D8 X ZOMBI_LIMX_DER
00:00000020 X ZOMBI_LIMX_IZQ
00:00000048   ZOMBI_POSX
00:00000040   ZOMBI_POSY
00:00000096   ZOMBI_PASOS
00:00000010   ZOMBI_VELESCENA
00:0000000F   TIPOJEFEMURCIELAGO
00:00000001   JEFEMURCIELAGO_COLOR
00:00000000 X JEFEMURCIELAGO_LIMIARR
00:00000060   JEFEMURCIELAGO_LIMIABA
00:000000E0   JEFEMURCIELAGO_SPRITE1A
00:000000E4   JEFEMURCIELAGO_SPRITE2A
00:000000E8   JEFEMURCIELAGO_SPRITE3A
00:000000EC   JEFEMURCIELAGO_SPRITE4A
00:000000F0   JEFEMURCIELAGO_SPRITE1B
00:000000F4   JEFEMURCIELAGO_SPRITE2B
00:000000F8   JEFEMURCIELAGO_SPRITE3B
00:000000FC   JEFEMURCIELAGO_SPRITE4B
00:00000010   JEFEMURCIELAGO_VELESCENA
00:00000009   TIPOFANTASMA
00:00000001   FANTASMA_COLOR
00:000000A0   FANTASMA_SPRITE1A
00:000000A4   FANTASMA_SPRITE2A
00:000000A8   FANTASMA_SPRITE1B
00:000000AC   FANTASMA_SPRITE2B
00:00000064   FANTASMA_LIM_PASOS
00:00000040   FANTASMA_X1
00:00000018   FANTASMA_Y1
00:000000A0   FANTASMA_X2
00:00000018   FANTASMA_Y2
00:00000028   FANTASMA_X3
00:00000040   FANTASMA_Y3
00:000000B8   FANTASMA_X4
00:00000040   FANTASMA_Y4
00:00000010   FANTASMA_VELESCENA
00:00000010   TIPOJEFEFANTASMA
00:00000001   JEFEFANTASMA_COLOR
00:000000E0   JEFEFANTASMA_SPRITE1A
00:000000E4   JEFEFANTASMA_SPRITE2A
00:000000E8   JEFEFANTASMA_SPRITE3A
00:000000EC   JEFEFANTASMA_SPRITE4A
00:000000F0   JEFEFANTASMA_SPRITE1B
00:000000F4   JEFEFANTASMA_SPRITE2B
00:000000F8   JEFEFANTASMA_SPRITE3B
00:000000FC   JEFEFANTASMA_SPRITE4B
00:00000064   JEFEFANTASMA_LIM_PASOS
00:00000008   JEFEFANTASMA_X1
00:00000008   JEFEFANTASMA_Y1
00:00000068   JEFEFANTASMA_X2
00:00000008   JEFEFANTASMA_Y2
00:000000E0   JEFEFANTASMA_X3
00:00000010   JEFEFANTASMA_Y3
00:00000018   JEFEFANTASMA_X4
00:00000030   JEFEFANTASMA_Y4
00:000000A8   JEFEFANTASMA_X5
00:00000018   JEFEFANTASMA_Y5
00:000000C0   JEFEFANTASMA_X6
00:00000058   JEFEFANTASMA_Y6
00:00000080   JEFEFANTASMA_X7
00:00000048   JEFEFANTASMA_Y7
00:00000040   JEFEFANTASMA_X8
00:00000058   JEFEFANTASMA_Y8
00:00000010   JEFEFANTASMA_VELESCENA
00:0000000A   TIPOCABALLEROGRIS
00:00000001   CABALLERO_COLOR
00:00000040   CABALLERO_SPRITE1A
00:00000044   CABALLERO_SPRITE2A
00:00000048   CABALLERO_SPRITE3A
00:0000004C   CABALLERO_SPRITE4A
00:00000050   CABALLERO_SPRITE1B
00:00000054 X CABALLERO_SPRITE2B
00:00000058   CABALLERO_SPRITE3B
00:0000005C X CABALLERO_SPRITE4B
00:00000030   CABALLERO_POSYINI
00:000000C0   CABALLERO_POSXINI
00:00000090   CABALLERO_PASOS
00:00000010   CABALLERO_VELESCENA
00:00000011   TIPOJEFEZOMBI
00:00000001   JEFEZOMBI_COLOR_A
00:00000001   JEFEZOMBI_COLOR_B
00:00000001   JEFEZOMBI_COLOR_C
00:00000001   JEFEZOMBI_COLOR_D
00:000000C0   JEFEZOMBI_SPRITE1A
00:000000C4   JEFEZOMBI_SPRITE2A
00:000000C8   JEFEZOMBI_SPRITE3A
00:000000CC   JEFEZOMBI_SPRITE4A
00:000000D0   JEFEZOMBI_SPRITE1B
00:000000D4   JEFEZOMBI_SPRITE2B
00:000000D8   JEFEZOMBI_SPRITE3B
00:000000DC   JEFEZOMBI_SPRITE4B
00:000000E0   JEFEZOMBI_SPRITE1C
00:000000E4   JEFEZOMBI_SPRITE2C
00:000000E8   JEFEZOMBI_SPRITE3C
00:000000EC   JEFEZOMBI_SPRITE4C
00:000000F0   JEFEZOMBI_SPRITE1D
00:000000F4   JEFEZOMBI_SPRITE2D
00:000000F8   JEFEZOMBI_SPRITE3D
00:000000FC   JEFEZOMBI_SPRITE4D
00:000000D8 X JEFEZOMBI_LIMX_DER
00:00000020 X JEFEZOMBI_LIMX_IZQ
00:000000C8   JEFEZOMBI_POSX
00:00000040   JEFEZOMBI_POSY
00:00000096   JEFEZOMBI_PASOS
00:00000010   JEFEZOMBI_VELESCENA
00:0000000C   TIPOFUEGO
00:00000001   FUEGO_COLOR1
00:00000001   FUEGO_COLOR2
00:000000D0   FUEGO_PASOSX
00:00000040   FUEGO_PASOSY
00:000000B0   FUEGO_SPRITE1A
00:000000B4   FUEGO_SPRITE2A
00:000000B8   FUEGO_SPRITE1B
00:000000BC   FUEGO_SPRITE2B
00:0000000F   FUEGO_POS1X
00:0000000F   FUEGO_POS1Y
00:000000DF X FUEGO_POS2X
00:0000000F X FUEGO_POS2Y
00:000000DF X FUEGO_POS3X
00:0000004F X FUEGO_POS3Y
00:0000000F X FUEGO_POS4X
00:0000004F X FUEGO_POS4Y
00:00000020   FUEGO_VELESCENA
00:00000012   TIPOJEFECABALLERO
00:00000001   JCABALLERO_COLOR
00:000000C0   JCABALLERO_SPRITE1A
00:000000C4   JCABALLERO_SPRITE2A
00:000000C8   JCABALLERO_SPRITE3A
00:000000CC   JCABALLERO_SPRITE4A
00:000000D0   JCABALLERO_SPRITE1B
00:000000D4   JCABALLERO_SPRITE2B
00:000000D8   JCABALLERO_SPRITE3B
00:000000DC   JCABALLERO_SPRITE4B
00:000000E0   JCABALLERO_SPRITE1C
00:000000E4   JCABALLERO_SPRITE2C
00:000000E8   JCABALLERO_SPRITE3C
00:000000EC   JCABALLERO_SPRITE4C
00:000000F0   JCABALLERO_SPRITE1D
00:000000F4   JCABALLERO_SPRITE2D
00:000000F8   JCABALLERO_SPRITE3D
00:000000FC   JCABALLERO_SPRITE4D
00:00000030   JCABALLERO_POSYINI
00:000000C0   JCABALLERO_POSXINI
00:000000B6   JCABALLERO_PASOS
00:00000010   JCABALLERO_VELESCENA
00:0000000D   TIPOMAGIA
00:00000001   MAGIA_COLOR
00:00000020   MAGIA_SPRITE1A
00:00000024   MAGIA_SPRITE1B
00:00000028   MAGIA_SPRITE2A
00:0000002C   MAGIA_SPRITE2B
00:00000023   MAGIA_PASOS
00:00000040   MAGIA_POSX
00:00000037   MAGIA_POSY
00:00000005   MAGIA_INCREMENTO
00:00000010   MAGIA_VELESCENA
00:00000013   TIPOJEFEBEHOLDER
00:00000001   JEFEBEHOLDER_COLOR
00:000000E0   JEFEBEHOLDER_SPRITE1A
00:000000E4   JEFEBEHOLDER_SPRITE2A
00:000000E8   JEFEBEHOLDER_SPRITE3A
00:000000EC   JEFEBEHOLDER_SPRITE4A
00:000000F0   JEFEBEHOLDER_SPRITE1B
00:000000F4   JEFEBEHOLDER_SPRITE2B
00:000000F8   JEFEBEHOLDER_SPRITE3B
00:000000FC   JEFEBEHOLDER_SPRITE4B
00:00000037   JEFEBEHOLDER_PASOS
00:00000040   JEFEBEHOLDER_POSX
00:00000037   JEFEBEHOLDER_POSY
00:00000003   JEFEBEHOLDER_INCREMENTO
00:00000010   JEFEBEHOLDER_VELESCENA
00:00000016   TIPODRACULA
00:00000001   DRACULA_COLOR
00:00000064   DRACULA_PASOS
00:00000040   DRACULA_Y
00:0000002F   DRACULA_X1
00:0000005F   DRACULA_X2
00:0000008F   DRACULA_X3
00:000000BF   DRACULA_X4
00:000000F0   DRACULA_SPRITE1A
00:000000F4   DRACULA_SPRITE1B
00:000000F8   DRACULA_SPRITE2A
00:000000FC   DRACULA_SPRITE2B
00:00000010   DRACULA_VELESCENA
00:00000015   TIPOMANOIZQUIERDA
00:00000001   MANOI_COLOR
00:000000E0   MANOI_SPRITE1A
00:000000E4   MANOI_SPRITE1B
00:00000023   MANOI_PASOS
00:00000040   MANOI_POSY
00:0000002F   MANOI_POSX
00:00000005   MANOI_INCREMENTO
00:00000010   MANOI_VELESCENA
00:00000014   TIPOMANODERECHA
00:00000001   MANOD_COLOR
00:000000E8   MANOD_SPRITE1A
00:000000EC   MANOD_SPRITE1B
00:00000023   MANOD_PASOS
00:00000040   MANOD_POSY
00:0000002F   MANOD_POSX
00:00000005   MANOD_INCREMENTO
00:00000010   MANOD_VELESCENA
00:00000000   ESTRUCTURA_PUNTOMIRA.posx
00:00000001   ESTRUCTURA_PUNTOMIRA.posy
00:00000002   ESTRUCTURA_PUNTOMIRA.escena
00:00000003 X ESTRUCTURA_PUNTOMIRA.velocidad
00:00000004   ESTRUCTURA_PUNTOMIRA.cadencia
00:00000005   ESTRUCTURA_PUNTOMIRA.spritea
00:00000006   ESTRUCTURA_PUNTOMIRA.spriteb
00:00000007   ESTRUCTURA_PUNTOMIRA
00:00000000 X ESTRUCTURA_ANTORCHA.activo
00:00000001 X ESTRUCTURA_ANTORCHA.postilemem_antor1
00:00000003 X ESTRUCTURA_ANTORCHA.pospantalla_antor1
00:00000004 X ESTRUCTURA_ANTORCHA.pospantalla_antor2
00:00000005 X ESTRUCTURA_ANTORCHA.escena
00:00000006 X ESTRUCTURA_ANTORCHA.cont_sig_escena
00:00000007 X ESTRUCTURA_ANTORCHA
00:00000000 X ESTRUCTURA_ESQUELETO.activo
00:00000001 X ESTRUCTURA_ESQUELETO.postilemem_antor1
00:00000003 X ESTRUCTURA_ESQUELETO.pospantalla_esquel1
00:00000004 X ESTRUCTURA_ESQUELETO.pospantalla_esquel2
00:00000005   ESTRUCTURA_ESQUELETO.escena
00:00000006   ESTRUCTURA_ESQUELETO.cont_sig_escena
00:00000007 X ESTRUCTURA_ESQUELETO
00:00000000 X ESTRUCTURA_AYUDA.activa
00:00000001   ESTRUCTURA_AYUDA.posx
00:00000002   ESTRUCTURA_AYUDA.posy
00:00000003   ESTRUCTURA_AYUDA.radiox
00:00000004   ESTRUCTURA_AYUDA.radioy
00:00000005   ESTRUCTURA_AYUDA.accion
00:00000007   ESTRUCTURA_AYUDA.tiles_ayudaon
00:00000009   ESTRUCTURA_AYUDA.tiles_ayudaoff
00:0000000B   ESTRUCTURA_AYUDA.pos_en_tilemap
00:0000000D X ESTRUCTURA_AYUDA.alto
00:0000000E X ESTRUCTURA_AYUDA.ancho
00:0000000F X ESTRUCTURA_AYUDA
00:00000000 X ESTRUCTURA_PUERTA.activa
00:00000001   ESTRUCTURA_PUERTA.posx
00:00000002   ESTRUCTURA_PUERTA.posy
00:00000003   ESTRUCTURA_PUERTA.radiox
00:00000004   ESTRUCTURA_PUERTA.radioy
00:00000005   ESTRUCTURA_PUERTA.accion
00:00000007   ESTRUCTURA_PUERTA.tiles_puerta
00:00000009   ESTRUCTURA_PUERTA.pos_en_tilemap
00:0000000B   ESTRUCTURA_PUERTA.alto
00:0000000C   ESTRUCTURA_PUERTA.ancho
00:0000000D   ESTRUCTURA_PUERTA
00:00000000 X ESTRUCTURA_ENEMIGO.activo_tipo
00:00000001   ESTRUCTURA_ENEMIGO.escena
00:00000002 X ESTRUCTURA_ENEMIGO.cont_sig_escena
00:00000003   ESTRUCTURA_ENEMIGO.energia
00:00000004   ESTRUCTURA_ENEMIGO.posx
00:00000005   ESTRUCTURA_ENEMIGO.posy
00:00000006 X ESTRUCTURA_ENEMIGO.radiox
00:00000007 X ESTRUCTURA_ENEMIGO.radioy
00:00000008   ESTRUCTURA_ENEMIGO.incx
00:00000009 X ESTRUCTURA_ENEMIGO.inxy
00:0000000A   ESTRUCTURA_ENEMIGO.direccionx
00:0000000B   ESTRUCTURA_ENEMIGO.direcciony
00:0000000C   ESTRUCTURA_ENEMIGO.pasos
00:0000000D   ESTRUCTURA_ENEMIGO.pocavida
00:0000000E   ESTRUCTURA_ENEMIGO.ptr_mover
00:00000010   ESTRUCTURA_ENEMIGO.sprite_a
00:00000011   ESTRUCTURA_ENEMIGO.sprite_b
00:00000012   ESTRUCTURA_ENEMIGO.sprite_c
00:00000013   ESTRUCTURA_ENEMIGO.sprite_d
00:00000014   ESTRUCTURA_ENEMIGO
00:0000C000 X prota
00:0000C000   prota_nivel
00:0000C001   prota_vidas
00:0000C002   prota_reliquias
00:0000C003   prota_pos_mapx
00:0000C004   prota_pos_mapy
00:0000C005   prota_energia
00:0000C006   prota_energia_bytebajo
00:0000C007   array_aux_vidas
00:0000C00F   array_aux_reliquias
00:0000C017   array_aux_energia
00:0000C01E   ultimo_pos_array_aux_energia
00:0000C01F   array_aux_mapa_limpiar
00:0000C026   elemento_pintar_mapa
00:0000C027   antorchas
00:0000C02E   array_antorcha
00:0000C031   esqueletos
00:0000C038   array_esqueleto
00:0000C044   lista_escenas_calavera
00:0000C048   var_aux_calavera
00:0000C049   heartbeat_cienpies
00:0000C04A   heartbeat_serpiente
00:0000C04B   heartbeat_arana
00:0000C04C   heartbeat_murcielago
00:0000C04D   heartbeat_lobo
00:0000C04E   heartbeat_esqueleto
00:0000C04F   heartbeat_zombi
00:0000C050   heartbeat_fantasma
00:0000C051   heartbeat_caballero
00:0000C052   heartbeat_fuego
00:0000C053   heartbeat_magia
00:0000C054   heartbeat_general
00:0000C055   enemigo1
00:0000C069   enemigo2
00:0000C07D   enemigo3
00:0000C091   enemigo4
00:0000C0A5   enemigo5
00:0000C0B9   enemigo6
00:0000C0CD   enemigo7
00:0000C0E1   array_sprites
00:0000C0E1   array_sprites_pm
00:0000C0E9   array_sprites_enem
00:0000C161   hay_ayudas_en_pantalla
00:0000C162   puntero_ayuda_actual
00:0000C164 X lista_ayudas
00:0000C164   ayuda_oracion
00:0000C173   ayuda_cruz
00:0000C182   ayuda_aguabendita
00:0000C191   ayuda_armadura
00:0000C1A0   ayuda_planta
00:0000C1AF   ayuda_vidaextra
00:0000C1BE   ayuda_ballesta
00:0000C1CD   tiles_patrones
00:0000C1CF   tiles_colores
00:0000C1D1   tiles_mapa
00:0000C1D3   wordaux1
00:0000C1D5   wordaux2
00:0000C1D7   byteaux1
00:0000C1D8   byteaux2
00:0000C1D9 X lista_puertas
00:0000C1D9   puerta_arriba
00:0000C1E6   puerta_derecha
00:0000C1F3   puerta_abajo
00:0000C200   puerta_izquierda
00:0000C20D   puerta_escalera
00:0000C21A   dano_actual
00:0000C21B   puntomira
00:0000C222   habitacion_actual
00:0000C223   habitacion_extras
00:0000C224 X habitacion_actual_puntero
00:0000C226   habitacion_terminada
00:0000C227   puntero_extras_habitacion_actual
00:0000C229   puntero_habitacion_actual
00:0000C22B   habitaciones_juego
00:0000C22B   habitaciones_nivel0
00:0000C29B   habitaciones_nivel1
00:0000C30B   habitaciones_nivel2
00:0000C37B   habitaciones_nivel3
00:0000C3EB   habitaciones_nivel4
00:0000C45B   habitaciones_nivel5
00:0000C4CB   habitaciones_nivel6
00:0000C53B   tiempo
00:0000C53B X contador
00:0000C53C X segundos
00:0000C53D X minutos
00:00004010   START
00:0000403C X pantalla_inicial
00:00004066   loop_principal
00:00004075   loop_principal.loop_heartbeat
00:00004077 X loop_principal.fin_loop_hearbeat
00:0000407F X fin_programa_principal
00:0000407F   inicializa_variables_prota
00:000040A2 X fin_inicializa_variables_pruebas
00:000040A3   inicializa_niveles
00:000040B1   inicializa_niveles.inicia_nivel_0
00:000040BB X inicializa_niveles.si_tiene_ayuda_nivel0
00:000040C0   inicializa_niveles.no_tiene_ayuda_nivel0
00:000040C2   inicializa_niveles.fin_tiene_ayuda_nivel0
00:000040D6   inicializa_niveles.inicia_nivel_1
00:000040E1 X inicializa_niveles.si_tiene_ayuda_nivel1
00:000040E6   inicializa_niveles.no_tiene_ayuda_nivel1
00:000040E8   inicializa_niveles.fin_tiene_ayuda_nivel1
00:000040FC   inicializa_niveles.inicia_nivel_2
00:00004107 X inicializa_niveles.si_tiene_ayuda_nivel2
00:0000410C   inicializa_niveles.no_tiene_ayuda_nivel2
00:0000410E   inicializa_niveles.fin_tiene_ayuda_nivel2
00:00004122   inicializa_niveles.inicia_nivel_3
00:0000412D X inicializa_niveles.si_tiene_ayuda_nivel3
00:00004132   inicializa_niveles.no_tiene_ayuda_nivel3
00:00004134   inicializa_niveles.fin_tiene_ayuda_nivel3
00:00004148   inicializa_niveles.inicia_nivel_4
00:00004153 X inicializa_niveles.si_tiene_ayuda_nivel4
00:00004158   inicializa_niveles.no_tiene_ayuda_nivel4
00:0000415A   inicializa_niveles.fin_tiene_ayuda_nivel4
00:0000416E   inicializa_niveles.inicia_nivel_5
00:00004179 X inicializa_niveles.si_tiene_ayuda_nivel5
00:0000417E   inicializa_niveles.no_tiene_ayuda_nivel5
00:00004180   inicializa_niveles.fin_tiene_ayuda_nivel5
00:00004194   inicializa_niveles.inicia_nivel_6
00:0000419E X inicializa_niveles.si_tiene_ayuda_nivel6
00:000041A3   inicializa_niveles.no_tiene_ayuda_nivel6
00:000041A5   inicializa_niveles.fin_tiene_ayuda_nivel6
00:000041B1 X fin_iniciliza_niveles
00:000041B2   actualiza_marcador_vidas
00:000041B7   loop_marcador_caras_negro
00:000041BC X fin_loop_marcador_caras_negro
00:000041C5   loop_marcador_caras
00:000041CA X fin_loop_marcador_caras
00:000041CA X fin_actualiza_marcador_vidas
00:000041CB   actualiza_buffer_reliquias
00:000041D1   loop_buffer_reliquias_negro
00:000041DE   loop_buffer_reliquias
00:000041E3 X fin_actualiza_buffer_reliquias
00:000041E4   localiza_info_habitacion
00:000041E8 X localiza_info_habitacion.situo_columna
00:000041F1 X localiza_info_habitacion.situo_fila
00:000041FA   localiza_info_habitacion.loop_suma_fila
00:00004202   localiza_info_habitacion.situo_nivel
00:00004211   localiza_info_habitacion.loop_suma_nivel
00:00004216   localiza_info_habitacion.actualiza_variable_habitacion
00:0000422C X localiza_info_habitacion.no_terminada
00:00004233   localiza_info_habitacion.si_terminada
00:00004238   localiza_info_habitacion.fin_esta_terminada
00:00004240 X localiza_info_habitacion.si_mostrar_ayuda_activa
00:00004248   localiza_info_habitacion.no_mostrar_ayuda_activa
00:0000424C   localiza_info_habitacion.fin_mostrar_ayuda_activa
00:00004255 X fin_localiza_info_habitacion
00:00004256 X terminada_habitacion_recorrida
00:0000425B X fin_terminada_habitacion_recorrida
00:0000425C   entra_habitacion
00:0000425F X entra_habitacion.mira_nivel0
00:0000426C   entra_habitacion.mira_nivel1
00:00004277   entra_habitacion.mira_nivel2
00:00004282   entra_habitacion.mira_nivel3
00:0000428D   entra_habitacion.mira_nivel4
00:00004298   entra_habitacion.mira_nivel5
00:000042A3   entra_habitacion.mira_nivel6
00:000042A6   entra_habitacion.fin_mira_nivel
00:000042B5 X fin_entra_habitacion
00:000042B5   pinta_heroe_mapa
00:000042BD X fin_pinta_heroe_mapa
00:000042BD   pinta_blanco_mapa
00:000042C5 X fin_pinta_blanco_mapa
00:000042C5   cambio_nivel
00:000042CE X fin_cambio_nivel
00:000042CE   check_colisiones_objetos
00:000042DA   check_colisiones_objetos.habitacion_no_terminada
00:000042E5   check_colisiones_objetos.habitacion_sin_ayudas
00:000042E5 X fin_check_colisiones_objetos
00:000042E6   suma_A_BC
00:000042EB X fin_suma_A_BC
00:000042EC X suma_A_DE
00:000042F1 X fin_suma_A_DE
00:000042F2   suma_A_HL
00:000042F7 X fin_suma_A_HL
00:000042F8 X test_OK
00:0000430B X fin_test_OK
00:0000430C   carga_valores_iniciales_variables
00:00004317 X fin_carga_valores_iniciales_variables
00:00004318   retardo16bits
00:00004318   retardo16bits.loop
00:0000431E X fin_retardo16bits
00:0000431F X retardo8bits
00:0000431F   retardo8bits.loop
00:00004322 X fin_retardo8bits
00:00004323   color_base
00:00004326   color_bomba1
00:00004329   color_bomba2
00:0000432C   color_pantalla
00:0000433D X fin_color_pantalla
00:0000433D   sub_preparapantalla
00:0000433D X elimina_clic
00:00004341 X fin_elimina_clic
00:00004341 X limpia_pantalla
00:00004345 X fin_limpia_pantalla
00:0000434B X screen2
00:00004350 X sprites_16_16
00:0000435E X fin_sub_preparapantalla
00:0000435E   pinta_pantalla_completa
00:00004364 X fin_pinta_pantalla_completa
00:00004365   pinta_parte_superior_pantalla
00:00004395   pinta_parte_superior_pantalla.carga_nivel_0
00:000043AA   pinta_parte_superior_pantalla.carga_nivel_1
00:000043BF   pinta_parte_superior_pantalla.carga_nivel_2
00:000043D4   pinta_parte_superior_pantalla.carga_nivel_3
00:000043E9   pinta_parte_superior_pantalla.carga_nivel_4
00:000043FE   pinta_parte_superior_pantalla.carga_nivel_5
00:00004413   pinta_parte_superior_pantalla.carga_nivel_6
00:00004425   pinta_parte_superior_pantalla.fin_carga_niveles
00:00004452 X fin_pinta_parte_superior_pantalla
00:00004452   pinta_parte_inferior_pantalla
00:00004479 X fin_pinta_parte_inferior_pantalla
00:00004479   pinta_vidas
00:00004488 X fin_pinta_vidas
00:00004488   pinta_reliquias
00:00004497 X fin_pinta_reliquias
00:00004497   pinta_nivel
00:000044A3 X fin_pinta_nivel
00:000044A3   pinta_tile_suelto
00:000044B0 X fin_pinta_tile_suelto
00:000044B1   mira_pinta_energia
00:000044B7 X pinta_ener
00:000044B7 X pinta_ener_tile_8
00:000044C3   pinta_ener_tile_8_negro
00:000044C4   pinta_ener_tile_7
00:000044CE   pinta_ener_tile_7_negro
00:000044CF   pinta_ener_tile_6
00:000044D9   pinta_ener_tile_6_negro
00:000044DA   pinta_ener_tile_5
00:000044E4   pinta_ener_tile_5_negro
00:000044E5   pinta_ener_tile_4
00:000044EF   pinta_ener_tile_4_negro
00:000044F0   pinta_ener_tile_3
00:000044FA   pinta_ener_tile_3_negro
00:000044FB   pinta_ener_tile_2
00:00004505   pinta_ener_tile_2_negro
00:00004506   fin_mira_pinta_energia
00:00004508   pinta_energia
00:00004517 X fin_pinta_energia
00:00004517   borra_mapa
00:0000456D X fin_borra_mapa
00:0000456E   posiciona_en_mapa
00:00004571 X posiciona_en_mapa.sumar_fila
00:0000459B X posiciona_en_mapa.fila_0
00:000045A2   posiciona_en_mapa.fila_1
00:000045A9   posiciona_en_mapa.fila_2
00:000045B0   posiciona_en_mapa.fila_3
00:000045B7   posiciona_en_mapa.fila_4
00:000045BE   posiciona_en_mapa.fila_5
00:000045C5 X posiciona_en_mapa.fila_6
00:000045C5   posiciona_en_mapa.sumar_columna
00:000045DB   pinta_pos_mapa_vacio
00:000045DD   fin_pinta_pos_mapa
00:000045E0 X fin_posiciona_en_mapa
00:000045E0   efecto_imagen_tira_reliquia
00:000045E3   efecto_imagen_tira_reliquia.parpadea_fondo
00:000045FA X fin_efecto_imagen_tira_reliquia
00:000045FA   pinta_array
00:00004615   pinta_array.pa_pinta_fila
00:00004616   pinta_array.pa_pinta_columnas
00:00004639 X fin_pinta_array
00:0000463A   inicializa_antorchas
00:0000465B X fin_inicializa_antorchas
00:0000465C   inicializa_esqueletos
00:0000467D X fin_inicializa_esqueletos
00:0000467E   pinta_extra_fondo
00:00004682 X pinta_extra_fondo.examina_sihay_antorchas
00:00004691   pinta_extra_fondo.hayantorchas
00:000046BA   pinta_extra_fondo.examina_sihay_esqueletos
00:000046CB   pinta_extra_fondo.hayesqueletos
00:000046F4 X fin_pinta_extra_fondo
00:000046F4   actualiza_elementos_fondo
00:000046F4 X actualiza_elementos_fondo.examina_antorchas
00:00004702   actualiza_elementos_fondo.examina_esqueletos
00:0000470E X fin_actualiza_elementos_fondo
00:0000470E   flip_llamas_antorchas
00:00004727 X flip_llamas_antorchas.llama_impar
00:00004748   flip_llamas_antorchas.llama_par
00:0000476A   fin_flip_llamas_antorchas
00:0000476B   flip_calavera_esqueletos
00:00004798 X fin_flip_calavera_esqueletos
00:00004798   actualiza_escena_calavera
00:000047A4   actualiza_escena_calavera.decrementa_escenas
00:000047A5 X actualiza_escena_calavera.fin_consulta_escena
00:000047B3 X fin_actualiza_escena_calavera
00:000047B4   cambio_nivel_entrefases
00:000047DB   cambio_nivel_entrefases.mientras_nopulsado
00:000047EB X fin_cabio_nivel_entrefases
00:000047EC   oculta_todos_sprites
00:000047F4 X fin_oculta_todos_sprites
00:000047F4   borra_pantalla_inicio
00:000047FA   borra_pantalla_inicio.loop
00:0000481D X fin_borra_pantalla_inicio
00:0000481D   muestra_pantalla_inicial
00:00004862   muestra_pantalla_inicial.mientras_nopulsado
00:0000487A   muestra_pantalla_inicial.parpadeo
00:00004893 X fin_muestra_pantalla_inicial
00:00004893   datos_puntomira
00:0000489A   inicializa_punto_mira
00:000048A3 X fin_inicializa_punto_mira
00:000048A3   carga_datos_puntomira
00:000048A8 X fin_carga_datos_puntomira
00:000048A9   accion_boton1
00:000048C2 X fin_accion_boton1
00:000048C2   accion_boton2
00:000048DA X fin_accion_boton2
00:000048DA X datos_puertas
00:000048DA   datos_puerta_escalera
00:000048E7   datos_puerta_arriba
00:000048F4   datos_puerta_derecha
00:00004901   datos_puerta_abajo
00:0000490E   datos_puerta_izquierda
00:0000491B   array_puerta_arriba
00:00004933   array_puerta_derecha
00:0000494B   array_puerta_abajo
00:0000494F   array_puerta_izquierda
00:00004967   array_escalera
00:0000499F   inicializa_puertas
00:000049CC X fin_inicializa_puertas
00:000049CC   carga_datos_puerta
00:000049D1 X fin_carga_datos_puerta
00:000049D2   accion_puerta_arriba
00:000049DE X accion_puerta_arriba.si_cambia_nivel
00:000049F2   accion_puerta_arriba.no_cambia_nivel
00:000049F5   accion_puerta_arriba.fin_cambia_nivel
00:000049F8 X fin_accion_puerta_arriba
00:000049F8   accion_puerta_derecha
00:00004A05 X fin_accion_puerta_derecha
00:00004A05   accion_puerta_abajo
00:00004A10 X accion_puerta_abajo.si_cambia_nivel
00:00004A25   accion_puerta_abajo.no_cambia_nivel
00:00004A28   accion_puerta_abajo.fin_cambia_nivel
00:00004A2B X fin_accion_puerta_abajo
00:00004A2B   accion_puerta_izquierda
00:00004A38 X fin_accion_puerta_izquierda
00:00004A38   pinta_puertas
00:00004A51   pinta_puertas.fin_puerta_arriba
00:00004A64   pinta_puertas.fin_puerta_derecha
00:00004A77   pinta_puertas.fin_puerta_abajo
00:00004A8A   fin_pinta_puertas
00:00004A8B   pinta_puerta_aba
00:00004A95 X fin_pinta_puerta_aba
00:00004A95   pinta_puerta_arr
00:00004A9D X pinta_puerta_arr.pinta_puerta_escalera
00:00004AA4   pinta_puerta_arr.pinta_puerta_normal
00:00004AA8   pinta_puerta_arr.fin_si
00:00004AAE X fin_pinta_puerta_arr
00:00004AAE   pinta_puerta_der
00:00004AB8 X fin_pinta_puerta_der
00:00004AB8   pinta_puerta_izq
00:00004AC2 X fin_pinta_puerta_izq
00:00004AC2   actualiza_variables_pinta_array
00:00004AE0 X fin_actualiza_variables_pinta_array
00:00004AE1   check_colisiones_puertas
00:00004AE1 X check_colisiones_puertas.examina_puerta_arriba
00:00004AF7   check_colisiones_puertas.examina_puerta_derecha
00:00004B0D   check_colisiones_puertas.examina_puerta_abajo
00:00004B23   check_colisiones_puertas.examina_puerta_izquierda
00:00004B34   check_colisiones_puertas.ejecuta_accion_y_sale
00:00004B3F   fin_check_colisiones_puertas
00:00004B40   check_colision_puerta
00:00004B40 X check_colision_puerta.deteccioncolision_paso1
00:00004B51   check_colision_puerta.deteccioncolision_paso2
00:00004B59   check_colision_puerta.deteccioncolision_paso3
00:00004B66   check_colision_puerta.deteccioncolision_paso4
00:00004B6E   check_colision_puerta.deteccioncolision_paso5
00:00004B70 X fin_check_colision_puerta
00:00004B71   desactiva_todas_puertas
00:00004B91 X fin_desactiva_todas_puertas
00:00004B92   carga_patrones_cienpies
00:00004B9E X fin_carga_patrones_cienpies
00:00004B9F   carga_patrones_serpiente
00:00004BAB X fin_carga_patrones_serpiete
00:00004BAC   carga_patrones_arana
00:00004BB8 X fin_carga_patrones_arana
00:00004BB9   carga_patrones_murcielago
00:00004BC5 X fin_carga_patrones_murcielago
00:00004BC6   carga_patrones_lobo
00:00004BD2 X fin_carga_patrones_lobo
00:00004BD3   carga_patrones_esqueleto
00:00004BDF X fin_carga_patrones_esqueleto
00:00004BE0   carga_patrones_zombi
00:00004BEC X fin_carga_patrones_zombi
00:00004BED   carga_patrones_fantasma
00:00004BF9 X fin_carga_patrones_fantasma
00:00004BFA   carga_patrones_caballero
00:00004C06 X fin_carga_patrones_caballero
00:00004C07   carga_patrones_fuego
00:00004C13 X fin_carga_patrones_fuego
00:00004C14   carga_patrones_magia
00:00004C20 X fin_carga_patrones_magia
00:00004C21   carga_patrones_jefelobo
00:00004C2D X fin_carga_patrones_jefelobo
00:00004C2E   carga_patrones_jefemurcielago
00:00004C3A X fin_carga_patrones_jefemurcielago
00:00004C3B   carga_patrones_jefefantasma
00:00004C47 X fin_carga_patrones_jefefantasma
00:00004C48   carga_patrones_jefezombi
00:00004C54 X fin_carga_patrones_jefezombi
00:00004C55   carga_patrones_jefecaballero
00:00004C61 X fin_carga_patrones_jefecaballero
00:00004C62   carga_patrones_jefebeholder
00:00004C6E X fin_carga_patrones_jefebeholder
00:00004C6F   carga_patrones_condecompleto
00:00004C7B X fin_carga_patrones_condecompleto
00:00004C7C   carga_patrones_sprites_nivel
00:00004C8A   carga_patrones_sprites_nivel.examina_nivel1
00:00004C92   carga_patrones_sprites_nivel.examina_nivel2
00:00004C9A   carga_patrones_sprites_nivel.examina_nivel3
00:00004CA2   carga_patrones_sprites_nivel.examina_nivel4
00:00004CAA   carga_patrones_sprites_nivel.examina_nivel5
00:00004CB2   carga_patrones_sprites_nivel.carga_nivel6
00:00004CB2 X carga_patrones_sprites_nivel.subnivel0
00:00004CBD   carga_patrones_sprites_nivel.subnivel1
00:00004CC5   carga_patrones_sprites_nivel.subnivel2
00:00004CCD   carga_patrones_sprites_nivel.subnivel3
00:00004CD5   carga_patrones_sprites_nivel.subnivel4
00:00004CDD   carga_patrones_sprites_nivel.subnivel5
00:00004CE5   carga_patrones_sprites_nivel.subnivel6
00:00004CE8 X fin_carga_patrones_sprites_nivel
00:00004CE8   carga_patrones_nivel_comunes
00:00004CF4 X fin_carga_patrones_nivel_comunes
00:00004CF4   carga_patrones_sprites_nivel0
00:00004D06 X fin_carga_patrones_sprites_nivel0
00:00004D06   carga_patrones_sprites_nivel1
00:00004D1B X fin_carga_patrones_sprites_nivel1
00:00004D1B   carga_patrones_sprites_nivel2
00:00004D30 X fin_carga_patrones_sprites_nivel2
00:00004D30   carga_patrones_sprites_nivel3
00:00004D45 X fin_carga_patrones_sprites_nivel3
00:00004D45   carga_patrones_sprites_nivel4
00:00004D5A X fin_carga_patrones_sprites_nivel4
00:00004D5A   carga_patrones_sprites_nivel5
00:00004D6F X fin_carga_patrones_sprites_nivel5
00:00004D6F   carga_patrones_sprites_nivel6_nivel0
00:00004D72 X fin_carga_patrones_sprites_nivel6_nivel0
00:00004D72   carga_patrones_sprites_nivel6_nivel1
00:00004D75 X fin_carga_patrones_sprites_nivel6_nivel1
00:00004D75   carga_patrones_sprites_nivel6_nivel2
00:00004D78 X fin_carga_patrones_sprites_nivel6_nivel2
00:00004D78   carga_patrones_sprites_nivel6_nivel3
00:00004D7B X fin_carga_patrones_sprites_nivel6_nivel3
00:00004D7B   carga_patrones_sprites_nivel6_nivel4
00:00004D7E X fin_carga_patrones_sprites_nivel6_nivel4
00:00004D7E   carga_patrones_sprites_nivel6_nivel5
00:00004D81 X fin_carga_patrones_sprites_nivel6_nivel5
00:00004D81   carga_patrones_sprites_nivel6_nivel6
00:00004D84 X fin_carga_patrones_sprites_nivel6_nivel6
00:00004D84   render_sprites
00:00004D9C X fin_actualiza_array_sprites_vram
00:00004D9C   vuelca_resultado_puntomira_array
00:00004DC9 X vuelca_resultado_puntomira_array.codigo_color_1
00:00004DD2   vuelca_resultado_puntomira_array.codigo_color_2
00:00004DDB X fin_vuelca_resultado_puntomira_array
00:00004DDB   check_player
00:00004DFE X fin_check_player
00:00004DFE X array_ayudas
00:00004DFE   array_oracionon
00:00004E00 X array_oracionon1
00:00004E02   array_oracionoff
00:00004E04 X array_oracionoff1
00:00004E06   array_cruzon
00:00004E08 X array_cruzon1
00:00004E0A   array_cruzoff
00:00004E0C X array_cruzoff1
00:00004E0E   array_aguaon
00:00004E10 X array_aguaon1
00:00004E12   array_aguaoff
00:00004E14 X array_aguaoff1
00:00004E16   array_armaduraon
00:00004E18 X array_armaduraon1
00:00004E1A   array_armaduraoff
00:00004E1C X array_armaduraoff1
00:00004E1E   array_plantaon
00:00004E20 X array_plantaon1
00:00004E22   array_plantaoff
00:00004E24 X array_plantaoff1
00:00004E26   array_vidaextraon
00:00004E28 X array_vidaextraon1
00:00004E2A   array_vidaextraoff
00:00004E2C X array_vidaextraoff1
00:00004E2E   array_ballestaon
00:00004E30 X array_ballestaon1
00:00004E32   array_ballestaoff
00:00004E34 X array_ballestaoff1
00:00004E36 X datos_ayudas
00:00004E36   datos_oracion
00:00004E45   datos_cruz
00:00004E54   datos_aguabendita
00:00004E63   datos_armadura
00:00004E72   datos_planta
00:00004E81   datos_vidaextra
00:00004E90   datos_ballesta
00:00004E9F   inicializa_ayudas
00:00004EDE X fin_inicializa_ayudas
00:00004EDE   carga_datos_ayuda
00:00004EE3 X fin_carga_datos_ayuda
00:00004EE4   pinta_obj_ayuda
00:00004EE8 X pinta_obj_ayuda.dibujoon
00:00004EF4   pinta_obj_ayuda.dibujooff
00:00004EFD   pinta_obj_ayuda.param_wordaux2
00:00004F06 X pinta_obj_ayuda.filasycols
00:00004F11 X fin_pinta_obj_ayuda
00:00004F11   pinta_ayudas_habitacion
00:00004F16 X pinta_ayudas_habitacion.examina_oracion
00:00004F31   pinta_ayudas_habitacion.fin_examina_oracion
00:00004F31 X pinta_ayudas_habitacion.examina_cruz
00:00004F4C   pinta_ayudas_habitacion.fin_examina_cruz
00:00004F4C X pinta_ayudas_habitacion.examina_aguabendita
00:00004F67   pinta_ayudas_habitacion.fin_examina_aguabendita
00:00004F67 X pinta_ayudas_habitacion.examina_armadura
00:00004F82   pinta_ayudas_habitacion.fin_examina_armadura
00:00004F82 X pinta_ayudas_habitacion.examina_planta
00:00004F9D   pinta_ayudas_habitacion.fin_examina_planta
00:00004F9D X pinta_ayudas_habitacion.examina_vidaextra
00:00004FB8   pinta_ayudas_habitacion.fin_examina_vidaextra
00:00004FB8 X pinta_ayudas_habitacion.examina_ballesta
00:00004FD0 X pinta_ayudas_habitacion.fin_examina_ballesta
00:00004FD0   fin_pinta_ayudas_habitacion
00:00004FD1   check_colision_ayudas
00:00004FED   fin_check_colision_ayudas
00:00004FEE   check_colision_ayuda
00:00004FEE X check_colision_ayuda.deteccioncolision_paso1
00:00004FFF   check_colision_ayuda.deteccioncolision_paso2
00:00005007   check_colision_ayuda.deteccioncolision_paso3
00:00005014   check_colision_ayuda.deteccioncolision_paso4
00:0000501C   check_colision_ayuda.deteccioncolision_paso5
00:0000501E X fin_check_colision_ayuda
00:0000501F   accion_oracion
00:00005042 X fin_accion_oracion
00:00005042   accion_cruz
00:0000505F X accion_cruz.suma_reliquias
00:00005064   accion_cruz.max_reliquias
00:00005066   accion_cruz.fin_suma_reliquias
00:0000506C X fin_accion_cruz
00:0000506C   accion_aguabendita
00:00005089 X accion_aguabendita.suma_reliquias
00:0000508E   accion_aguabendita.max_reliquias
00:00005090   accion_aguabendita.fin_suma_reliquias
00:00005096 X fin_accion_aguabendita
00:00005096   accion_armadura
00:000050B3 X accion_armadura.suma_energia
00:000050B8   accion_armadura.max_energia
00:000050BA   accion_armadura.fin_suma_energia
00:000050C0 X fin_accion_armadura
00:000050C0   accion_planta
00:000050DE X fin_accion_planta
00:000050DE   accion_vidaextra
00:000050FE X fin_accion_vidaextra
00:000050FE   accion_ballesta
00:00005125 X fin_accion_ballesta
00:00005125 X actualiza_contadores_tiempo
00:00005136   avanza_segundos
00:00005147   avanza_minutos
00:0000514F X fin_actualiza_contadores_tiempo
00:0000514F   mueve_arriba
00:0000515A   mueve_arriba.no_decrementa_y
00:0000515B X fin_mueve_arriba
00:0000515C   mueve_derecha
00:00005169   mueve_derecha.no_incrementa_x
00:0000516A X fin_mueve_derecha
00:0000516B   mueve_abajo
00:00005178   mueve_abajo.no_incrementa_y
00:00005179 X fin_mueve_abajo
00:0000517A   mueve_izquierda
00:00005185   mueve_izquierda.no_decrementa_x
00:00005186 X fin_mueve_izquierda
00:00005187   mira_disparo
00:00005187 X mira_disparo.mira_disparo1
00:00005198 X mira_disparo.no_efectua_disparo
00:0000519F   mira_disparo.efectua_disparo
00:000051A2   mira_disparo.fin_mira_disparo1
00:000051A3   mira_disparo.mira_disparo2
00:000051A9 X fin_mira_disparo
00:000051A9   update_controllers_status
00:000051E0   read_joy_0
00:000051F4   check_8th_keyboard_row
00:00005202   check_4th_keyboard_row
00:00005210   posiciones_cienpies_x
00:00005219   posiciones_cienpies_y
00:00005222   datos_cienpies
00:00005236   anade_enemigo_cienpies
00:0000523E X fin_anade_enemigo_cienpies
00:0000523F   actualiza_valores_cienpies
00:0000523F X actualiza_valores_cienpies.calcula_posicion
00:00005244 X actualiza_valores_cienpies.asigna_valores_posicion_x
00:0000524E X actualiza_valores_cienpies.asigna_valores_posicion_y
00:00005259 X fin_actualiza_valores_cienpies
00:0000525A   mover_cienpies
00:00005273 X fin_mover_cienpies
00:00005274   calcula_cienpies_escena
00:0000528E   calcula_cienpies_escena.enemigo1_poner_escena2
00:00005290   calcula_cienpies_escena.fin_enemigo1_poner_escena2
00:00005293 X fin_calcula_cienpies_escena
00:00005294   posiciones_arana_x
00:000052A4   datos_arana
00:000052B8   anade_enemigo_arana
00:000052C0 X fin_anade_enemigo_arana
00:000052C1   actualiza_valores_arana
00:000052C1 X actualiza_valores_arana.calcula_posicion
00:000052C6 X actualiza_valores_arana.asigna_valores_posicion_x
00:000052D0 X fin_actualiza_valores_arana
00:000052D1   mover_arana
00:000052ED X fin_mover_arana
00:000052EE   calcula_arana_escena
00:00005308   calcula_arana_escena.enemigo1_poner_escena2
00:0000530A   calcula_arana_escena.fin_enemigo1_poner_escena2
00:0000530D X fin_calcula_arana_escena
00:0000530E   calcula_arana_incrementoy
00:00005315 X calcula_arana_incrementoy.arana_sube
00:00005323   calcula_arana_incrementoy.arana_baja
00:00005332 X fin_calcula_arana_incrementoy
00:00005333   datos_murcielago
00:00005347   anade_enemigo_murcielago
00:0000534F X fin_anade_enemigo_murcielago
00:00005350 X actualiza_valores_murcielago
00:00005350 X fin_actualiza_valores_murcielago
00:00005350   mover_murcielago
00:0000536F X fin_mover_murcielago
00:00005370   calcula_murcielago_escena
00:0000538A   calcula_murcielago_escena.enemigo1_poner_escena2
00:0000538C   calcula_murcielago_escena.fin_enemigo1_poner_escena2
00:0000538F X fin_calcula_murcielago_escena
00:00005390   calcula_murcielago_incrementoy
00:00005398 X calcula_murcielago_incrementoy.sube
00:0000539C   calcula_murcielago_incrementoy.baja
00:000053A0 X fin_calcula_murcielago_incrementoy
00:000053A0   calcula_murcielago_incrementox
00:000053A7 X calcula_murcielago_incrementox.mueve_izquierda
00:000053AD   calcula_murcielago_incrementox.mueve_derecha
00:000053B0   calcula_murcielago_incrementox.fin_mueve
00:000053C8 X fin_calcula_murcielago_incrementox
00:000053C9 X posiciones_serpiente_y
00:000053D9   datos_serpiente
00:000053ED   anade_enemigo_serpiente
00:000053F5 X fin_anade_enemigo_serpiente
00:000053F6 X actualiza_valores_serpiente
00:000053F6 X fin_actualiza_valores_serpiente
00:000053F6   mover_serpiente
00:00005412 X fin_mover_serpiente
00:00005413   calcula_serpiente_escena
00:00005424 X calcula_serpiente_escena.direccion_izquierda
00:00005430 X calcula_serpiente_escena.escena_izquierda1
00:00005435   calcula_serpiente_escena.escena_izquierda2
00:0000543A   calcula_serpiente_escena.direccion_derecha
00:00005446 X calcula_serpiente_escena.escena_derecha1
00:0000544B   calcula_serpiente_escena.escena_derecha2
00:00005450 X fin_calcula_serpiente_escena
00:00005450   calcula_serpiente_incrementox
00:00005457 X calcula_serpiente_incrementox.sentido_derecha
00:00005467   calcula_serpiente_incrementox.sentido_izquierda
00:00005477 X fin_calcula_serpiente_incrementox
00:00005477   datos_lobo
00:0000548B   anade_enemigo_lobo
00:00005493 X fin_anade_enemigo_lobo
00:00005494 X actualiza_valores_lobo
00:00005494 X fin_actualiza_valores_lobo
00:00005494   mover_lobo
00:000054C1 X fin_mover_lobo
00:000054C2   calcula_lobo_escena
00:000054D3 X calcula_lobo_escena.direccion_izquierda
00:000054DF X calcula_lobo_escena.escena_izquierda1
00:000054E4   calcula_lobo_escena.escena_izquierda2
00:000054E9   calcula_lobo_escena.direccion_derecha
00:000054F5 X calcula_lobo_escena.escena_derecha1
00:000054FA   calcula_lobo_escena.escena_derecha2
00:000054FF X fin_calcula_lobo_escena
00:000054FF   calcula_lobo_incrementox
00:00005506 X calcula_lobo_incrementox.mueve_izquierda
00:0000550C   calcula_lobo_incrementox.mueve_derecha
00:0000550F   calcula_lobo_incrementox.fin_mueve_posx
00:0000551F X fin_calcula_lobo_incrementox
00:00005520   datos_jefelobo
00:00005534   anade_enemigo_jefelobo
00:0000553C X fin_anade_enemigo_jefelobo
00:0000553D   actualiza_valores_jefelobo_BR
00:00005545 X fin_actualiza_valores_jefelobo_BR
00:00005546   mover_jefelobo
00:000055A8   mover_jefelobo.nointercambiacolor
00:000055B8 X fin_mover_jefelobo
00:000055B9   calcula_jefelobo_escena
00:000055CA X calcula_jefelobo_escena.direccion_izquierda
00:000055D6 X calcula_jefelobo_escena.escena_izquierda1
00:000055E7   calcula_jefelobo_escena.escena_izquierda2
00:000055F8   calcula_jefelobo_escena.direccion_derecha
00:00005604 X calcula_jefelobo_escena.escena_derecha1
00:00005615   calcula_jefelobo_escena.escena_derecha2
00:00005626 X fin_calcula_jefelobo_escena
00:00005626   calcula_jefelobo_posyx
00:00005629 X calcula_jefelobo_posyx.mira_posicion0
00:00005632   calcula_jefelobo_posyx.mira_posicion1
00:0000563E   calcula_jefelobo_posyx.mira_posicion2
00:00005647   calcula_jefelobo_posyx.mira_posicion3
00:00005653   calcula_jefelobo_posyx.resetea_posicion
00:00005667 X fin_calcula_jefelobo_posyx
00:00005668   verifica_siguiente_posicion_jefelobo
00:0000566F X verifica_siguiente_posicion_jefelobo.no_modifica_posicion_fantasma
00:00005673   verifica_siguiente_posicion_jefelobo.modifica_posicion_jefelobo
00:00005677 X verifica_siguiente_posicion_jefelobo.mira_posicion1
00:00005687   verifica_siguiente_posicion_jefelobo.mira_posicion2
00:00005693   verifica_siguiente_posicion_jefelobo.mira_posicion3
00:00005697 X fin_verifica_siguiente_posicion_jefelobo
00:00005698   datos_esqueleto
00:000056AC   anade_enemigo_esqueleto
00:000056B4 X fin_anade_enemigo_esqueleto
00:000056B5 X actualiza_valores_esqueleto
00:000056B5 X fin_actualiza_valores_esqueleto
00:000056B5   mover_esqueleto
00:000056E5 X fin_mover_esqueleto
00:000056E6   calcula_esqueleto_escena
00:000056F0 X calcula_esqueleto_escena.direccion_derecha
00:000056FC X calcula_esqueleto_escena.escena_derecha1
00:00005701   calcula_esqueleto_escena.escena_derecha2
00:00005706 X fin_calcula_esqueleto_escena
00:00005706   calcula_esqueleto_incrementoy
00:00005710 X calcula_esqueleto_incrementoy.subo
00:00005714   calcula_esqueleto_incrementoy.bajo
00:00005718 X fin_calcula_esqueleto_incrementoy
00:00005718   calcula_esqueleto_incrementox
00:0000571F X fin_calcula_esqueleto_incrementox
00:00005720   datos_zombi
00:00005734   anade_enemigo_zombi
00:0000573C X fin_anade_enemigo_zombi
00:0000573D X actualiza_valores_zombi
00:0000573D X fin_actualiza_valores_zombi
00:0000573D   mover_zombi
00:0000576D X fin_mover_zombi
00:0000576E   calcula_zombi_escena
00:00005778 X calcula_zombi_escena.direccion_izquierda
00:00005784 X calcula_zombi_escena.escena_izquierda1
00:00005789   calcula_zombi_escena.escena_izquierda2
00:0000578E X calcula_zombi_escena.direccion_derecha
00:0000579A X calcula_zombi_escena.escena_derecha1
00:0000579F   calcula_zombi_escena.escena_derecha2
00:000057A4 X fin_calcula_zombi_escena
00:000057A4   calcula_zombi_incrementoy
00:000057AC X calcula_zombi_incrementoy.subo
00:000057B4   calcula_zombi_incrementoy.bajo
00:000057BC X fin_calcula_zombi_incrementoy
00:000057BC   calcula_zombi_incrementox
00:000057C3 X calcula_zombi_incrementox.mueve_izquierda
00:000057CC   calcula_zombi_incrementox.mueve_derecha
00:000057D8   calcula_zombi_incrementox.fin_mueve_posx
00:000057E9 X fin_calcula_zombi_incrementox
00:000057EA   datos_jefemurcielago
00:000057FE   posiciones_iniciales_jefemurcielago
00:00005802   anade_enemigo_jefemurcielago
00:0000580A X fin_anade_enemigo_jefemurcielago
00:0000580B   actualiza_valores_jefemurcielago
00:0000580B X actualiza_valores_jefemurcielago.asigna_valores_posicion_x
00:00005819 X actualiza_valores_jefemurcielago.asigna_valores_posicion_y
00:0000582B X fin_actualiza_valores_jefemurcielago
00:0000582C   mover_jefemurcielago
00:0000588E   mover_jefemurcielago.nointercambiacolor
00:0000589E X fin_mover_jefemurcielaro
00:0000589F   calcula_jefemurcielago_escena
00:000058C7   calcula_jefemurcielago_escena.poner_escena2
00:000058D7   fin_calcula_jefemurcielago_escena
00:000058D8   calcula_jefemurcielago_incrementoy
00:000058DE X calcula_jefemurcielago_incrementoy.sube_jefemurcielago
00:000058EB   calcula_jefemurcielago_incrementoy.baja_jefemurcielago
00:000058FB X fin_calcula_jefemurcielago_incrementoy
00:000058FB   calcula_jefemurcielago_incrementox
00:0000590E X fin_calcula_jefemurcielago_incrementox
00:0000590F   datos_fantasma
00:00005923   anade_enemigo_fantasma
00:0000592B X fin_anade_enemigo_fantasma
00:0000592C X actualiza_valores_fantasma
00:0000592C X fin_actualiza_valores_fantasma
00:0000592C   mover_fantasma
00:0000595C X fin_mover_fantasma
00:0000595D   calcula_fantasma_escena
00:00005973 X calcula_fantasma_escena.escena1
00:00005978   calcula_fantasma_escena.escena2
00:0000597D X fin_calcula_fantasma_escena
00:0000597D   calcula_fantasma_posyx
00:00005980 X calcula_fantasma_posyx.mira_posicion0
00:0000598E   calcula_fantasma_posyx.mira_posicion1
00:0000599C   calcula_fantasma_posyx.mira_posicion2
00:000059AA   calcula_fantasma_posyx.mira_posicion3
00:000059B8   calcula_fantasma_posyx.resetea_posicion
00:000059BC X fin_calcula_fantasma_posyx
00:000059BD   verifica_siguiente_posicion_fantasma
00:000059C4 X verifica_siguiente_posicion_fantasma.no_modifica_posicion_fantasma
00:000059C8   verifica_siguiente_posicion_fantasma.modifica_posicion_fantasma
00:000059D0 X fin_verifica_siguiente_posicion_fantasma
00:000059D1   datos_jefefantasma
00:000059E5   anade_enemigo_jefefantasma
00:000059ED X fin_anade_enemigo_jefefantasma
00:000059EE   actualiza_valores_jefefantasma_BR
00:000059F6 X fin_actualiza_valores_jefefantasma_BR
00:000059F7   mover_jefefantasma
00:00005A59   mover_jefefantasma.nointercambiacolor
00:00005A69 X fin_mover_jefefantasma
00:00005A6A   calcula_jefefantasma_escena
00:00005A80 X calcula_jefefantasma_escena.escena1
00:00005A91   calcula_jefefantasma_escena.escena2
00:00005AA2 X fin_calcula_jefefantasma_escena
00:00005AA2   calcula_jefefantasma_posyx
00:00005AA5 X calcula_jefefantasma_posyx.mira_posicion0
00:00005AB3   calcula_jefefantasma_posyx.mira_posicion1
00:00005AC1   calcula_jefefantasma_posyx.mira_posicion2
00:00005ACF   calcula_jefefantasma_posyx.mira_posicion3
00:00005ADD   calcula_jefefantasma_posyx.mira_posicion4
00:00005AEB   calcula_jefefantasma_posyx.mira_posicion5
00:00005AF9   calcula_jefefantasma_posyx.mira_posicion6
00:00005B07   calcula_jefefantasma_posyx.mira_posicion7
00:00005B10 X fin_calcula_jefefantasma_posyx
00:00005B10   verifica_siguiente_posicion_jefefantasma
00:00005B17 X verifica_siguiente_posicion_jefefantasma.no_modifica_posicion_jefefantasma
00:00005B1B   verifica_siguiente_posicion_jefefantasma.modifica_posicion_jefefantasma
00:00005B23 X fin_verifica_siguiente_posicion_jefefantasma
00:00005B24   datos_caballero
00:00005B38   anade_enemigo_caballero
00:00005B40 X fin_anade_enemigo_caballero
00:00005B41 X actualiza_valores_caballero
00:00005B41 X fin_actualiza_valores_caballero
00:00005B41   mover_caballero
00:00005B6E X fin_mover_caballero
00:00005B6F   calcula_caballero_escena
00:00005B80 X calcula_caballero_escena.direccion_izquierda
00:00005B8C X calcula_caballero_escena.escena_izquierda1
00:00005B91   calcula_caballero_escena.escena_izquierda2
00:00005B96   calcula_caballero_escena.direccion_derecha
00:00005BA2 X calcula_caballero_escena.escena_derecha1
00:00005BA7   calcula_caballero_escena.escena_derecha2
00:00005BAC X fin_calcula_caballero_escena
00:00005BAC X calcula_caballero_incrementoy
00:00005BAC X fin_calcula_caballero_incrementoy
00:00005BAC   calcula_caballero_incrementox
00:00005BB3 X calcula_caballero_incrementox.mueve_izquierda
00:00005BB9   calcula_caballero_incrementox.mueve_derecha
00:00005BBC   calcula_caballero_incrementox.fin_mueve_posx
00:00005BCC X fin_calcula_caballero_incrementox
00:00005BCD   datos_jefezombi
00:00005BE1   anade_enemigo_jefezombi
00:00005BE9 X fin_anade_enemigo_jefezombi
00:00005BEA   actualiza_valores_jefezombi_BR
00:00005BF2 X fin_actualiza_valores_jefezombi_BR
00:00005BF3   mover_jefezombi
00:00005C55   mover_jefezombi.nointercambiacolor
00:00005C65 X fin_mover_jefezombi
00:00005C66   calcula_jefezombi_escena
00:00005C77 X calcula_jefezombi_escena.direccion_izquierda
00:00005C83 X calcula_jefezombi_escena.escena_izquierda1
00:00005C94   calcula_jefezombi_escena.escena_izquierda2
00:00005CA5   calcula_jefezombi_escena.direccion_derecha
00:00005CB1 X calcula_jefezombi_escena.escena_derecha1
00:00005CC2   calcula_jefezombi_escena.escena_derecha2
00:00005CD3 X fin_calcula_jefezombi_escena
00:00005CD3 X calcula_jefezombi_incrementoy
00:00005CD3 X fin_calcula_jefezombi_incrementoy
00:00005CD3 X calcula_jefezombi_incrementox
00:00005CD3 X fin_calcula_jefezombi_incrementox
00:00005CD3   datos_fuego
00:00005CE7   anade_enemigo_fuego
00:00005CEF X fin_anade_enemigo_fuego
00:00005CF0 X actualiza_valores_fuego
00:00005CF0 X fin_actualiza_valores_fuego
00:00005CF0   mover_fuego
00:00005D1D X fin_mover_fuego
00:00005D1E   calcula_fuego_escena
00:00005D3C   calcula_fuego_escena.enemigo1_poner_escena2
00:00005D45 X fin_calcula_fuego_escena
00:00005D45   calcula_fuego_incrementoxy
00:00005D45 X calcula_fuego_incrementoxy.examino_sentido_derecha
00:00005D5C   calcula_fuego_incrementoxy.examino_sentido_abajo
00:00005D73   calcula_fuego_incrementoxy.examino_sentido_izquierda
00:00005D8A   calcula_fuego_incrementoxy.examino_sentido_arriba
00:00005D9A X fin_calcula_fuego_incrementoxy
00:00005D9A   datos_jefecaballero
00:00005DAE   array_jefecaballero_posicionesy
00:00005DB6   anade_enemigo_jefecaballero
00:00005DBE X fin_anade_enemigo_jefecaballero
00:00005DBF   actualiza_valores_jefecaballero
00:00005DDE   actualiza_valores_jefecaballero.direccion_izquierda
00:00005DE2   actualiza_valores_jefecaballero.fin_direccion
00:00005DF4 X fin_actualiza_valores_jefecaballero
00:00005DF5   mover_jefecaballero
00:00005E54   mover_jefecaballero.nointercambiacolor
00:00005E64 X fin_mover_jefecaballero
00:00005E65   calcula_jefecaballero_escena
00:00005E76 X calcula_jefecaballero_escena.direccion_izquierda
00:00005E82 X calcula_jefecaballero_escena.escena_izquierda1
00:00005E93   calcula_jefecaballero_escena.escena_izquierda2
00:00005EA4   calcula_jefecaballero_escena.direccion_derecha
00:00005EB0 X calcula_jefecaballero_escena.escena_derecha1
00:00005EC1   calcula_jefecaballero_escena.escena_derecha2
00:00005ED2 X fin_calcula_jefecaballero_escena
00:00005ED2 X calcula_jefecaballero_incrementoy
00:00005ED2 X fin_calcula_jefecaballero_incrementoy
00:00005ED2   calcula_jefecaballero_incrementox
00:00005ED9 X calcula_jefecaballero_incrementox.mueve_izquierda
00:00005EDF   calcula_jefecaballero_incrementox.mueve_derecha
00:00005EE2   calcula_jefecaballero_incrementox.fin_mueve_posx
00:00005EE9 X fin_calcula_jefecaballero_incrementox
00:00005EE9   datos_magia
00:00005EFD   array_magia_derecha_posx
00:00005F22   array_magia_derecha_posy
00:00005F47   array_magia_izquierda_posx
00:00005F6C   array_magia_izquierda_posy
00:00005F91   anade_enemigo_magia
00:00005F99 X fin_anade_enemigo_magia
00:00005F9A X actualiza_valores_magia
00:00005F9A X fin_actualiza_valores_magia
00:00005F9A   mover_magia
00:00005FCF X fin_mover_magia
00:00005FD0   calcula_magia_escena
00:00005FE6 X calcula_magia_escena.escena1
00:00005FEB   calcula_magia_escena.escena2
00:00005FF0 X fin_calcula_magia_escena
00:00005FF0   calcula_magia_incrementoxy
00:00005FF7 X calcula_magia_incrementoxy.direccion_derecha
00:00006014   calcula_magia_incrementoxy.direccion_izquierda
00:0000602E   calcula_magia_incrementoxy.fin_direccion
00:0000603E X fin_calcula_magia_incrementoxy
00:0000603F   datos_jefebeholder
00:00006053   array_jefebeholder_derecha_posx
00:0000608B   array_jefebeholder_derecha_posy
00:000060C3   array_jefebeholder_izquierda_posx
00:000060FB   array_jefebeholder_izquierda_posy
00:00006133   anade_enemigo_jefebeholder
00:0000613B X fin_anade_enemigo_jefebeholder
00:0000613C   actualiza_valores_jefebeholder_BR
00:00006144 X fin_actualiza_valores_jefebeholder_BR
00:00006145   mover_jefebeholder
00:000061AC   mover_jefebeholder.nointercambiacolor
00:000061BC X fin_mover_jefebeholder
00:000061BD   calcula_jefebeholder_escena
00:000061D3 X calcula_jefebeholder_escena.escena1
00:000061E4   calcula_jefebeholder_escena.escena2
00:000061F5 X fin_calcula_jefebeholder_escena
00:000061F6   calcula_jefebeholder_incrementoxy
00:000061FD X calcula_jefebeholder_incrementoxy.direccion_derecha
00:0000621A   calcula_jefebeholder_incrementoxy.direccion_izquierda
00:00006234   calcula_jefebeholder_incrementoxy.fin_direccion
00:00006249 X fin_calcula_jefebeholder_incrementoxy
00:0000624A   datos_dracula
00:0000625E   anade_enemigo_dracula
00:00006266 X fin_anade_enemigo_dracula
00:00006267 X actualiza_valores_dracula
00:00006267 X fin_actualiza_valores_dracula
00:00006267   mover_dracula
00:000062A3   mover_dracula.nointercambiacolor
00:000062AB X fin_mover_dracula
00:000062AC   calcula_dracula_escena
00:000062CA   calcula_dracula_escena.enemigo1_poner_escena2
00:000062D3 X fin_calcula_dracula_escena
00:000062D3   calcula_dracula_incrementoxy
00:000062DD X calcula_dracula_incrementoxy.mira_posicion0
00:000062EA   calcula_dracula_incrementoxy.mira_posicion1
00:000062F7   calcula_dracula_incrementoxy.mira_posicion2
00:00006304   calcula_dracula_incrementoxy.mira_posicion3
00:0000630D X fin_calcula_dracula_incrementoxy
00:0000630D   datos_manod
00:00006321   array_manod_derecha_posx
00:00006346   array_manod_izquierda_posx
00:0000636B   anade_enemigo_manod
00:00006373 X fin_anade_enemigo_manod
00:00006374 X actualiza_valores_manod
00:00006374 X fin_actualiza_valores_manod
00:00006374   mover_manod
00:000063A7   mover_manod.nointercambiacolor
00:000063AB X fin_mover_manod
00:000063AC   calcula_manod_escena
00:000063C2 X calcula_manod_escena.escena1
00:000063C7   calcula_manod_escena.escena2
00:000063CC X fin_calcula_manod_escena
00:000063CC   calcula_manod_incrementoxy
00:000063D3 X calcula_manod_incrementoxy.direccion_derecha
00:000063F0   calcula_manod_incrementoxy.direccion_izquierda
00:0000640A   calcula_manod_incrementoxy.fin_direccion
00:0000641A X fin_calcula_manod_incrementoxy
00:0000641B   datos_manoi
00:0000642F   array_manoi_derecha_posx
00:00006454   array_mano_derecha_posy
00:00006479   array_manoi_izquierda_posx
00:0000649E   array_mano_izquierda_posy
00:000064C3   anade_enemigo_manoi
00:000064CB X fin_anade_enemigo_manoi
00:000064CC X actualiza_valores_manoi
00:000064CC X fin_actualiza_valores_manoi
00:000064CC   mover_manoi
00:000064FF   mover_manoi.nointercambiacolor
00:00006503 X fin_mover_manoi
00:00006504   calcula_manoi_escena
00:0000651A X calcula_manoi_escena.escena1
00:0000651F   calcula_manoi_escena.escena2
00:00006524 X fin_calcula_manoi_escena
00:00006524   calcula_manoi_incrementoxy
00:0000652B X calcula_manoi_incrementoxy.direccion_derecha
00:00006548   calcula_manoi_incrementoxy.direccion_izquierda
00:00006562   calcula_manoi_incrementoxy.fin_direccion
00:00006572 X fin_calcula_manoi_incrementoxy
00:00006573   resetea_enemigos
00:000065AA   resetea_enemigos.loop
00:000065B1 X fin_resetea_enemigos
00:000065B2   inicializa_enemigos_fase0
00:000065B6 X inicializa_enemigos_fase0.nivel0
00:000065BD   inicializa_enemigos_fase0.nivel1
00:000065C5   inicializa_enemigos_fase0.nivel2
00:000065CD   inicializa_enemigos_fase0.nivel3
00:000065D5   inicializa_enemigos_fase0.nivel4
00:000065DD   inicializa_enemigos_fase0.nivel5
00:000065E5   inicializa_enemigos_fase0.nivel6
00:000065E8 X fin_inicializa_enemigos_fase0
00:000065E8   inicializa_enemigos_fase1
00:000065EC X inicializa_enemigos_fase1.nivel0
00:000065F3   inicializa_enemigos_fase1.nivel1
00:000065FB   inicializa_enemigos_fase1.nivel2
00:00006603   inicializa_enemigos_fase1.nivel3
00:0000660B   inicializa_enemigos_fase1.nivel4
00:00006613   inicializa_enemigos_fase1.nivel5
00:0000661B   inicializa_enemigos_fase1.nivel6
00:0000661E X fin_inicializa_enemigos_fase1
00:0000661E   inicializa_enemigos_fase2
00:00006622 X inicializa_enemigos_fase2.nivel0
00:00006629   inicializa_enemigos_fase2.nivel1
00:00006631   inicializa_enemigos_fase2.nivel2
00:00006639   inicializa_enemigos_fase2.nivel3
00:00006641   inicializa_enemigos_fase2.nivel4
00:00006649   inicializa_enemigos_fase2.nivel5
00:00006651   inicializa_enemigos_fase2.nivel6
00:00006654 X fin_inicializa_enemigos_fase2
00:00006654   inicializa_enemigos_fase3
00:00006658 X inicializa_enemigos_fase3.nivel0
00:0000665F   inicializa_enemigos_fase3.nivel1
00:00006667   inicializa_enemigos_fase3.nivel2
00:0000666F   inicializa_enemigos_fase3.nivel3
00:00006677   inicializa_enemigos_fase3.nivel4
00:0000667F   inicializa_enemigos_fase3.nivel5
00:00006687   inicializa_enemigos_fase3.nivel6
00:0000668A X fin_inicializa_enemigos_fase3
00:0000668A   inicializa_enemigos_fase4
00:0000668E X inicializa_enemigos_fase4.nivel0
00:00006695   inicializa_enemigos_fase4.nivel1
00:0000669D   inicializa_enemigos_fase4.nivel2
00:000066A5   inicializa_enemigos_fase4.nivel3
00:000066AD   inicializa_enemigos_fase4.nivel4
00:000066B5   inicializa_enemigos_fase4.nivel5
00:000066BD   inicializa_enemigos_fase4.nivel6
00:000066C0 X fin_inicializa_enemigos_fase4
00:000066C0   inicializa_enemigos_fase5
00:000066C4 X inicializa_enemigos_fase5.nivel0
00:000066CB   inicializa_enemigos_fase5.nivel1
00:000066D3   inicializa_enemigos_fase5.nivel2
00:000066DB   inicializa_enemigos_fase5.nivel3
00:000066E3   inicializa_enemigos_fase5.nivel4
00:000066EB   inicializa_enemigos_fase5.nivel5
00:000066F3   inicializa_enemigos_fase5.nivel6
00:000066F6 X fin_inicializa_enemigos_fase5
00:000066F6   inicializa_enemigos_fase6
00:000066FA X inicializa_enemigos_fase6.nivel0
00:00006701   inicializa_enemigos_fase6.nivel1
00:0000670A   inicializa_enemigos_fase6.nivel2
00:00006713   inicializa_enemigos_fase6.nivel3
00:0000671C   inicializa_enemigos_fase6.nivel4
00:00006725   inicializa_enemigos_fase6.nivel5
00:0000672E   inicializa_enemigos_fase6.nivel6
00:00006731 X fin_inicializa_enemigos_fase6
00:00006731   inicializa_enemigos_fase0_nivel0
00:0000673E X fin_inicializa_enemigos_fase0_nivel0
00:0000673E   inicializa_enemigos_fase0_nivel1
00:00006758 X fin_inicializa_enemigos_fase0_nivel1
00:00006758   inicializa_enemigos_fase0_nivel2
00:0000677C X fin_inicializa_enemigos_fase0_nivel2
00:0000677D   inicializa_enemigos_fase0_nivel3
00:000067AB X fin_inicializa_enemigos_fase0_nivel3
00:000067AC   inicializa_enemigos_fase0_nivel4
00:000067E4 X fin_inicializa_enemigos_fase0_nivel4
00:000067E5   inicializa_enemigos_fase0_nivel5
00:0000681D X fin_inicializa_enemigos_fase0_nivel5
00:0000681E   inicializa_enemigos_fase0_niveljefe
00:00006828 X fin_inicializa_enemigos_fase0_niveljefe
00:00006829   inicializa_enemigos_fase1_nivel0
00:00006833 X fin_inicializa_enemigos_fase1_nivel0
00:00006834   inicializa_enemigos_fase1_nivel1
00:0000684B X fin_inicializa_enemigos_fase1_nivel1
00:0000684B   inicializa_enemigos_fase1_nivel2
00:0000686C X fin_inicializa_enemigos_fase1_nivel2
00:0000686D   inicializa_enemigos_fase1_nivel3
00:00006898 X fin_inicializa_enemigos_fase1_nivel3
00:00006899   inicializa_enemigos_fase1_nivel4
00:000068CE X fin_inicializa_enemigos_fase1_nivel4
00:000068CF   inicializa_enemigos_fase1_nivel5
00:0000690F X fin_inicializa_enemigos_fase1_nivel5
00:0000690F   inicializa_enemigos_fase1_niveljefe
00:0000691C X fin_inicializa_enemigos_fase1_niveljefe
00:0000691C   inicializa_enemigos_fase2_nivel0
00:00006926 X fin_inicializa_enemigos_fase2_nivel0
00:00006927   inicializa_enemigos_fase2_nivel1
00:0000693B X fin_inicializa_enemigos_fase2_nivel1
00:0000693C   inicializa_enemigos_fase2_nivel2
00:0000695A X fin_inicializa_enemigos_fase2_nivel2
00:0000695B   inicializa_enemigos_fase2_nivel3
00:00006983 X fin_inicializa_enemigos_fase2_nivel3
00:00006984   inicializa_enemigos_fase2_nivel4
00:000069B6 X fin_inicializa_enemigos_fase2_nivel4
00:000069B7   inicializa_enemigos_fase2_nivel5
00:000069E9 X fin_inicializa_enemigos_fase2_nivel5
00:000069EA   inicializa_enemigos_fase2_niveljefe
00:000069F4 X fin_inicializa_enemigos_fase2_niveljefe
00:000069F5   inicializa_enemigos_fase3_nivel0
00:000069FF X fin_inicializa_enemigos_fase3_nivel0
00:00006A00   inicializa_enemigos_fase3_nivel1
00:00006A17 X fin_inicializa_enemigos_fase3_nivel1
00:00006A17   inicializa_enemigos_fase3_nivel2
00:00006A38 X fin_inicializa_enemigos_fase3_nivel2
00:00006A39   inicializa_enemigos_fase3_nivel3
00:00006A64 X fin_inicializa_enemigos_fase3_nivel3
00:00006A65   inicializa_enemigos_fase3_nivel4
00:00006A9A X fin_inicializa_enemigos_fase3_nivel4
00:00006A9B   inicializa_enemigos_fase3_nivel5
00:00006AD0 X fin_inicializa_enemigos_fase3_nivel5
00:00006AD1   inicializa_enemigos_fase3_niveljefe
00:00006ADB X fin_inicializa_enemigos_fase3_niveljefe
00:00006ADC   inicializa_enemigos_fase4_nivel0
00:00006AE6 X fin_inicializa_enemigos_fase4_nivel0
00:00006AE7   inicializa_enemigos_fase4_nivel1
00:00006AFB X fin_inicializa_enemigos_fase4_nivel1
00:00006AFC   inicializa_enemigos_fase4_nivel2
00:00006B1A X fin_inicializa_enemigos_fase4_nivel2
00:00006B1B   inicializa_enemigos_fase4_nivel3
00:00006B43 X fin_inicializa_enemigos_fase4_nivel3
00:00006B44   inicializa_enemigos_fase4_nivel4
00:00006B76 X fin_inicializa_enemigos_fase4_nivel4
00:00006B77   inicializa_enemigos_fase4_nivel5
00:00006BB3 X fin_inicializa_enemigos_fase4_nivel5
00:00006BB4   inicializa_enemigos_fase4_niveljefe
00:00006BC1 X fin_inicializa_enemigos_fase4_niveljefe
00:00006BC1   inicializa_enemigos_fase5_nivel0
00:00006BCB X fin_inicializa_enemigos_fase5_nivel0
00:00006BCC   inicializa_enemigos_fase5_nivel1
00:00006BE0 X fin_inicializa_enemigos_fase5_nivel1
00:00006BE1   inicializa_enemigos_fase5_nivel2
00:00006BFF X fin_inicializa_enemigos_fase5_nivel2
00:00006C00   inicializa_enemigos_fase5_nivel3
00:00006C28 X fin_inicializa_enemigos_fase5_nivel3
00:00006C29   inicializa_enemigos_fase5_nivel4
00:00006C5B X fin_inicializa_enemigos_fase5_nivel4
00:00006C5C   inicializa_enemigos_fase5_nivel5
00:00006C98 X fin_inicializa_enemigos_fase5_nivel5
00:00006C99   inicializa_enemigos_fase5_niveljefe
00:00006CA3 X fin_inicializa_enemigos_fase5_niveljefe
00:00006CA4   inicializa_enemigos_fase6_nivel0
00:00006CB4 X fin_inicializa_enemigos_fase6_nivel0
00:00006CB4   inicializa_enemigos_fase6_nivel1
00:00006CC4 X fin_inicializa_enemigos_fase6_nivel1
00:00006CC4   inicializa_enemigos_fase6_nivel2
00:00006CD4 X fin_inicializa_enemigos_fase6_nivel2
00:00006CD4   inicializa_enemigos_fase6_nivel3
00:00006CE4 X fin_inicializa_enemigos_fase6_nivel3
00:00006CE4   inicializa_enemigos_fase6_nivel4
00:00006CF4 X fin_inicializa_enemigos_fase6_nivel4
00:00006CF4   inicializa_enemigos_fase6_nivel5
00:00006D04 X fin_inicializa_enemigos_fase6_nivel5
00:00006D04   inicializa_enemigos_fase6_nivel6
00:00006D25 X fin_inicializa_enemigos_fase6_nivel6
00:00006D26   check_enemigos
00:00006D29 X check_enemigos.mira_nivel0
00:00006D31   check_enemigos.mira_nivel1
00:00006D39   check_enemigos.mira_nivel2
00:00006D41   check_enemigos.mira_nivel3
00:00006D49   check_enemigos.mira_nivel4
00:00006D51   check_enemigos.mira_nivel5
00:00006D59   check_enemigos.mira_nivel6
00:00006D5C X fin_check_enemigos
00:00006D5C   check_enemigos_fase0
00:00006D5C X check_enemigos_fase0.check_enemigo1
00:00006D6E   check_enemigos_fase0.check_enemigo2
00:00006D80   check_enemigos_fase0.check_enemigo3
00:00006D92   check_enemigos_fase0.check_enemigo4
00:00006DA4   check_enemigos_fase0.check_enemigo5
00:00006DB6   check_enemigos_fase0.check_enemigo6
00:00006DC6 X fin_check_enemigos_fase0
00:00006DC7   check_enemigos_fase1
00:00006DC7 X check_enemigos_fase1.check_enemigo1
00:00006DD9   check_enemigos_fase1.check_enemigo2
00:00006DEB   check_enemigos_fase1.check_enemigo3
00:00006DFD   check_enemigos_fase1.check_enemigo4
00:00006E0F   check_enemigos_fase1.check_enemigo5
00:00006E21   check_enemigos_fase1.check_enemigo6
00:00006E33   check_enemigos_fase1.check_enemigo7
00:00006E43 X fin_check_enemigos_fase1
00:00006E44   check_enemigos_fase2
00:00006E44 X check_enemigos_fase2.check_enemigo1
00:00006E56   check_enemigos_fase2.check_enemigo2
00:00006E68   check_enemigos_fase2.check_enemigo3
00:00006E7A   check_enemigos_fase2.check_enemigo4
00:00006E8C   check_enemigos_fase2.check_enemigo5
00:00006E9E   check_enemigos_fase2.check_enemigo6
00:00006EB0   check_enemigos_fase2.check_enemigo7
00:00006EC0 X fin_check_enemigos_fase2
00:00006EC1   check_enemigos_fase3
00:00006EC1 X check_enemigos_fase3.check_enemigo1
00:00006ED3   check_enemigos_fase3.check_enemigo2
00:00006EE5   check_enemigos_fase3.check_enemigo3
00:00006EF7   check_enemigos_fase3.check_enemigo4
00:00006F09   check_enemigos_fase3.check_enemigo5
00:00006F1B   check_enemigos_fase3.check_enemigo6
00:00006F2D   check_enemigos_fase3.check_enemigo7
00:00006F3D X fin_check_enemigos_fase3
00:00006F3E   check_enemigos_fase4
00:00006F3E X check_enemigos_fase4.check_enemigo1
00:00006F50   check_enemigos_fase4.check_enemigo2
00:00006F62   check_enemigos_fase4.check_enemigo3
00:00006F74   check_enemigos_fase4.check_enemigo4
00:00006F86   check_enemigos_fase4.check_enemigo5
00:00006F98   check_enemigos_fase4.check_enemigo6
00:00006FAA   check_enemigos_fase4.check_enemigo7
00:00006FBA X fin_check_enemigos_fase4
00:00006FBB   check_enemigos_fase5
00:00006FBB X check_enemigos_fase5.check_enemigo1
00:00006FCD   check_enemigos_fase5.check_enemigo2
00:00006FDF   check_enemigos_fase5.check_enemigo3
00:00006FF1   check_enemigos_fase5.check_enemigo4
00:00007003   check_enemigos_fase5.check_enemigo5
00:00007015   check_enemigos_fase5.check_enemigo6
00:00007027   check_enemigos_fase5.check_enemigo7
00:00007037 X fin_check_enemigos_fase5
00:00007038   check_enemigos_fase6
00:00007038 X check_enemigos_fase6.check_enemigo1
00:0000704A   check_enemigos_fase6.check_enemigo2
00:0000705C   check_enemigos_fase6.check_enemigo3
00:0000706C X fin_check_enemigos_fase6
00:0000706D   mueve_enemigo
00:00007074 X fin_mueve_enemigo
00:00007075 X inicializa_replayer_efectos_interrupciones
00:0000708E X fin_inicializa_replayer_efectos_interrupciones
00:0000708F   subrutina_isr
00:00007098 X fin_subrutina_isr
00:00007098 X subrutinas_sonido
00:00000000   CHNPRM_PsInOr
00:00000001   CHNPRM_PsInSm
00:00000002   CHNPRM_CrAmSl
00:00000003   CHNPRM_CrNsSl
00:00000004   CHNPRM_CrEnSl
00:00000005   CHNPRM_TSlCnt
00:00000006   CHNPRM_CrTnSl
00:00000008   CHNPRM_TnAcc
00:0000000A   CHNPRM_COnOff
00:0000000B   CHNPRM_OnOffD
00:0000000C   CHNPRM_OffOnD
00:0000000D   CHNPRM_OrnPtr
00:0000000F   CHNPRM_SamPtr
00:00000011   CHNPRM_NNtSkp
00:00000012   CHNPRM_Note
00:00000013   CHNPRM_SlToNt
00:00000014   CHNPRM_Env_En
00:00000015   CHNPRM_Flags
00:00000016   CHNPRM_TnSlDl
00:00000017   CHNPRM_TSlStp
00:00000019   CHNPRM_TnDelt
00:0000001B   CHNPRM_NtSkCn
00:0000001C   CHNPRM_Volume
00:0000001D X CHNPRM_Size
00:00000000   AR_TonA
00:00000002   AR_TonB
00:00000004   AR_TonC
00:00000006   AR_Noise
00:00000007   AR_Mixer
00:00000008   AR_AmplA
00:00000009   AR_AmplB
00:0000000A   AR_AmplC
00:0000000B   AR_Env
00:0000000D   AR_EnvTp
00:00007098   CHECKLP
00:000070A9 X PT3_MUTE
00:000070B5   PT3_INIT
00:000070F4   PT3_INIT.TP_0
00:00007100   PT3_INIT.TP_1
00:00007107   PT3_INIT.TP_2
00:00007175   PT3_INIT.L1
00:00007182   PT3_INIT.L2
00:00007186 X PT3_INIT.L3
00:000071AD   PT3_INIT.CORR_1
00:000071BB   PT3_INIT.CORR_2
00:000071C2   PT3_INIT.TC_EXIT
00:000071CD   PT3_INIT.INITV1
00:000071D5   PT3_INIT.INITV2
00:000071E9   PT3_INIT.INITV3
00:000071ED   PD_OrSm
00:000071F7   PD_SAM
00:000071F8   PD_SAM_
00:0000720E   PD_VOL
00:00007217   PD_EOff
00:0000721F   PD_SorE
00:00007229   PD_ENV
00:0000722E   PD_ORN
00:00007233   PD_ESAM
00:00007240   PTDECOD
00:0000724F   PD_LOOP
00:00007252   PD_LP2
00:0000727F   PD_NOIS
00:00007284   PD_REL
00:0000728A   PD_NOTE
00:00007292   PD_RES
00:000072A4   PD_FIN
00:000072AB   C_PORTM
00:000072F6   C_PORTM.NOSIG
00:00007300   SET_STP
00:0000730C   C_GLISS
00:0000731F   C_SMPOS
00:00007325   C_ORPOS
00:0000732B   C_VIBRT
00:00007343   C_ENGLS
00:00007355   C_DELAY
00:0000735B   SETENV
00:00007376   C_NOP
00:00007377   SETORN
00:00007390   SPCCOMS
00:000073B0   CHREGS
00:000073D3   CHREGS.CH_ORPS
00:000073DE   CHREGS.CH_NTP
00:000073E4   CHREGS.CH_NOK
00:000073FF   CHREGS.CH_SMPS
00:00007415   CHREGS.CH_NOAC
00:0000745C   CHREGS.CH_STPP
00:00007471   CHREGS.CH_AMP
00:00007483   CHREGS.CH_AMIN
00:00007488   CHREGS.CH_SVAM
00:0000748B   CHREGS.CH_NOAM
00:00007494   CHREGS.CH_APOS
00:0000749A   CHREGS.CH_VOL
00:000074A5 X CHREGS.CH_ENV
00:000074AC   CHREGS.CH_NOEN
00:000074C6   CHREGS.NO_ENAC
00:000074CD   CHREGS.NO_ENSL
00:000074DB   CHREGS.CH_MIX
00:000074DF   CHREGS.CH_EXIT
00:000074FE   CHREGS.CH_ONDL
00:00007502   PT3_PLAY
00:00007536   PT3_PLAY.PLNLP
00:0000755D   PT3_PLAY.PL1A
00:00007568   PT3_PLAY.PL1B
00:0000757D   PT3_PLAY.PL1C
00:00007592   PT3_PLAY.PL1D
00:00007598   PT3_PLAY.PL2
00:000075FA   PT3_ROUT
00:000075FB   ROUT_A0
00:00007607   ROUT_A0.LOUT
00:0000761B   NT_DATA
00:0000762B   T_
00:0000762B   TCOLD_0
00:00007637   TCNEW_1
00:00007637   TCOLD_1
00:00007639   TCOLD_2
00:0000764B   TCNEW_3
00:0000764C   TCOLD_3
00:00007655   TCNEW_0
00:00007660   TCNEW_2
00:0000766B   EMPTYSAMORN
00:0000766F   T_PACK
00:00000000 X AYFXRELATIVE
00:000076A4   ayFX_SETUP
00:000076B0   ayFX_END
00:000076B6   ayFX_INIT
00:000076C7   ayFX_INIT.CHECK_PRI
00:000076E8   ayFX_INIT.INIT_END
00:000076EC   ayFX_PLAY
00:00007700   ayFX_PLAY.TAKECB
00:00007711   ayFX_PLAY.CHECK_NN
00:0000771E   ayFX_PLAY.SETPOINTER
00:00007732   ayFX_PLAY.SETMASKS
00:00007740 X ayFX_PLAY.CHK1
00:00007742 X ayFX_PLAY.PLAY_C
00:0000774F   ayFX_PLAY.CHK2
00:00007754 X ayFX_PLAY.PLAY_B
00:00007761   ayFX_PLAY.CHK3
00:00007764 X ayFX_PLAY.PLAY_A
00:00007771   ayFX_PLAY.SETMIXER
00:00007781   song
00:000080E9   sfx_bank
00:00008134   depack_VRAM
00:00008165   literal
00:0000816C   loop
00:00008175 X getlen
00:0000817B   lus
00:00008198   lenok
00:000081A5   mode7
00:000081AB   mode6
00:000081B1   mode5
00:000081B7   mode4
00:000081BD   mode3
00:000081C3   mode2
00:000081D3   offsok
00:000081DE   offsok.loop
00:0000820A   getbit
00:0000820E   getbitexx
00:00008214   Depack_out
00:00008216   modes
00:00008224   tiles_patrones_inicio
00:00008435   tiles_color_inicio
00:000084A9   tiles_mapa_inicio
00:0000858D   tiles_mapa_entrefases
00:00008596   tiles_patrones_nivel0
00:000088BE   tiles_color_nivel0
00:0000893F   tiles_mapa_nivel0
00:00008974   tiles_patrones_nivel1
00:00008C9C   tiles_color_nivel1
00:00008D1D   tiles_mapa_nivel1
00:00008D52   tiles_patrones_nivel2
00:0000907A   tiles_color_nivel2
00:000090FB   tiles_mapa_nivel2
00:00009130   tiles_patrones_nivel3
00:00009458   tiles_color_nivel3
00:000094D9   tiles_mapa_nivel3
00:0000950E   tiles_patrones_nivel4
00:00009836   tiles_color_nivel4
00:000098B7   tiles_mapa_nivel4
00:000098EC   tiles_patrones_nivel5
00:00009C14   tiles_color_nivel5
00:00009C95   tiles_mapa_nivel5
00:00009CCA   tiles_patrones_nivel6
00:00009FF2   tiles_color_nivel6
00:0000A073   tiles_mapa_nivel6
00:0000A0A8   tiles_patrones_marcador
00:0000A1FB   tiles_color_marcador
00:0000A23C   tiles_mapa_marcador
00:0000A29E   sprites_comunes
00:0000A29E X sprite_punto_mira_1
00:0000A2BE X sprite_punto_mira_2
00:0000A2DE X sprite_punto_mira_1_mejorado
00:0000A2FE X sprite_punto_mira_2_mejorado
00:0000A31E X sprite_explosion
00:0000A33E   fin_sprites_comunes
00:0000A33E   sprite_cienpies
00:0000A33E X sprite_cienpies_1
00:0000A35E X sprite_cienpies_2
00:0000A37E   fin_sprite_cienpies
00:0000A37E   sprite_serpiente
00:0000A37E X sprite_serpiente1_1
00:0000A39E X sprite_serpiente1_2
00:0000A3BE X sprite_serpiente2_1
00:0000A3DE X sprite_serpiente2_2
00:0000A3FE   fin_sprite_serpiente
00:0000A3FE   sprite_arana
00:0000A3FE X sprite_arana_1
00:0000A41E X sprite_arana_2
00:0000A43E   fin_sprite_arana
00:0000A43E   sprite_murcielago
00:0000A43E X sprite_murcielago_1
00:0000A45E X sprite_murcielago_2
00:0000A47E   fin_sprite_murcielago
00:0000A47E   sprite_lobo
00:0000A47E X sprite_lobo1_1
00:0000A49E X sprite_lobo1_2
00:0000A4BE X sprite_lobo1_3
00:0000A4DE X sprite_lobo1_4
00:0000A4FE X sprite_lobo2_1
00:0000A51E X sprite_lobo2_2
00:0000A53E X sprite_lobo2_3
00:0000A55E X sprite_lobo2_4
00:0000A57E   fin_sprite_lobo
00:0000A57E   sprite_esqueleto
00:0000A57E X sprite_esqueleto1_1
00:0000A59E X sprite_esqueleto1_2
00:0000A5BE X sprite_esqueleto1_3
00:0000A5DE X sprite_esqueleto1_4
00:0000A5FE X sprite_esqueleto2_1
00:0000A61E X sprite_esqueleto2_2
00:0000A63E X sprite_esqueleto2_3
00:0000A65E X sprite_esqueleto2_4
00:0000A67E   fin_sprite_esqueleto
00:0000A67E   sprite_zombi
00:0000A67E X sprite_zombi1_1
00:0000A69E X sprite_zombi1_2
00:0000A6BE X sprite_zombi1_3
00:0000A6DE X sprite_zombi1_4
00:0000A6FE X sprite_zombi2_1
00:0000A71E X sprite_zombi2_2
00:0000A73E X sprite_zombi2_3
00:0000A75E X sprite_zombi2_4
00:0000A77E   fin_sprite_zombi
00:0000A77E   sprite_fantasma
00:0000A77E X sprite_fantasma_1
00:0000A79E X sprite_fantasma_2
00:0000A7BE X sprite_fantasma_3
00:0000A7DE X sprite_fantasma_4
00:0000A7FE   fin_sprite_fantasma
00:0000A7FE   sprite_caballero
00:0000A7FE X sprite_caballero1_1
00:0000A81E X sprite_caballero1_2
00:0000A83E X sprite_caballero1_3
00:0000A85E X sprite_caballero1_4
00:0000A87E X sprite_caballero2_1
00:0000A89E X sprite_caballero2_2
00:0000A8BE X sprite_caballero2_3
00:0000A8DE X sprite_caballero2_4
00:0000A8FE   fin_sprite_caballero
00:0000A8FE   sprite_fuego
00:0000A8FE X sprite_fuego_1
00:0000A91E X sprite_fuego_2
00:0000A93E X sprite_fuego_3
00:0000A95E X sprite_fuego_4
00:0000A97E   fin_sprite_fuego
00:0000A97E   sprite_magia
00:0000A97E X sprite_magia_1
00:0000A99E X sprite_magia_2
00:0000A9BE X sprite_magia_3
00:0000A9DE X sprite_magia_4
00:0000A9FE   fin_sprite_magia
00:0000A9FE   sprite_jefelobo
00:0000A9FE X sprite_jefelobo1_1
00:0000AA1E X sprite_jefelobo1_2
00:0000AA3E X sprite_jefelobo1_3
00:0000AA5E X sprite_jefelobo1_4
00:0000AA7E X sprite_jefelobo1_5
00:0000AA9E X sprite_jefelobo1_6
00:0000AABE X sprite_jefelobo1_7
00:0000AADE X sprite_jefelobo1_8
00:0000AAFE X sprite_jefelobo2_1
00:0000AB1E X sprite_jefelobo2_2
00:0000AB3E X sprite_jefelobo2_3
00:0000AB5E X sprite_jefelobo2_4
00:0000AB7E X sprite_jefelobo2_5
00:0000AB9E X sprite_jefelobo2_6
00:0000ABBE X sprite_jefelobo2_7
00:0000ABDE X sprite_jefelobo2_8
00:0000ABFE   fin_sprite_jefelobo
00:0000ABFE   sprite_jefemurcielago
00:0000ABFE X sprite_jefemurcielago_1
00:0000AC1E X sprite_jefemurcielago_2
00:0000AC3E X sprite_jefemurcielago_3
00:0000AC5E X sprite_jefemurcielago_4
00:0000AC7E X sprite_jefemurcielago_5
00:0000AC9E X sprite_jefemurcielago_6
00:0000ACBE X sprite_jefemurcielago_7
00:0000ACDE X sprite_jefemurcielago_8
00:0000ACFE   fin_sprite_jefemurcielago
00:0000ACFE   sprite_jefefantasma
00:0000ACFE X sprite_jefefantasma_1
00:0000AD1E X sprite_jefefantasma_2
00:0000AD3E X sprite_jefefantasma_3
00:0000AD5E X sprite_jefefantasma_4
00:0000AD7E X sprite_jefefantasma_5
00:0000AD9E X sprite_jefefantasma_6
00:0000ADBE X sprite_jefefantasma_7
00:0000ADDE X sprite_jefefantasma_8
00:0000ADFE   fin_sprite_jefefantasma
00:0000ADFE   sprite_jefezombi
00:0000ADFE X sprite_jefezombi1_1
00:0000AE1E X sprite_jefezombi1_2
00:0000AE3E X sprite_jefezombi1_3
00:0000AE5E X sprite_jefezombi1_4
00:0000AE7E X sprite_jefezombi1_5
00:0000AE9E X sprite_jefezombi1_6
00:0000AEBE X sprite_jefezombi1_7
00:0000AEDE X sprite_jefezombi1_8
00:0000AEFE X sprite_jefezombi2_1
00:0000AF1E X sprite_jefezombi2_2
00:0000AF3E X sprite_jefezombi2_3
00:0000AF5E X sprite_jefezombi2_4
00:0000AF7E X sprite_jefezombi2_5
00:0000AF9E X sprite_jefezombi2_6
00:0000AFBE X sprite_jefezombi2_7
00:0000AFDE X sprite_jefezombi2_8
00:0000AFFE   fin_sprite_jefezombi
00:0000AFFE   sprite_jefecaballero
00:0000AFFE X sprite_jefecaballero1_1
00:0000B01E X sprite_jefecaballero1_2
00:0000B03E X sprite_jefecaballero1_3
00:0000B05E X sprite_jefecaballero1_4
00:0000B07E X sprite_jefecaballero1_5
00:0000B09E X sprite_jefecaballero1_6
00:0000B0BE X sprite_jefecaballero1_7
00:0000B0DE X sprite_jefecaballero1_8
00:0000B0FE X sprite_jefecaballero2_1
00:0000B11E X sprite_jefecaballero2_2
00:0000B13E X sprite_jefecaballero2_3
00:0000B15E X sprite_jefecaballero2_4
00:0000B17E X sprite_jefecaballero2_5
00:0000B19E X sprite_jefecaballero2_6
00:0000B1BE X sprite_jefecaballero2_7
00:0000B1DE X sprite_jefecaballero2_8
00:0000B1FE   fin_sprite_jefecaballero
00:0000B1FE   sprite_jefebeholder
00:0000B1FE X sprite_jefebeholder_1
00:0000B21E X sprite_jefebeholder_2
00:0000B23E X sprite_jefebeholder_3
00:0000B25E X sprite_jefebeholder_4
00:0000B27E X sprite_jefebeholder_5
00:0000B29E X sprite_jefebeholder_6
00:0000B2BE X sprite_jefebeholder_7
00:0000B2DE X sprite_jefebeholder_8
00:0000B2FE   fin_sprite_jefebeholder
00:0000B2FE   sprite_manoizquierda
00:0000B2FE X sprite_manoizquierda_1
00:0000B31E X sprite_manoizquierda_2
00:0000B33E X fin_sprite_manoizquierda
00:0000B33E X sprite_manoderecha
00:0000B33E X sprite_manoderecha_1
00:0000B35E X sprite_manoderecha_2
00:0000B37E X fin_sprite_manoderecha
00:0000B37E X sprite_conde
00:0000B37E X sprite_conde_1
00:0000B39E X sprite_conde_2
00:0000B3BE X sprite_conde_3
00:0000B3DE X sprite_conde_4
00:0000B3FE   fin_sprite_conde
00:0000B3FE   texto_vidas
00:0000B403   texto_energia
00:0000B409   texto_reliquias
00:0000B40F   texto_nivel
00:0000B414 X texto_entrefases
00:0000B414   texto_entrefases1
00:0000B432   texto_entrefases2
00:0000B450   texto_entrefases3
00:0000B46E   texto_entrefases4
00:0000B48C   texto_iniciar
00:0000B4AA   texto_autoria
00:0000B4B8   texto_iniciar_blanco
00:0000B4D6   pinta_texto_vida
00:0000B4E2 X fin_pinta_texto_vida
00:0000B4E2   pinta_texto_energia
00:0000B4EE X fin_pinta_texto_energia
00:0000B4EE   pinta_texto_reliquias
00:0000B4FA X fin_pinta_texto_reliquias
00:0000B4FA   pinta_texto_nivel
00:0000B506 X fin_pinta_texto_nivel
00:0000B506   pinta_texto_entrefases
00:0000B536 X fin_pinta_texto_entrefases
00:0000B536   pinta_textos_inicio_disparo
00:0000B542 X fin_pinta_textos_inicio_disparo
00:0000B542   pinta_textos_inicio_disparo_blanco
00:0000B54E X fin_pinta_textos_inicio_disparo_blanco
00:0000B54E   pinta_textos_inicio_autoria
00:0000B55A X fin_pinta_textos_inicio_autoria
00:0000B55A   inicializacion_variables
00:0000BA98   fin_inicializacion_variables


 Output: /home/paco/Documentos/proyectos/vampireslayer/test1/src/vs.out
-------------------------------------------------

 Page: 00
  Org: 00004000  Size: *  Used: 00000000

    No output

 Output: vs.rom
-------------------------------------------------

 Page: 00
  Org: 00004000  Size: *  Used: 00008000

   Address   Length Align   Label
   00004000   32768         START
